   1              		.cpu cortex-m4
   2              		.eabi_attribute 20, 1
   3              		.eabi_attribute 21, 1
   4              		.eabi_attribute 23, 3
   5              		.eabi_attribute 24, 1
   6              		.eabi_attribute 25, 1
   7              		.eabi_attribute 26, 1
   8              		.eabi_attribute 30, 6
   9              		.eabi_attribute 34, 1
  10              		.eabi_attribute 18, 4
  11              		.file	"fpr.c"
  12              		.text
  13              	.Ltext0:
  14              		.cfi_sections	.debug_frame
  15              		.section	.text.fpr_ursh,"ax",%progbits
  16              		.align	1
  17              		.arch armv7e-m
  18              		.syntax unified
  19              		.thumb
  20              		.thumb_func
  21              		.fpu softvfp
  23              	fpr_ursh:
  24              	.LFB1:
  25              		.file 1 "fpr.h"
   1:fpr.h         **** /*
   2:fpr.h         ****  * Floating-point operations.
   3:fpr.h         ****  *
   4:fpr.h         ****  * ==========================(LICENSE BEGIN)============================
   5:fpr.h         ****  *
   6:fpr.h         ****  * Copyright (c) 2017-2019  Falcon Project
   7:fpr.h         ****  *
   8:fpr.h         ****  * Permission is hereby granted, free of charge, to any person obtaining
   9:fpr.h         ****  * a copy of this software and associated documentation files (the
  10:fpr.h         ****  * "Software"), to deal in the Software without restriction, including
  11:fpr.h         ****  * without limitation the rights to use, copy, modify, merge, publish,
  12:fpr.h         ****  * distribute, sublicense, and/or sell copies of the Software, and to
  13:fpr.h         ****  * permit persons to whom the Software is furnished to do so, subject to
  14:fpr.h         ****  * the following conditions:
  15:fpr.h         ****  *
  16:fpr.h         ****  * The above copyright notice and this permission notice shall be
  17:fpr.h         ****  * included in all copies or substantial portions of the Software.
  18:fpr.h         ****  *
  19:fpr.h         ****  * THE SOFTWARE IS PROVIDED "AS IS", WITHOUT WARRANTY OF ANY KIND,
  20:fpr.h         ****  * EXPRESS OR IMPLIED, INCLUDING BUT NOT LIMITED TO THE WARRANTIES OF
  21:fpr.h         ****  * MERCHANTABILITY, FITNESS FOR A PARTICULAR PURPOSE AND NONINFRINGEMENT.
  22:fpr.h         ****  * IN NO EVENT SHALL THE AUTHORS OR COPYRIGHT HOLDERS BE LIABLE FOR ANY
  23:fpr.h         ****  * CLAIM, DAMAGES OR OTHER LIABILITY, WHETHER IN AN ACTION OF CONTRACT,
  24:fpr.h         ****  * TORT OR OTHERWISE, ARISING FROM, OUT OF OR IN CONNECTION WITH THE
  25:fpr.h         ****  * SOFTWARE OR THE USE OR OTHER DEALINGS IN THE SOFTWARE.
  26:fpr.h         ****  *
  27:fpr.h         ****  * ===========================(LICENSE END)=============================
  28:fpr.h         ****  *
  29:fpr.h         ****  * @author   Thomas Pornin <thomas.pornin@nccgroup.com>
  30:fpr.h         ****  */
  31:fpr.h         **** 
  32:fpr.h         **** 
  33:fpr.h         **** /* ====================================================================== */
  34:fpr.h         **** /*
  35:fpr.h         ****  * Custom floating-point implementation with integer arithmetics. We
  36:fpr.h         ****  * use IEEE-754 "binary64" format, with some simplifications:
  37:fpr.h         ****  *
  38:fpr.h         ****  *   - Top bit is s = 1 for negative, 0 for positive.
  39:fpr.h         ****  *
  40:fpr.h         ****  *   - Exponent e uses the next 11 bits (bits 52 to 62, inclusive).
  41:fpr.h         ****  *
  42:fpr.h         ****  *   - Mantissa m uses the 52 low bits.
  43:fpr.h         ****  *
  44:fpr.h         ****  * Encoded value is, in general: (-1)^s * 2^(e-1023) * (1 + m*2^(-52))
  45:fpr.h         ****  * i.e. the mantissa really is a 53-bit number (less than 2.0, but not
  46:fpr.h         ****  * less than 1.0), but the top bit (equal to 1 by definition) is omitted
  47:fpr.h         ****  * in the encoding.
  48:fpr.h         ****  *
  49:fpr.h         ****  * In IEEE-754, there are some special values:
  50:fpr.h         ****  *
  51:fpr.h         ****  *   - If e = 2047, then the value is either an infinite (m = 0) or
  52:fpr.h         ****  *     a NaN (m != 0).
  53:fpr.h         ****  *
  54:fpr.h         ****  *   - If e = 0, then the value is either a zero (m = 0) or a subnormal,
  55:fpr.h         ****  *     aka "denormalized number" (m != 0).
  56:fpr.h         ****  *
  57:fpr.h         ****  * Of these, we only need the zeros. The caller is responsible for not
  58:fpr.h         ****  * providing operands that would lead to infinites, NaNs or subnormals.
  59:fpr.h         ****  * If inputs are such that values go out of range, then indeterminate
  60:fpr.h         ****  * values are returned (it would still be deterministic, but no specific
  61:fpr.h         ****  * value may be relied upon).
  62:fpr.h         ****  *
  63:fpr.h         ****  * At the C level, the three parts are stored in a 64-bit unsigned
  64:fpr.h         ****  * word.
  65:fpr.h         ****  *
  66:fpr.h         ****  * One may note that a property of the IEEE-754 format is that order
  67:fpr.h         ****  * is preserved for positive values: if two positive floating-point
  68:fpr.h         ****  * values x and y are such that x < y, then their respective encodings
  69:fpr.h         ****  * as _signed_ 64-bit integers i64(x) and i64(y) will be such that
  70:fpr.h         ****  * i64(x) < i64(y). For negative values, order is reversed: if x < 0,
  71:fpr.h         ****  * y < 0, and x < y, then ia64(x) > ia64(y).
  72:fpr.h         ****  *
  73:fpr.h         ****  * IMPORTANT ASSUMPTIONS:
  74:fpr.h         ****  * ======================
  75:fpr.h         ****  *
  76:fpr.h         ****  * For proper computations, and constant-time behaviour, we assume the
  77:fpr.h         ****  * following:
  78:fpr.h         ****  *
  79:fpr.h         ****  *   - 32x32->64 multiplication (unsigned) has an execution time that
  80:fpr.h         ****  *     is independent of its operands. This is true of most modern
  81:fpr.h         ****  *     x86 and ARM cores. Notable exceptions are the ARM Cortex M0, M0+
  82:fpr.h         ****  *     and M3 (in the M0 and M0+, this is done in software, so it depends
  83:fpr.h         ****  *     on that routine), and the PowerPC cores from the G3/G4 lines.
  84:fpr.h         ****  *     For more info, see: https://www.bearssl.org/ctmul.html
  85:fpr.h         ****  *
  86:fpr.h         ****  *   - Left-shifts and right-shifts of 32-bit values have an execution
  87:fpr.h         ****  *     time which does not depend on the shifted value nor on the
  88:fpr.h         ****  *     shift count. An historical exception is the Pentium IV, but most
  89:fpr.h         ****  *     modern CPU have barrel shifters. Some small microcontrollers
  90:fpr.h         ****  *     might have varying-time shifts (not the ARM Cortex M*, though).
  91:fpr.h         ****  *
  92:fpr.h         ****  *   - Right-shift of a signed negative value performs a sign extension.
  93:fpr.h         ****  *     As per the C standard, this operation returns an
  94:fpr.h         ****  *     implementation-defined result (this is NOT an "undefined
  95:fpr.h         ****  *     behaviour"). On most/all systems, an arithmetic shift is
  96:fpr.h         ****  *     performed, because this is what makes most sense.
  97:fpr.h         ****  */
  98:fpr.h         **** 
  99:fpr.h         **** /*
 100:fpr.h         ****  * Normally we should declare the 'fpr' type to be a struct or union
 101:fpr.h         ****  * around the internal 64-bit value; however, we want to use the
 102:fpr.h         ****  * direct 64-bit integer type to enable a lighter call convention on
 103:fpr.h         ****  * ARM platforms. This means that direct (invalid) use of operators
 104:fpr.h         ****  * such as '*' or '+' will not be caught by the compiler. We rely on
 105:fpr.h         ****  * the "normal" (non-emulated) code to detect such instances.
 106:fpr.h         ****  */
 107:fpr.h         **** typedef uint64_t fpr;
 108:fpr.h         **** 
 109:fpr.h         **** /*
 110:fpr.h         ****  * For computations, we split values into an integral mantissa in the
 111:fpr.h         ****  * 2^54..2^55 range, and an (adjusted) exponent. The lowest bit is
 112:fpr.h         ****  * "sticky" (it is set to 1 if any of the bits below it is 1); when
 113:fpr.h         ****  * re-encoding, the low two bits are dropped, but may induce an
 114:fpr.h         ****  * increment in the value for proper rounding.
 115:fpr.h         ****  */
 116:fpr.h         **** 
 117:fpr.h         **** /*
 118:fpr.h         ****  * Right-shift a 64-bit unsigned value by a possibly secret shift count.
 119:fpr.h         ****  * We assumed that the underlying architecture had a barrel shifter for
 120:fpr.h         ****  * 32-bit shifts, but for 64-bit shifts on a 32-bit system, this will
 121:fpr.h         ****  * typically invoke a software routine that is not necessarily
 122:fpr.h         ****  * constant-time; hence the function below.
 123:fpr.h         ****  *
 124:fpr.h         ****  * Shift count n MUST be in the 0..63 range.
 125:fpr.h         ****  */
 126:fpr.h         **** static inline uint64_t
 127:fpr.h         **** fpr_ursh(uint64_t x, int n)
 128:fpr.h         **** {
  26              		.loc 1 128 1
  27              		.cfi_startproc
  28              		@ args = 0, pretend = 0, frame = 40
  29              		@ frame_needed = 1, uses_anonymous_args = 0
  30              		@ link register save eliminated.
  31 0000 2DE9B00F 		push	{r4, r5, r7, r8, r9, r10, fp}
  32              	.LCFI0:
  33              		.cfi_def_cfa_offset 28
  34              		.cfi_offset 4, -28
  35              		.cfi_offset 5, -24
  36              		.cfi_offset 7, -20
  37              		.cfi_offset 8, -16
  38              		.cfi_offset 9, -12
  39              		.cfi_offset 10, -8
  40              		.cfi_offset 11, -4
  41 0004 8BB0     		sub	sp, sp, #44
  42              	.LCFI1:
  43              		.cfi_def_cfa_offset 72
  44 0006 00AF     		add	r7, sp, #0
  45              	.LCFI2:
  46              		.cfi_def_cfa_register 7
  47 0008 C7E90801 		strd	r0, [r7, #32]
  48 000c FA61     		str	r2, [r7, #28]
 129:fpr.h         **** 	x ^= (x ^ (x >> 32)) & -(uint64_t)(n >> 5);
  49              		.loc 1 129 15
  50 000e D7E90823 		ldrd	r2, [r7, #32]
  51 0012 4FF00000 		mov	r0, #0
  52 0016 4FF00001 		mov	r1, #0
  53 001a 1800     		movs	r0, r3
  54 001c 0021     		movs	r1, #0
  55              		.loc 1 129 10
  56 001e D7E90823 		ldrd	r2, [r7, #32]
  57 0022 80EA020C 		eor	ip, r0, r2
  58 0026 C7F810C0 		str	ip, [r7, #16]
  59 002a 4B40     		eors	r3, r3, r1
  60 002c 7B61     		str	r3, [r7, #20]
  61              		.loc 1 129 39
  62 002e FB69     		ldr	r3, [r7, #28]
  63 0030 5B11     		asrs	r3, r3, #5
  64              		.loc 1 129 26
  65 0032 DA17     		asrs	r2, r3, #31
  66 0034 BB60     		str	r3, [r7, #8]
  67 0036 FA60     		str	r2, [r7, #12]
  68              		.loc 1 129 25
  69 0038 0023     		movs	r3, #0
  70 003a D7E90212 		ldrd	r1, [r7, #8]
  71 003e 0846     		mov	r0, r1
  72 0040 D0F1000A 		rsbs	r10, r0, #0
  73 0044 63EB020B 		sbc	fp, r3, r2
  74              		.loc 1 129 23
  75 0048 D7E90423 		ldrd	r2, [r7, #16]
  76 004c 1146     		mov	r1, r2
  77 004e 01EA0A04 		and	r4, r1, r10
  78 0052 03EA0B05 		and	r5, r3, fp
  79              		.loc 1 129 4
  80 0056 D7E90823 		ldrd	r2, [r7, #32]
  81 005a 82EA0401 		eor	r1, r2, r4
  82 005e 3960     		str	r1, [r7]
  83 0060 6B40     		eors	r3, r3, r5
  84 0062 7B60     		str	r3, [r7, #4]
  85 0064 D7E90034 		ldrd	r3, [r7]
  86 0068 C7E90834 		strd	r3, [r7, #32]
 130:fpr.h         **** 	return x >> (n & 31);
  87              		.loc 1 130 17
  88 006c FB69     		ldr	r3, [r7, #28]
  89 006e 03F01F01 		and	r1, r3, #31
  90              		.loc 1 130 11
  91 0072 D7E90823 		ldrd	r2, [r7, #32]
  92 0076 C1F12004 		rsb	r4, r1, #32
  93 007a A1F12000 		sub	r0, r1, #32
  94 007e 22FA01F8 		lsr	r8, r2, r1
  95 0082 03FA04F4 		lsl	r4, r3, r4
  96 0086 48EA0408 		orr	r8, r8, r4
  97 008a 23FA00F0 		lsr	r0, r3, r0
  98 008e 48EA0008 		orr	r8, r8, r0
  99 0092 23FA01F9 		lsr	r9, r3, r1
 100 0096 4246     		mov	r2, r8
 101 0098 4B46     		mov	r3, r9
 131:fpr.h         **** }
 102              		.loc 1 131 1
 103 009a 1046     		mov	r0, r2
 104 009c 1946     		mov	r1, r3
 105 009e 2C37     		adds	r7, r7, #44
 106              	.LCFI3:
 107              		.cfi_def_cfa_offset 28
 108 00a0 BD46     		mov	sp, r7
 109              	.LCFI4:
 110              		.cfi_def_cfa_register 13
 111              		@ sp needed
 112 00a2 BDE8B00F 		pop	{r4, r5, r7, r8, r9, r10, fp}
 113              	.LCFI5:
 114              		.cfi_restore 11
 115              		.cfi_restore 10
 116              		.cfi_restore 9
 117              		.cfi_restore 8
 118              		.cfi_restore 7
 119              		.cfi_restore 5
 120              		.cfi_restore 4
 121              		.cfi_def_cfa_offset 0
 122 00a6 7047     		bx	lr
 123              		.cfi_endproc
 124              	.LFE1:
 126              		.section	.text.fpr_ulsh,"ax",%progbits
 127              		.align	1
 128              		.syntax unified
 129              		.thumb
 130              		.thumb_func
 131              		.fpu softvfp
 133              	fpr_ulsh:
 134              	.LFB3:
 132:fpr.h         **** 
 133:fpr.h         **** /*
 134:fpr.h         ****  * Right-shift a 64-bit signed value by a possibly secret shift count
 135:fpr.h         ****  * (see fpr_ursh() for the rationale).
 136:fpr.h         ****  *
 137:fpr.h         ****  * Shift count n MUST be in the 0..63 range.
 138:fpr.h         ****  */
 139:fpr.h         **** static inline int64_t
 140:fpr.h         **** fpr_irsh(int64_t x, int n)
 141:fpr.h         **** {
 142:fpr.h         **** 	x ^= (x ^ (x >> 32)) & -(int64_t)(n >> 5);
 143:fpr.h         **** 	return x >> (n & 31);
 144:fpr.h         **** }
 145:fpr.h         **** 
 146:fpr.h         **** /*
 147:fpr.h         ****  * Left-shift a 64-bit unsigned value by a possibly secret shift count
 148:fpr.h         ****  * (see fpr_ursh() for the rationale).
 149:fpr.h         ****  *
 150:fpr.h         ****  * Shift count n MUST be in the 0..63 range.
 151:fpr.h         ****  */
 152:fpr.h         **** static inline uint64_t
 153:fpr.h         **** fpr_ulsh(uint64_t x, int n)
 154:fpr.h         **** {
 135              		.loc 1 154 1
 136              		.cfi_startproc
 137              		@ args = 0, pretend = 0, frame = 40
 138              		@ frame_needed = 1, uses_anonymous_args = 0
 139              		@ link register save eliminated.
 140 0000 2DE9B00F 		push	{r4, r5, r7, r8, r9, r10, fp}
 141              	.LCFI6:
 142              		.cfi_def_cfa_offset 28
 143              		.cfi_offset 4, -28
 144              		.cfi_offset 5, -24
 145              		.cfi_offset 7, -20
 146              		.cfi_offset 8, -16
 147              		.cfi_offset 9, -12
 148              		.cfi_offset 10, -8
 149              		.cfi_offset 11, -4
 150 0004 8BB0     		sub	sp, sp, #44
 151              	.LCFI7:
 152              		.cfi_def_cfa_offset 72
 153 0006 00AF     		add	r7, sp, #0
 154              	.LCFI8:
 155              		.cfi_def_cfa_register 7
 156 0008 C7E90801 		strd	r0, [r7, #32]
 157 000c FA61     		str	r2, [r7, #28]
 155:fpr.h         **** 	x ^= (x ^ (x << 32)) & -(uint64_t)(n >> 5);
 158              		.loc 1 155 15
 159 000e D7E90823 		ldrd	r2, [r7, #32]
 160 0012 4FF00000 		mov	r0, #0
 161 0016 4FF00001 		mov	r1, #0
 162 001a 1100     		movs	r1, r2
 163 001c 0020     		movs	r0, #0
 164              		.loc 1 155 10
 165 001e D7E90823 		ldrd	r2, [r7, #32]
 166 0022 80EA020C 		eor	ip, r0, r2
 167 0026 C7F810C0 		str	ip, [r7, #16]
 168 002a 4B40     		eors	r3, r3, r1
 169 002c 7B61     		str	r3, [r7, #20]
 170              		.loc 1 155 39
 171 002e FB69     		ldr	r3, [r7, #28]
 172 0030 5B11     		asrs	r3, r3, #5
 173              		.loc 1 155 26
 174 0032 DA17     		asrs	r2, r3, #31
 175 0034 BB60     		str	r3, [r7, #8]
 176 0036 FA60     		str	r2, [r7, #12]
 177              		.loc 1 155 25
 178 0038 0023     		movs	r3, #0
 179 003a D7E90212 		ldrd	r1, [r7, #8]
 180 003e 0846     		mov	r0, r1
 181 0040 D0F1000A 		rsbs	r10, r0, #0
 182 0044 63EB020B 		sbc	fp, r3, r2
 183              		.loc 1 155 23
 184 0048 D7E90423 		ldrd	r2, [r7, #16]
 185 004c 1146     		mov	r1, r2
 186 004e 01EA0A04 		and	r4, r1, r10
 187 0052 03EA0B05 		and	r5, r3, fp
 188              		.loc 1 155 4
 189 0056 D7E90823 		ldrd	r2, [r7, #32]
 190 005a 82EA0401 		eor	r1, r2, r4
 191 005e 3960     		str	r1, [r7]
 192 0060 6B40     		eors	r3, r3, r5
 193 0062 7B60     		str	r3, [r7, #4]
 194 0064 D7E90034 		ldrd	r3, [r7]
 195 0068 C7E90834 		strd	r3, [r7, #32]
 156:fpr.h         **** 	return x << (n & 31);
 196              		.loc 1 156 17
 197 006c FB69     		ldr	r3, [r7, #28]
 198 006e 03F01F01 		and	r1, r3, #31
 199              		.loc 1 156 11
 200 0072 D7E90823 		ldrd	r2, [r7, #32]
 201 0076 A1F12004 		sub	r4, r1, #32
 202 007a C1F12000 		rsb	r0, r1, #32
 203 007e 03FA01F9 		lsl	r9, r3, r1
 204 0082 02FA04F4 		lsl	r4, r2, r4
 205 0086 49EA0409 		orr	r9, r9, r4
 206 008a 22FA00F0 		lsr	r0, r2, r0
 207 008e 49EA0009 		orr	r9, r9, r0
 208 0092 02FA01F8 		lsl	r8, r2, r1
 209 0096 4246     		mov	r2, r8
 210 0098 4B46     		mov	r3, r9
 157:fpr.h         **** }
 211              		.loc 1 157 1
 212 009a 1046     		mov	r0, r2
 213 009c 1946     		mov	r1, r3
 214 009e 2C37     		adds	r7, r7, #44
 215              	.LCFI9:
 216              		.cfi_def_cfa_offset 28
 217 00a0 BD46     		mov	sp, r7
 218              	.LCFI10:
 219              		.cfi_def_cfa_register 13
 220              		@ sp needed
 221 00a2 BDE8B00F 		pop	{r4, r5, r7, r8, r9, r10, fp}
 222              	.LCFI11:
 223              		.cfi_restore 11
 224              		.cfi_restore 10
 225              		.cfi_restore 9
 226              		.cfi_restore 8
 227              		.cfi_restore 7
 228              		.cfi_restore 5
 229              		.cfi_restore 4
 230              		.cfi_def_cfa_offset 0
 231 00a6 7047     		bx	lr
 232              		.cfi_endproc
 233              	.LFE3:
 235              		.section	.text.FPR,"ax",%progbits
 236              		.align	1
 237              		.syntax unified
 238              		.thumb
 239              		.thumb_func
 240              		.fpu softvfp
 242              	FPR:
 243              	.LFB4:
 158:fpr.h         **** 
 159:fpr.h         **** /*
 160:fpr.h         ****  * Expectations:
 161:fpr.h         ****  *   s = 0 or 1
 162:fpr.h         ****  *   exponent e is "arbitrary" and unbiased
 163:fpr.h         ****  *   2^54 <= m < 2^55
 164:fpr.h         ****  * Numerical value is (-1)^2 * m * 2^e
 165:fpr.h         ****  *
 166:fpr.h         ****  * Exponents which are too low lead to value zero. If the exponent is
 167:fpr.h         ****  * too large, the returned value is indeterminate.
 168:fpr.h         ****  *
 169:fpr.h         ****  * If m = 0, then a zero is returned (using the provided sign).
 170:fpr.h         ****  * If e < -1076, then a zero is returned (regardless of the value of m).
 171:fpr.h         ****  * If e >= -1076 and e != 0, m must be within the expected range
 172:fpr.h         ****  * (2^54 to 2^55-1).
 173:fpr.h         ****  */
 174:fpr.h         **** 
 175:fpr.h         **** static inline fpr
 176:fpr.h         **** FPR(int s, int e, uint64_t m)
 177:fpr.h         **** {
 244              		.loc 1 177 1
 245              		.cfi_startproc
 246              		@ args = 0, pretend = 0, frame = 96
 247              		@ frame_needed = 1, uses_anonymous_args = 0
 248              		@ link register save eliminated.
 249 0000 2DE9B00F 		push	{r4, r5, r7, r8, r9, r10, fp}
 250              	.LCFI12:
 251              		.cfi_def_cfa_offset 28
 252              		.cfi_offset 4, -28
 253              		.cfi_offset 5, -24
 254              		.cfi_offset 7, -20
 255              		.cfi_offset 8, -16
 256              		.cfi_offset 9, -12
 257              		.cfi_offset 10, -8
 258              		.cfi_offset 11, -4
 259 0004 99B0     		sub	sp, sp, #100
 260              	.LCFI13:
 261              		.cfi_def_cfa_offset 128
 262 0006 00AF     		add	r7, sp, #0
 263              	.LCFI14:
 264              		.cfi_def_cfa_register 7
 265 0008 7864     		str	r0, [r7, #68]
 266 000a 3964     		str	r1, [r7, #64]
 267 000c C7E90E23 		strd	r2, [r7, #56]
 178:fpr.h         **** 	fpr x;
 179:fpr.h         **** 	uint32_t t;
 180:fpr.h         **** 	unsigned f;
 181:fpr.h         **** 
 182:fpr.h         **** 	/*
 183:fpr.h         **** 	 * If e >= -1076, then the value is "normal"; otherwise, it
 184:fpr.h         **** 	 * should be a subnormal, which we clamp down to zero.
 185:fpr.h         **** 	 */
 186:fpr.h         **** 	e += 1076;
 268              		.loc 1 186 4
 269 0010 3B6C     		ldr	r3, [r7, #64]
 270 0012 03F23443 		addw	r3, r3, #1076
 271 0016 3B64     		str	r3, [r7, #64]
 187:fpr.h         **** 	t = (uint32_t)e >> 31;
 272              		.loc 1 187 6
 273 0018 3B6C     		ldr	r3, [r7, #64]
 274              		.loc 1 187 4
 275 001a DB0F     		lsrs	r3, r3, #31
 276 001c FB65     		str	r3, [r7, #92]
 188:fpr.h         **** 	m &= (uint64_t)t - 1;
 277              		.loc 1 188 7
 278 001e FB6D     		ldr	r3, [r7, #92]
 279 0020 0022     		movs	r2, #0
 280 0022 9846     		mov	r8, r3
 281 0024 9146     		mov	r9, r2
 282              		.loc 1 188 19
 283 0026 18F1FF34 		adds	r4, r8, #-1
 284 002a 49F1FF35 		adc	r5, r9, #-1
 285              		.loc 1 188 4
 286 002e D7E90E23 		ldrd	r2, [r7, #56]
 287 0032 02EA040A 		and	r10, r2, r4
 288 0036 03EA050B 		and	fp, r3, r5
 289 003a C7E90EAB 		strd	r10, [r7, #56]
 189:fpr.h         **** 
 190:fpr.h         **** 	/*
 191:fpr.h         **** 	 * If m = 0 then we want a zero; make e = 0 too, but conserve
 192:fpr.h         **** 	 * the sign.
 193:fpr.h         **** 	 */
 194:fpr.h         **** 	t = (uint32_t)(m >> 54);
 290              		.loc 1 194 19
 291 003e D7E90E23 		ldrd	r2, [r7, #56]
 292 0042 4FF00000 		mov	r0, #0
 293 0046 4FF00001 		mov	r1, #0
 294 004a 980D     		lsrs	r0, r3, #22
 295 004c 0021     		movs	r1, #0
 296              		.loc 1 194 4
 297 004e 0346     		mov	r3, r0
 298 0050 FB65     		str	r3, [r7, #92]
 195:fpr.h         **** 	e &= -(int)t;
 299              		.loc 1 195 8
 300 0052 FB6D     		ldr	r3, [r7, #92]
 301              		.loc 1 195 7
 302 0054 5A42     		rsbs	r2, r3, #0
 303              		.loc 1 195 4
 304 0056 3B6C     		ldr	r3, [r7, #64]
 305 0058 1340     		ands	r3, r3, r2
 306 005a 3B64     		str	r3, [r7, #64]
 196:fpr.h         **** 
 197:fpr.h         **** 	/*
 198:fpr.h         **** 	 * The 52 mantissa bits come from m. Value m has its top bit set
 199:fpr.h         **** 	 * (unless it is a zero); we leave it "as is": the top bit will
 200:fpr.h         **** 	 * increment the exponent by 1, except when m = 0, which is
 201:fpr.h         **** 	 * exactly what we want.
 202:fpr.h         **** 	 */
 203:fpr.h         **** 	x = (((uint64_t)s << 63) | (m >> 2)) + ((uint64_t)(uint32_t)e << 52);
 307              		.loc 1 203 8
 308 005c 7B6C     		ldr	r3, [r7, #68]
 309 005e DA17     		asrs	r2, r3, #31
 310 0060 3B63     		str	r3, [r7, #48]
 311 0062 7A63     		str	r2, [r7, #52]
 312              		.loc 1 203 20
 313 0064 4FF00004 		mov	r4, #0
 314 0068 4FF00005 		mov	r5, #0
 315 006c 3B6B     		ldr	r3, [r7, #48]
 316 006e DD07     		lsls	r5, r3, #31
 317 0070 0024     		movs	r4, #0
 318              		.loc 1 203 32
 319 0072 D7E90E23 		ldrd	r2, [r7, #56]
 320 0076 4FF00000 		mov	r0, #0
 321 007a 4FF00001 		mov	r1, #0
 322 007e 9008     		lsrs	r0, r2, #2
 323 0080 40EA8370 		orr	r0, r0, r3, lsl #30
 324 0084 9908     		lsrs	r1, r3, #2
 325              		.loc 1 203 27
 326 0086 44EA0003 		orr	r3, r4, r0
 327 008a BB62     		str	r3, [r7, #40]
 328 008c 45EA0103 		orr	r3, r5, r1
 329 0090 FB62     		str	r3, [r7, #44]
 330              		.loc 1 203 52
 331 0092 3B6C     		ldr	r3, [r7, #64]
 332              		.loc 1 203 42
 333 0094 0022     		movs	r2, #0
 334 0096 3B62     		str	r3, [r7, #32]
 335 0098 7A62     		str	r2, [r7, #36]
 336              		.loc 1 203 64
 337 009a 4FF00002 		mov	r2, #0
 338 009e 4FF00003 		mov	r3, #0
 339 00a2 396A     		ldr	r1, [r7, #32]
 340 00a4 0B05     		lsls	r3, r1, #20
 341 00a6 0022     		movs	r2, #0
 342              		.loc 1 203 4
 343 00a8 D7E90A45 		ldrd	r4, [r7, #40]
 344 00ac 2146     		mov	r1, r4
 345 00ae 8918     		adds	r1, r1, r2
 346 00b0 B960     		str	r1, [r7, #8]
 347 00b2 2946     		mov	r1, r5
 348 00b4 43EB0101 		adc	r1, r3, r1
 349 00b8 F960     		str	r1, [r7, #12]
 350 00ba D7E90234 		ldrd	r3, [r7, #8]
 351 00be C7E91434 		strd	r3, [r7, #80]
 204:fpr.h         **** 
 205:fpr.h         **** 	/*
 206:fpr.h         **** 	 * Rounding: if the low three bits of m are 011, 110 or 111,
 207:fpr.h         **** 	 * then the value should be incremented to get the next
 208:fpr.h         **** 	 * representable value. This implements the usual
 209:fpr.h         **** 	 * round-to-nearest rule (with preference to even values in case
 210:fpr.h         **** 	 * of a tie). Note that the increment may make a carry spill
 211:fpr.h         **** 	 * into the exponent field, which is again exactly what we want
 212:fpr.h         **** 	 * in that case.
 213:fpr.h         **** 	 */
 214:fpr.h         **** 	f = (unsigned)m & 7U;
 352              		.loc 1 214 6
 353 00c2 BB6B     		ldr	r3, [r7, #56]
 354              		.loc 1 214 4
 355 00c4 03F00703 		and	r3, r3, #7
 356 00c8 FB64     		str	r3, [r7, #76]
 215:fpr.h         **** 	x += (0xC8U >> f) & 1;
 357              		.loc 1 215 14
 358 00ca C822     		movs	r2, #200
 359 00cc FB6C     		ldr	r3, [r7, #76]
 360 00ce 22FA03F3 		lsr	r3, r2, r3
 361              		.loc 1 215 20
 362 00d2 0022     		movs	r2, #0
 363 00d4 BB61     		str	r3, [r7, #24]
 364 00d6 FA61     		str	r2, [r7, #28]
 365 00d8 BB69     		ldr	r3, [r7, #24]
 366 00da 03F00103 		and	r3, r3, #1
 367 00de 3B61     		str	r3, [r7, #16]
 368 00e0 0023     		movs	r3, #0
 369 00e2 7B61     		str	r3, [r7, #20]
 370              		.loc 1 215 4
 371 00e4 D7E91423 		ldrd	r2, [r7, #80]
 372 00e8 D7E90445 		ldrd	r4, [r7, #16]
 373 00ec 2146     		mov	r1, r4
 374 00ee 5118     		adds	r1, r2, r1
 375 00f0 3960     		str	r1, [r7]
 376 00f2 2946     		mov	r1, r5
 377 00f4 43EB0101 		adc	r1, r3, r1
 378 00f8 7960     		str	r1, [r7, #4]
 379 00fa D7E90034 		ldrd	r3, [r7]
 380 00fe C7E91434 		strd	r3, [r7, #80]
 216:fpr.h         **** 	return x;
 381              		.loc 1 216 9
 382 0102 D7E91423 		ldrd	r2, [r7, #80]
 217:fpr.h         **** }
 383              		.loc 1 217 1
 384 0106 1046     		mov	r0, r2
 385 0108 1946     		mov	r1, r3
 386 010a 6437     		adds	r7, r7, #100
 387              	.LCFI15:
 388              		.cfi_def_cfa_offset 28
 389 010c BD46     		mov	sp, r7
 390              	.LCFI16:
 391              		.cfi_def_cfa_register 13
 392              		@ sp needed
 393 010e BDE8B00F 		pop	{r4, r5, r7, r8, r9, r10, fp}
 394              	.LCFI17:
 395              		.cfi_restore 11
 396              		.cfi_restore 10
 397              		.cfi_restore 9
 398              		.cfi_restore 8
 399              		.cfi_restore 7
 400              		.cfi_restore 5
 401              		.cfi_restore 4
 402              		.cfi_def_cfa_offset 0
 403 0112 7047     		bx	lr
 404              		.cfi_endproc
 405              	.LFE4:
 407              		.section	.rodata
 408              		.align	3
 411              	fpr_q:
 412 0000 00000000 		.word	0
 413 0004 8000C840 		.word	1086849152
 414              		.align	3
 417              	fpr_inverse_of_q:
 418 0008 82A79790 		.word	-1869109374
 419 000c E354153F 		.word	1058362595
 420              		.align	3
 423              	fpr_inv_2sqrsigma0:
 424 0010 C2BB83C1 		.word	-1048331326
 425 0014 8B4FC33F 		.word	1069764491
 426              		.align	3
 429              	fpr_inv_sigma:
 430 0018 00000000 		.word	0
 431 001c 00000000 		.word	0
 432 0020 9A16247E 		.word	2116294298
 433 0024 EB487C3F 		.word	1065109739
 434 0028 D9AE8C54 		.word	1418505945
 435 002c 0AE57B3F 		.word	1065084170
 436 0030 2C769EE0 		.word	-526485972
 437 0034 2E857B3F 		.word	1065059630
 438 0038 36DACAD3 		.word	-741680586
 439 003c 5EFC7A3F 		.word	1065024606
 440 0040 EDB37609 		.word	158774253
 441 0044 3B7B7A3F 		.word	1064991547
 442 0048 989CCA82 		.word	-2100650856
 443 004c 12017A3F 		.word	1064960274
 444 0050 36275FCE 		.word	-832624842
 445 0054 498D793F 		.word	1064930633
 446 0058 EED96EC5 		.word	-982590994
 447 005c 571F793F 		.word	1064902487
 448 0060 CAC764DE 		.word	-563820598
 449 0064 C2B6783F 		.word	1064875714
 450 0068 E31A31F6 		.word	-164554013
 451 006c 1E53783F 		.word	1064850206
 452              		.align	3
 455              	fpr_sigma_min:
 456 0070 00000000 		.word	0
 457 0074 00000000 		.word	0
 458 0078 8B564406 		.word	105141899
 459 007c 38DDF13F 		.word	1072815416
 460 0080 2686ADDC 		.word	-592607706
 461 0084 2E1DF23F 		.word	1072831790
 462 0088 7A7CAAE1 		.word	-508920710
 463 008c 465CF23F 		.word	1072847942
 464 0090 25FB4A57 		.word	1464531749
 465 0094 5CB9F23F 		.word	1072871772
 466 0098 B622FEC7 		.word	-939646282
 467 009c AB14F33F 		.word	1072895147
 468 00a0 C3D77534 		.word	880138179
 469 00a4 4E6EF33F 		.word	1072918094
 470 00a8 24C2A166 		.word	1721877028
 471 00ac 5AC6F33F 		.word	1072940634
 472 00b0 A0B38C35 		.word	898413472
 473 00b4 E51CF43F 		.word	1072962789
 474 00b8 757A1FBF 		.word	-1088456075
 475 00bc 0172F43F 		.word	1072984577
 476 00c0 64C79099 		.word	-1718565020
 477 00c4 C1C5F43F 		.word	1073006017
 478              		.align	3
 481              	fpr_log2:
 482 00c8 EF39FAFE 		.word	-17155601
 483 00cc 422EE63F 		.word	1072049730
 484              		.align	3
 487              	fpr_inv_log2:
 488 00d0 FE822B65 		.word	1697350398
 489 00d4 4715F73F 		.word	1073157447
 490              		.align	3
 493              	fpr_bnorm_max:
 494 00d8 ACADD85F 		.word	1608035756
 495 00dc 9A6DD040 		.word	1087401370
 496              		.align	3
 499              	fpr_zero:
 500 00e0 00000000 		.space	8
 500      00000000 
 501              		.align	3
 504              	fpr_one:
 505 00e8 00000000 		.word	0
 506 00ec 0000F03F 		.word	1072693248
 507              		.align	3
 510              	fpr_two:
 511 00f0 00000000 		.word	0
 512 00f4 00000040 		.word	1073741824
 513              		.align	3
 516              	fpr_onehalf:
 517 00f8 00000000 		.word	0
 518 00fc 0000E03F 		.word	1071644672
 519              		.align	3
 522              	fpr_invsqrt2:
 523 0100 CD3B7F66 		.word	1719614413
 524 0104 9EA0E63F 		.word	1072079006
 525              		.align	3
 528              	fpr_invsqrt8:
 529 0108 CD3B7F66 		.word	1719614413
 530 010c 9EA0D63F 		.word	1071030430
 531              		.align	3
 534              	fpr_ptwo31:
 535 0110 00000000 		.word	0
 536 0114 0000E041 		.word	1105199104
 537              		.align	3
 540              	fpr_ptwo31m1:
 541 0118 0000C0FF 		.word	-4194304
 542 011c FFFFDF41 		.word	1105199103
 543              		.align	3
 546              	fpr_mtwo31m1:
 547 0120 0000C0FF 		.word	-4194304
 548 0124 FFFFDFC1 		.word	-1042284545
 549              		.align	3
 552              	fpr_ptwo63m1:
 553 0128 00000000 		.word	0
 554 012c 0000E043 		.word	1138753536
 555              		.align	3
 558              	fpr_mtwo63m1:
 559 0130 00000000 		.word	0
 560 0134 0000E0C3 		.word	-1008730112
 561              		.align	3
 564              	fpr_ptwo63:
 565 0138 00000000 		.word	0
 566 013c 0000E043 		.word	1138753536
 567              		.section	.text.fpr_trunc,"ax",%progbits
 568              		.align	1
 569              		.syntax unified
 570              		.thumb
 571              		.thumb_func
 572              		.fpu softvfp
 574              	fpr_trunc:
 575              	.LFB8:
 218:fpr.h         **** 
 219:fpr.h         **** #define fpr_scaled   Zf(fpr_scaled)
 220:fpr.h         **** fpr fpr_scaled(int64_t i, int sc);
 221:fpr.h         **** 
 222:fpr.h         **** static inline fpr
 223:fpr.h         **** fpr_of(int64_t i)
 224:fpr.h         **** {
 225:fpr.h         **** 	return fpr_scaled(i, 0);
 226:fpr.h         **** }
 227:fpr.h         **** 
 228:fpr.h         **** static const fpr fpr_q = 4667981563525332992;
 229:fpr.h         **** static const fpr fpr_inverse_of_q = 4545632735260551042;
 230:fpr.h         **** static const fpr fpr_inv_2sqrsigma0 = 4594603506513722306;
 231:fpr.h         **** static const fpr fpr_inv_sigma[] = {
 232:fpr.h         **** 	0,  /* unused */
 233:fpr.h         **** 	4574611497772390042,
 234:fpr.h         **** 	4574501679055810265,
 235:fpr.h         **** 	4574396282908341804,
 236:fpr.h         **** 	4574245855758572086,
 237:fpr.h         **** 	4574103865040221165,
 238:fpr.h         **** 	4573969550563515544,
 239:fpr.h         **** 	4573842244705920822,
 240:fpr.h         **** 	4573721358406441454,
 241:fpr.h         **** 	4573606369665796042,
 242:fpr.h         **** 	4573496814039276259
 243:fpr.h         **** };
 244:fpr.h         **** static const fpr fpr_sigma_min[] = {
 245:fpr.h         **** 	0,  /* unused */
 246:fpr.h         **** 	4607707126469777035,
 247:fpr.h         **** 	4607777455861499430,
 248:fpr.h         **** 	4607846828256951418,
 249:fpr.h         **** 	4607949175006100261,
 250:fpr.h         **** 	4608049571757433526,
 251:fpr.h         **** 	4608148125896792003,
 252:fpr.h         **** 	4608244935301382692,
 253:fpr.h         **** 	4608340089478362016,
 254:fpr.h         **** 	4608433670533905013,
 255:fpr.h         **** 	4608525754002622308
 256:fpr.h         **** };
 257:fpr.h         **** static const fpr fpr_log2 = 4604418534313441775;
 258:fpr.h         **** static const fpr fpr_inv_log2 = 4609176140021203710;
 259:fpr.h         **** static const fpr fpr_bnorm_max = 4670353323383631276;
 260:fpr.h         **** static const fpr fpr_zero = 0;
 261:fpr.h         **** static const fpr fpr_one = 4607182418800017408;
 262:fpr.h         **** static const fpr fpr_two = 4611686018427387904;
 263:fpr.h         **** static const fpr fpr_onehalf = 4602678819172646912;
 264:fpr.h         **** static const fpr fpr_invsqrt2 = 4604544271217802189;
 265:fpr.h         **** static const fpr fpr_invsqrt8 = 4600040671590431693;
 266:fpr.h         **** static const fpr fpr_ptwo31 = 4746794007248502784;
 267:fpr.h         **** static const fpr fpr_ptwo31m1 = 4746794007244308480;
 268:fpr.h         **** static const fpr fpr_mtwo31m1 = 13970166044099084288U;
 269:fpr.h         **** static const fpr fpr_ptwo63m1 = 4890909195324358656;
 270:fpr.h         **** static const fpr fpr_mtwo63m1 = 14114281232179134464U;
 271:fpr.h         **** static const fpr fpr_ptwo63 = 4890909195324358656;
 272:fpr.h         **** 
 273:fpr.h         **** static inline int64_t
 274:fpr.h         **** fpr_rint(fpr x)
 275:fpr.h         **** {
 276:fpr.h         **** 	uint64_t m, d;
 277:fpr.h         **** 	int e;
 278:fpr.h         **** 	uint32_t s, dd, f;
 279:fpr.h         **** 
 280:fpr.h         **** 	/*
 281:fpr.h         **** 	 * We assume that the value fits in -(2^63-1)..+(2^63-1). We can
 282:fpr.h         **** 	 * thus extract the mantissa as a 63-bit integer, then right-shift
 283:fpr.h         **** 	 * it as needed.
 284:fpr.h         **** 	 */
 285:fpr.h         **** 	m = ((x << 10) | ((uint64_t)1 << 62)) & (((uint64_t)1 << 63) - 1);
 286:fpr.h         **** 	e = 1085 - ((int)(x >> 52) & 0x7FF);
 287:fpr.h         **** 
 288:fpr.h         **** 	/*
 289:fpr.h         **** 	 * If a shift of more than 63 bits is needed, then simply set m
 290:fpr.h         **** 	 * to zero. This also covers the case of an input operand equal
 291:fpr.h         **** 	 * to zero.
 292:fpr.h         **** 	 */
 293:fpr.h         **** 	m &= -(uint64_t)((uint32_t)(e - 64) >> 31);
 294:fpr.h         **** 	e &= 63;
 295:fpr.h         **** 
 296:fpr.h         **** 	/*
 297:fpr.h         **** 	 * Right-shift m as needed. Shift count is e. Proper rounding
 298:fpr.h         **** 	 * mandates that:
 299:fpr.h         **** 	 *   - If the highest dropped bit is zero, then round low.
 300:fpr.h         **** 	 *   - If the highest dropped bit is one, and at least one of the
 301:fpr.h         **** 	 *     other dropped bits is one, then round up.
 302:fpr.h         **** 	 *   - If the highest dropped bit is one, and all other dropped
 303:fpr.h         **** 	 *     bits are zero, then round up if the lowest kept bit is 1,
 304:fpr.h         **** 	 *     or low otherwise (i.e. ties are broken by "rounding to even").
 305:fpr.h         **** 	 *
 306:fpr.h         **** 	 * We thus first extract a word consisting of all the dropped bit
 307:fpr.h         **** 	 * AND the lowest kept bit; then we shrink it down to three bits,
 308:fpr.h         **** 	 * the lowest being "sticky".
 309:fpr.h         **** 	 */
 310:fpr.h         **** 	d = fpr_ulsh(m, 63 - e);
 311:fpr.h         **** 	dd = (uint32_t)d | ((uint32_t)(d >> 32) & 0x1FFFFFFF);
 312:fpr.h         **** 	f = (uint32_t)(d >> 61) | ((dd | -dd) >> 31);
 313:fpr.h         **** 	m = fpr_ursh(m, e) + (uint64_t)((0xC8U >> f) & 1U);
 314:fpr.h         **** 
 315:fpr.h         **** 	/*
 316:fpr.h         **** 	 * Apply the sign bit.
 317:fpr.h         **** 	 */
 318:fpr.h         **** 	s = (uint32_t)(x >> 63);
 319:fpr.h         **** 	return ((int64_t)m ^ -(int64_t)s) + (int64_t)s;
 320:fpr.h         **** }
 321:fpr.h         **** 
 322:fpr.h         **** static inline int64_t
 323:fpr.h         **** fpr_floor(fpr x)
 324:fpr.h         **** {
 325:fpr.h         **** 	uint64_t t;
 326:fpr.h         **** 	int64_t xi;
 327:fpr.h         **** 	int e, cc;
 328:fpr.h         **** 
 329:fpr.h         **** 	/*
 330:fpr.h         **** 	 * We extract the integer as a _signed_ 64-bit integer with
 331:fpr.h         **** 	 * a scaling factor. Since we assume that the value fits
 332:fpr.h         **** 	 * in the -(2^63-1)..+(2^63-1) range, we can left-shift the
 333:fpr.h         **** 	 * absolute value to make it in the 2^62..2^63-1 range: we
 334:fpr.h         **** 	 * will only need a right-shift afterwards.
 335:fpr.h         **** 	 */
 336:fpr.h         **** 	e = (int)(x >> 52) & 0x7FF;
 337:fpr.h         **** 	t = x >> 63;
 338:fpr.h         **** 	xi = (int64_t)(((x << 10) | ((uint64_t)1 << 62))
 339:fpr.h         **** 		& (((uint64_t)1 << 63) - 1));
 340:fpr.h         **** 	xi = (xi ^ -(int64_t)t) + (int64_t)t;
 341:fpr.h         **** 	cc = 1085 - e;
 342:fpr.h         **** 
 343:fpr.h         **** 	/*
 344:fpr.h         **** 	 * We perform an arithmetic right-shift on the value. This
 345:fpr.h         **** 	 * applies floor() semantics on both positive and negative values
 346:fpr.h         **** 	 * (rounding toward minus infinity).
 347:fpr.h         **** 	 */
 348:fpr.h         **** 	xi = fpr_irsh(xi, cc & 63);
 349:fpr.h         **** 
 350:fpr.h         **** 	/*
 351:fpr.h         **** 	 * If the true shift count was 64 or more, then we should instead
 352:fpr.h         **** 	 * replace xi with 0 (if nonnegative) or -1 (if negative). Edge
 353:fpr.h         **** 	 * case: -0 will be floored to -1, not 0 (whether this is correct
 354:fpr.h         **** 	 * is debatable; in any case, the other functions normalize zero
 355:fpr.h         **** 	 * to +0).
 356:fpr.h         **** 	 *
 357:fpr.h         **** 	 * For an input of zero, the non-shifted xi was incorrect (we used
 358:fpr.h         **** 	 * a top implicit bit of value 1, not 0), but this does not matter
 359:fpr.h         **** 	 * since this operation will clamp it down.
 360:fpr.h         **** 	 */
 361:fpr.h         **** 	xi ^= (xi ^ -(int64_t)t) & -(int64_t)((uint32_t)(63 - cc) >> 31);
 362:fpr.h         **** 	return xi;
 363:fpr.h         **** }
 364:fpr.h         **** 
 365:fpr.h         **** static inline int64_t
 366:fpr.h         **** fpr_trunc(fpr x)
 367:fpr.h         **** {
 576              		.loc 1 367 1
 577              		.cfi_startproc
 578              		@ args = 0, pretend = 0, frame = 72
 579              		@ frame_needed = 1, uses_anonymous_args = 0
 580 0000 2DE9B04F 		push	{r4, r5, r7, r8, r9, r10, fp, lr}
 581              	.LCFI18:
 582              		.cfi_def_cfa_offset 32
 583              		.cfi_offset 4, -32
 584              		.cfi_offset 5, -28
 585              		.cfi_offset 7, -24
 586              		.cfi_offset 8, -20
 587              		.cfi_offset 9, -16
 588              		.cfi_offset 10, -12
 589              		.cfi_offset 11, -8
 590              		.cfi_offset 14, -4
 591 0004 92B0     		sub	sp, sp, #72
 592              	.LCFI19:
 593              		.cfi_def_cfa_offset 104
 594 0006 00AF     		add	r7, sp, #0
 595              	.LCFI20:
 596              		.cfi_def_cfa_register 7
 597 0008 C7E90A01 		strd	r0, [r7, #40]
 368:fpr.h         **** 	uint64_t t, xu;
 369:fpr.h         **** 	int e, cc;
 370:fpr.h         **** 
 371:fpr.h         **** 	/*
 372:fpr.h         **** 	 * Extract the absolute value. Since we assume that the value
 373:fpr.h         **** 	 * fits in the -(2^63-1)..+(2^63-1) range, we can left-shift
 374:fpr.h         **** 	 * the absolute value into the 2^62..2^63-1 range, and then
 375:fpr.h         **** 	 * do a right shift afterwards.
 376:fpr.h         **** 	 */
 377:fpr.h         **** 	e = (int)(x >> 52) & 0x7FF;
 598              		.loc 1 377 14
 599 000c D7E90A23 		ldrd	r2, [r7, #40]
 600 0010 4FF00000 		mov	r0, #0
 601 0014 4FF00001 		mov	r1, #0
 602 0018 180D     		lsrs	r0, r3, #20
 603 001a 0021     		movs	r1, #0
 604              		.loc 1 377 6
 605 001c 0346     		mov	r3, r0
 606              		.loc 1 377 4
 607 001e C3F30A03 		ubfx	r3, r3, #0, #11
 608 0022 7B64     		str	r3, [r7, #68]
 378:fpr.h         **** 	xu = ((x << 10) | ((uint64_t)1 << 62)) & (((uint64_t)1 << 63) - 1);
 609              		.loc 1 378 11
 610 0024 D7E90A23 		ldrd	r2, [r7, #40]
 611 0028 4FF00000 		mov	r0, #0
 612 002c 4FF00001 		mov	r1, #0
 613 0030 9902     		lsls	r1, r3, #10
 614 0032 41EA9251 		orr	r1, r1, r2, lsr #22
 615 0036 9002     		lsls	r0, r2, #10
 616              		.loc 1 378 41
 617 0038 3862     		str	r0, [r7, #32]
 618 003a 21F04043 		bic	r3, r1, #-1073741824
 619 003e 7B62     		str	r3, [r7, #36]
 620 0040 D7E90823 		ldrd	r2, [r7, #32]
 621 0044 1146     		mov	r1, r2
 622 0046 B961     		str	r1, [r7, #24]
 623 0048 43F08043 		orr	r3, r3, #1073741824
 624 004c FB61     		str	r3, [r7, #28]
 625              		.loc 1 378 5
 626 004e D7E90623 		ldrd	r2, [r7, #24]
 627 0052 C7E90C23 		strd	r2, [r7, #48]
 379:fpr.h         **** 	cc = 1085 - e;
 628              		.loc 1 379 5
 629 0056 7B6C     		ldr	r3, [r7, #68]
 630 0058 C3F58763 		rsb	r3, r3, #1080
 631 005c 0533     		adds	r3, r3, #5
 632 005e 3B64     		str	r3, [r7, #64]
 380:fpr.h         **** 	xu = fpr_ursh(xu, cc & 63);
 633              		.loc 1 380 7
 634 0060 D7E90C01 		ldrd	r0, [r7, #48]
 635 0064 3B6C     		ldr	r3, [r7, #64]
 636 0066 03F03F03 		and	r3, r3, #63
 637 006a 1A46     		mov	r2, r3
 638 006c FFF7FEFF 		bl	fpr_ursh
 639 0070 0246     		mov	r2, r0
 640 0072 0B46     		mov	r3, r1
 641              		.loc 1 380 5
 642 0074 C7E90C23 		strd	r2, [r7, #48]
 381:fpr.h         **** 
 382:fpr.h         **** 	/*
 383:fpr.h         **** 	 * If the exponent is too low (cc > 63), then the shift was wrong
 384:fpr.h         **** 	 * and we must clamp the value to 0. This also covers the case
 385:fpr.h         **** 	 * of an input equal to zero.
 386:fpr.h         **** 	 */
 387:fpr.h         **** 	xu &= -(uint64_t)((uint32_t)(cc - 64) >> 31);
 643              		.loc 1 387 34
 644 0078 3B6C     		ldr	r3, [r7, #64]
 645 007a 403B     		subs	r3, r3, #64
 646              		.loc 1 387 40
 647 007c DB0F     		lsrs	r3, r3, #31
 648              		.loc 1 387 9
 649 007e 0022     		movs	r2, #0
 650 0080 3B61     		str	r3, [r7, #16]
 651 0082 7A61     		str	r2, [r7, #20]
 652              		.loc 1 387 8
 653 0084 0023     		movs	r3, #0
 654 0086 D7E90412 		ldrd	r1, [r7, #16]
 655 008a 0846     		mov	r0, r1
 656 008c D0F1000A 		rsbs	r10, r0, #0
 657 0090 63EB020B 		sbc	fp, r3, r2
 658              		.loc 1 387 5
 659 0094 D7E90C23 		ldrd	r2, [r7, #48]
 660 0098 0AEA0201 		and	r1, r10, r2
 661 009c B960     		str	r1, [r7, #8]
 662 009e 0BEA0303 		and	r3, fp, r3
 663 00a2 FB60     		str	r3, [r7, #12]
 664 00a4 D7E90223 		ldrd	r2, [r7, #8]
 665 00a8 C7E90C23 		strd	r2, [r7, #48]
 388:fpr.h         **** 
 389:fpr.h         **** 	/*
 390:fpr.h         **** 	 * Apply back the sign, if the source value is negative.
 391:fpr.h         **** 	 */
 392:fpr.h         **** 	t = x >> 63;
 666              		.loc 1 392 4
 667 00ac D7E90A01 		ldrd	r0, [r7, #40]
 668 00b0 4FF00002 		mov	r2, #0
 669 00b4 4FF00003 		mov	r3, #0
 670 00b8 CA0F     		lsrs	r2, r1, #31
 671 00ba 0023     		movs	r3, #0
 672 00bc C7E90E23 		strd	r2, [r7, #56]
 393:fpr.h         **** 	xu = (xu ^ -t) + t;
 673              		.loc 1 393 13
 674 00c0 D7E90E23 		ldrd	r2, [r7, #56]
 675 00c4 0021     		movs	r1, #0
 676 00c6 D2F10008 		rsbs	r8, r2, #0
 677 00ca 61EB0309 		sbc	r9, r1, r3
 678              		.loc 1 393 11
 679 00ce D7E90C23 		ldrd	r2, [r7, #48]
 680 00d2 88EA0204 		eor	r4, r8, r2
 681 00d6 89EA0305 		eor	r5, r9, r3
 682              		.loc 1 393 17
 683 00da D7E90E23 		ldrd	r2, [r7, #56]
 684 00de A118     		adds	r1, r4, r2
 685 00e0 3960     		str	r1, [r7]
 686 00e2 45EB0303 		adc	r3, r5, r3
 687 00e6 7B60     		str	r3, [r7, #4]
 688              		.loc 1 393 5
 689 00e8 D7E90034 		ldrd	r3, [r7]
 690 00ec C7E90C34 		strd	r3, [r7, #48]
 394:fpr.h         **** 	return *(int64_t *)&xu;
 691              		.loc 1 394 21
 692 00f0 07F13003 		add	r3, r7, #48
 693              		.loc 1 394 9
 694 00f4 D3E90023 		ldrd	r2, [r3]
 395:fpr.h         **** }
 695              		.loc 1 395 1
 696 00f8 1046     		mov	r0, r2
 697 00fa 1946     		mov	r1, r3
 698 00fc 4837     		adds	r7, r7, #72
 699              	.LCFI21:
 700              		.cfi_def_cfa_offset 32
 701 00fe BD46     		mov	sp, r7
 702              	.LCFI22:
 703              		.cfi_def_cfa_register 13
 704              		@ sp needed
 705 0100 BDE8B08F 		pop	{r4, r5, r7, r8, r9, r10, fp, pc}
 706              		.cfi_endproc
 707              	.LFE8:
 709              		.section	.text.falcon_inner_fpr_scaled,"ax",%progbits
 710              		.align	1
 711              		.global	falcon_inner_fpr_scaled
 712              		.syntax unified
 713              		.thumb
 714              		.thumb_func
 715              		.fpu softvfp
 717              	falcon_inner_fpr_scaled:
 718              	.LFB18:
 719              		.file 2 "fpr.c"
   1:fpr.c         **** /*
   2:fpr.c         ****  * Floating-point operations.
   3:fpr.c         ****  *
   4:fpr.c         ****  * This file implements the non-inline functions declared in
   5:fpr.c         ****  * fpr.h, as well as the constants for FFT / iFFT.
   6:fpr.c         ****  *
   7:fpr.c         ****  * ==========================(LICENSE BEGIN)============================
   8:fpr.c         ****  *
   9:fpr.c         ****  * Copyright (c) 2017-2019  Falcon Project
  10:fpr.c         ****  *
  11:fpr.c         ****  * Permission is hereby granted, free of charge, to any person obtaining
  12:fpr.c         ****  * a copy of this software and associated documentation files (the
  13:fpr.c         ****  * "Software"), to deal in the Software without restriction, including
  14:fpr.c         ****  * without limitation the rights to use, copy, modify, merge, publish,
  15:fpr.c         ****  * distribute, sublicense, and/or sell copies of the Software, and to
  16:fpr.c         ****  * permit persons to whom the Software is furnished to do so, subject to
  17:fpr.c         ****  * the following conditions:
  18:fpr.c         ****  *
  19:fpr.c         ****  * The above copyright notice and this permission notice shall be
  20:fpr.c         ****  * included in all copies or substantial portions of the Software.
  21:fpr.c         ****  *
  22:fpr.c         ****  * THE SOFTWARE IS PROVIDED "AS IS", WITHOUT WARRANTY OF ANY KIND,
  23:fpr.c         ****  * EXPRESS OR IMPLIED, INCLUDING BUT NOT LIMITED TO THE WARRANTIES OF
  24:fpr.c         ****  * MERCHANTABILITY, FITNESS FOR A PARTICULAR PURPOSE AND NONINFRINGEMENT.
  25:fpr.c         ****  * IN NO EVENT SHALL THE AUTHORS OR COPYRIGHT HOLDERS BE LIABLE FOR ANY
  26:fpr.c         ****  * CLAIM, DAMAGES OR OTHER LIABILITY, WHETHER IN AN ACTION OF CONTRACT,
  27:fpr.c         ****  * TORT OR OTHERWISE, ARISING FROM, OUT OF OR IN CONNECTION WITH THE
  28:fpr.c         ****  * SOFTWARE OR THE USE OR OTHER DEALINGS IN THE SOFTWARE.
  29:fpr.c         ****  *
  30:fpr.c         ****  * ===========================(LICENSE END)=============================
  31:fpr.c         ****  *
  32:fpr.c         ****  * @author   Thomas Pornin <thomas.pornin@nccgroup.com>
  33:fpr.c         ****  */
  34:fpr.c         **** 
  35:fpr.c         **** #include "inner.h"
  36:fpr.c         **** 
  37:fpr.c         **** /*
  38:fpr.c         ****  * Normalize a provided unsigned integer to the 2^63..2^64-1 range by
  39:fpr.c         ****  * left-shifting it if necessary. The exponent e is adjusted accordingly
  40:fpr.c         ****  * (i.e. if the value was left-shifted by n bits, then n is subtracted
  41:fpr.c         ****  * from e). If source m is 0, then it remains 0, but e is altered.
  42:fpr.c         ****  * Both m and e must be simple variables (no expressions allowed).
  43:fpr.c         ****  */
  44:fpr.c         **** #define FPR_NORM64(m, e)   do { \
  45:fpr.c         **** 		uint32_t nt; \
  46:fpr.c         ****  \
  47:fpr.c         **** 		(e) -= 63; \
  48:fpr.c         ****  \
  49:fpr.c         **** 		nt = (uint32_t)((m) >> 32); \
  50:fpr.c         **** 		nt = (nt | -nt) >> 31; \
  51:fpr.c         **** 		(m) ^= ((m) ^ ((m) << 32)) & ((uint64_t)nt - 1); \
  52:fpr.c         **** 		(e) += (int)(nt << 5); \
  53:fpr.c         ****  \
  54:fpr.c         **** 		nt = (uint32_t)((m) >> 48); \
  55:fpr.c         **** 		nt = (nt | -nt) >> 31; \
  56:fpr.c         **** 		(m) ^= ((m) ^ ((m) << 16)) & ((uint64_t)nt - 1); \
  57:fpr.c         **** 		(e) += (int)(nt << 4); \
  58:fpr.c         ****  \
  59:fpr.c         **** 		nt = (uint32_t)((m) >> 56); \
  60:fpr.c         **** 		nt = (nt | -nt) >> 31; \
  61:fpr.c         **** 		(m) ^= ((m) ^ ((m) <<  8)) & ((uint64_t)nt - 1); \
  62:fpr.c         **** 		(e) += (int)(nt << 3); \
  63:fpr.c         ****  \
  64:fpr.c         **** 		nt = (uint32_t)((m) >> 60); \
  65:fpr.c         **** 		nt = (nt | -nt) >> 31; \
  66:fpr.c         **** 		(m) ^= ((m) ^ ((m) <<  4)) & ((uint64_t)nt - 1); \
  67:fpr.c         **** 		(e) += (int)(nt << 2); \
  68:fpr.c         ****  \
  69:fpr.c         **** 		nt = (uint32_t)((m) >> 62); \
  70:fpr.c         **** 		nt = (nt | -nt) >> 31; \
  71:fpr.c         **** 		(m) ^= ((m) ^ ((m) <<  2)) & ((uint64_t)nt - 1); \
  72:fpr.c         **** 		(e) += (int)(nt << 1); \
  73:fpr.c         ****  \
  74:fpr.c         **** 		nt = (uint32_t)((m) >> 63); \
  75:fpr.c         **** 		(m) ^= ((m) ^ ((m) <<  1)) & ((uint64_t)nt - 1); \
  76:fpr.c         **** 		(e) += (int)(nt); \
  77:fpr.c         **** 	} while (0)
  78:fpr.c         **** 
  79:fpr.c         **** 
  80:fpr.c         **** fpr
  81:fpr.c         **** fpr_scaled(int64_t i, int sc)
  82:fpr.c         **** {
 720              		.loc 2 82 1
 721              		.cfi_startproc
 722              		@ args = 0, pretend = 0, frame = 16
 723              		@ frame_needed = 1, uses_anonymous_args = 0
 724              		@ link register save eliminated.
 725 0000 80B4     		push	{r7}
 726              	.LCFI23:
 727              		.cfi_def_cfa_offset 4
 728              		.cfi_offset 7, -4
 729 0002 85B0     		sub	sp, sp, #20
 730              	.LCFI24:
 731              		.cfi_def_cfa_offset 24
 732 0004 00AF     		add	r7, sp, #0
 733              	.LCFI25:
 734              		.cfi_def_cfa_register 7
 735 0006 C7E90201 		strd	r0, [r7, #8]
 736 000a 7A60     		str	r2, [r7, #4]
  83:fpr.c         **** 	/*
  84:fpr.c         **** 	 * To convert from int to float, we have to do the following:
  85:fpr.c         **** 	 *  1. Get the absolute value of the input, and its sign
  86:fpr.c         **** 	 *  2. Shift right or left the value as appropriate
  87:fpr.c         **** 	 *  3. Pack the result
  88:fpr.c         **** 	 *
  89:fpr.c         **** 	 * We can assume that the source integer is not -2^63.
  90:fpr.c         **** 	 */
  91:fpr.c         **** 	return 0;
 737              		.loc 2 91 9
 738 000c 4FF00002 		mov	r2, #0
 739 0010 4FF00003 		mov	r3, #0
  92:fpr.c         **** 
  93:fpr.c         **** 	int s, e;
  94:fpr.c         **** 	uint32_t t;
  95:fpr.c         **** 	uint64_t m;
  96:fpr.c         **** 
  97:fpr.c         **** 	/*
  98:fpr.c         **** 	 * Extract sign bit.
  99:fpr.c         **** 	 * We have: -i = 1 + ~i
 100:fpr.c         **** 	 */
 101:fpr.c         **** 	s = (int)((uint64_t)i >> 63);
 102:fpr.c         **** 	i ^= -(int64_t)s;
 103:fpr.c         **** 	i += s;
 104:fpr.c         **** 
 105:fpr.c         **** 	/*
 106:fpr.c         **** 	 * For now we suppose that i != 0.
 107:fpr.c         **** 	 * Otherwise, we set m to i and left-shift it as much as needed
 108:fpr.c         **** 	 * to get a 1 in the top bit. We can do that in a logarithmic
 109:fpr.c         **** 	 * number of conditional shifts.
 110:fpr.c         **** 	 */
 111:fpr.c         **** 	m = (uint64_t)i;
 112:fpr.c         **** 	e = 9 + sc;
 113:fpr.c         **** 	FPR_NORM64(m, e);
 114:fpr.c         **** 
 115:fpr.c         **** 	/*
 116:fpr.c         **** 	 * Now m is in the 2^63..2^64-1 range. We must divide it by 512;
 117:fpr.c         **** 	 * if one of the dropped bits is a 1, this should go into the
 118:fpr.c         **** 	 * "sticky bit".
 119:fpr.c         **** 	 */
 120:fpr.c         **** 	m |= ((uint32_t)m & 0x1FF) + 0x1FF;
 121:fpr.c         **** 	m >>= 9;
 122:fpr.c         **** 
 123:fpr.c         **** 	/*
 124:fpr.c         **** 	 * Corrective action: if i = 0 then all of the above was
 125:fpr.c         **** 	 * incorrect, and we clamp e and m down to zero.
 126:fpr.c         **** 	 */
 127:fpr.c         **** 	t = (uint32_t)((uint64_t)(i | -i) >> 63);
 128:fpr.c         **** 	m &= -(uint64_t)t;
 129:fpr.c         **** 	e &= -(int)t;
 130:fpr.c         **** 
 131:fpr.c         **** 	/*
 132:fpr.c         **** 	 * Assemble back everything. The FPR() function will handle cases
 133:fpr.c         **** 	 * where e is too low.
 134:fpr.c         **** 	 */
 135:fpr.c         **** 	return FPR(s, e, m);
 136:fpr.c         **** }
 740              		.loc 2 136 1
 741 0014 1046     		mov	r0, r2
 742 0016 1946     		mov	r1, r3
 743 0018 1437     		adds	r7, r7, #20
 744              	.LCFI26:
 745              		.cfi_def_cfa_offset 4
 746 001a BD46     		mov	sp, r7
 747              	.LCFI27:
 748              		.cfi_def_cfa_register 13
 749              		@ sp needed
 750 001c 80BC     		pop	{r7}
 751              	.LCFI28:
 752              		.cfi_restore 7
 753              		.cfi_def_cfa_offset 0
 754 001e 7047     		bx	lr
 755              		.cfi_endproc
 756              	.LFE18:
 758              		.section	.text.falcon_inner_fpr_add,"ax",%progbits
 759              		.align	1
 760              		.global	falcon_inner_fpr_add
 761              		.syntax unified
 762              		.thumb
 763              		.thumb_func
 764              		.fpu softvfp
 766              	falcon_inner_fpr_add:
 767              	.LFB19:
 137:fpr.c         **** 
 138:fpr.c         **** 
 139:fpr.c         **** 
 140:fpr.c         **** fpr
 141:fpr.c         **** fpr_add(fpr x, fpr y)
 142:fpr.c         **** {
 768              		.loc 2 142 1
 769              		.cfi_startproc
 770              		@ args = 0, pretend = 0, frame = 552
 771              		@ frame_needed = 1, uses_anonymous_args = 0
 772 0000 2DE9B04F 		push	{r4, r5, r7, r8, r9, r10, fp, lr}
 773              	.LCFI29:
 774              		.cfi_def_cfa_offset 32
 775              		.cfi_offset 4, -32
 776              		.cfi_offset 5, -28
 777              		.cfi_offset 7, -24
 778              		.cfi_offset 8, -20
 779              		.cfi_offset 9, -16
 780              		.cfi_offset 10, -12
 781              		.cfi_offset 11, -8
 782              		.cfi_offset 14, -4
 783 0004 ADF50A7D 		sub	sp, sp, #552
 784              	.LCFI30:
 785              		.cfi_def_cfa_offset 584
 786 0008 00AF     		add	r7, sp, #0
 787              	.LCFI31:
 788              		.cfi_def_cfa_register 7
 789 000a C7E97801 		strd	r0, [r7, #480]
 790 000e C7E97623 		strd	r2, [r7, #472]
 143:fpr.c         **** 	uint64_t m, xu, yu, za;
 144:fpr.c         **** 	uint32_t cs;
 145:fpr.c         **** 	int ex, ey, sx, sy, cc;
 146:fpr.c         **** 
 147:fpr.c         **** 	/*
 148:fpr.c         **** 	 * Make sure that the first operand (x) has the larger absolute
 149:fpr.c         **** 	 * value. This guarantees that the exponent of y is less than
 150:fpr.c         **** 	 * or equal to the exponent of x, and, if they are equal, then
 151:fpr.c         **** 	 * the mantissa of y will not be greater than the mantissa of x.
 152:fpr.c         **** 	 *
 153:fpr.c         **** 	 * After this swap, the result will have the sign x, except in
 154:fpr.c         **** 	 * the following edge case: abs(x) = abs(y), and x and y have
 155:fpr.c         **** 	 * opposite sign bits; in that case, the result shall be +0
 156:fpr.c         **** 	 * even if the sign bit of x is 1. To handle this case properly,
 157:fpr.c         **** 	 * we do the swap is abs(x) = abs(y) AND the sign of x is 1.
 158:fpr.c         **** 	 */
 159:fpr.c         **** 	m = ((uint64_t)1 << 63) - 1;
 791              		.loc 2 159 4
 792 0012 4FF0FF32 		mov	r2, #-1
 793 0016 6FF00043 		mvn	r3, #-2147483648
 794 001a C7E98823 		strd	r2, [r7, #544]
 160:fpr.c         **** 	za = (x & m) - (y & m);
 795              		.loc 2 160 10
 796 001e D7E97801 		ldrd	r0, [r7, #480]
 797 0022 D7E98823 		ldrd	r2, [r7, #544]
 798 0026 00EA0208 		and	r8, r0, r2
 799 002a 01EA0309 		and	r9, r1, r3
 800              		.loc 2 160 20
 801 002e D7E97601 		ldrd	r0, [r7, #472]
 802 0032 D7E98823 		ldrd	r2, [r7, #544]
 803 0036 00EA0204 		and	r4, r0, r2
 804 003a 01EA0305 		and	r5, r1, r3
 805              		.loc 2 160 5
 806 003e B8EB040A 		subs	r10, r8, r4
 807 0042 69EB050B 		sbc	fp, r9, r5
 808 0046 C7E986AB 		strd	r10, [r7, #536]
 161:fpr.c         **** 	cs = (uint32_t)(za >> 63)
 809              		.loc 2 161 21
 810 004a D7E98623 		ldrd	r2, [r7, #536]
 811 004e 4FF00000 		mov	r0, #0
 812 0052 4FF00001 		mov	r1, #0
 813 0056 D80F     		lsrs	r0, r3, #31
 814 0058 0021     		movs	r1, #0
 815              		.loc 2 161 7
 816 005a 0546     		mov	r5, r0
 162:fpr.c         **** 		| ((1U - (uint32_t)(-za >> 63)) & (uint32_t)(x >> 63));
 817              		.loc 2 162 23
 818 005c D7E98623 		ldrd	r2, [r7, #536]
 819 0060 0021     		movs	r1, #0
 820 0062 5042     		negs	r0, r2
 821 0064 C7F8D001 		str	r0, [r7, #464]
 822 0068 61EB0303 		sbc	r3, r1, r3
 823 006c C7F8D431 		str	r3, [r7, #468]
 824              		.loc 2 162 27
 825 0070 4FF00002 		mov	r2, #0
 826 0074 4FF00003 		mov	r3, #0
 827 0078 D7F8D411 		ldr	r1, [r7, #468]
 828 007c CA0F     		lsrs	r2, r1, #31
 829 007e 0023     		movs	r3, #0
 830              		.loc 2 162 12
 831 0080 1346     		mov	r3, r2
 832              		.loc 2 162 10
 833 0082 C3F10104 		rsb	r4, r3, #1
 834              		.loc 2 162 50
 835 0086 D7E97823 		ldrd	r2, [r7, #480]
 836 008a 4FF00000 		mov	r0, #0
 837 008e 4FF00001 		mov	r1, #0
 838 0092 D80F     		lsrs	r0, r3, #31
 839 0094 0021     		movs	r1, #0
 840              		.loc 2 162 37
 841 0096 0346     		mov	r3, r0
 842              		.loc 2 162 35
 843 0098 2340     		ands	r3, r3, r4
 161:fpr.c         **** 	cs = (uint32_t)(za >> 63)
 844              		.loc 2 161 5
 845 009a 2B43     		orrs	r3, r3, r5
 846 009c C7F81432 		str	r3, [r7, #532]
 163:fpr.c         **** 	m = (x ^ y) & -(uint64_t)cs;
 847              		.loc 2 163 9
 848 00a0 D7E97801 		ldrd	r0, [r7, #480]
 849 00a4 D7E97623 		ldrd	r2, [r7, #472]
 850 00a8 80EA0204 		eor	r4, r0, r2
 851 00ac C7F8C841 		str	r4, [r7, #456]
 852 00b0 4B40     		eors	r3, r3, r1
 853 00b2 C7F8CC31 		str	r3, [r7, #460]
 854              		.loc 2 163 17
 855 00b6 D7F81432 		ldr	r3, [r7, #532]
 856 00ba 0022     		movs	r2, #0
 857 00bc C7F8C031 		str	r3, [r7, #448]
 858 00c0 C7F8C421 		str	r2, [r7, #452]
 859              		.loc 2 163 16
 860 00c4 0023     		movs	r3, #0
 861 00c6 D7E97001 		ldrd	r0, [r7, #448]
 862 00ca 0246     		mov	r2, r0
 863 00cc 5242     		negs	r2, r2
 864 00ce C7F8B821 		str	r2, [r7, #440]
 865 00d2 0A46     		mov	r2, r1
 866 00d4 63EB0203 		sbc	r3, r3, r2
 867 00d8 C7F8BC31 		str	r3, [r7, #444]
 868              		.loc 2 163 4
 869 00dc D7E97234 		ldrd	r3, [r7, #456]
 870 00e0 1846     		mov	r0, r3
 871 00e2 D7E96E12 		ldrd	r1, [r7, #440]
 872 00e6 0D46     		mov	r5, r1
 873 00e8 2840     		ands	r0, r0, r5
 874 00ea B867     		str	r0, [r7, #120]
 875 00ec 2346     		mov	r3, r4
 876 00ee 1340     		ands	r3, r3, r2
 877 00f0 FB67     		str	r3, [r7, #124]
 878 00f2 D7E91E34 		ldrd	r3, [r7, #120]
 879 00f6 C7E98834 		strd	r3, [r7, #544]
 164:fpr.c         **** 	x ^= m;
 880              		.loc 2 164 4
 881 00fa D7E97801 		ldrd	r0, [r7, #480]
 882 00fe D7E98823 		ldrd	r2, [r7, #544]
 883 0102 80EA0204 		eor	r4, r0, r2
 884 0106 3C67     		str	r4, [r7, #112]
 885 0108 4B40     		eors	r3, r3, r1
 886 010a 7B67     		str	r3, [r7, #116]
 887 010c D7E91C34 		ldrd	r3, [r7, #112]
 888 0110 C7E97834 		strd	r3, [r7, #480]
 165:fpr.c         **** 	y ^= m;
 889              		.loc 2 165 4
 890 0114 D7E97601 		ldrd	r0, [r7, #472]
 891 0118 D7E98823 		ldrd	r2, [r7, #544]
 892 011c 80EA0204 		eor	r4, r0, r2
 893 0120 BC66     		str	r4, [r7, #104]
 894 0122 4B40     		eors	r3, r3, r1
 895 0124 FB66     		str	r3, [r7, #108]
 896 0126 D7E91A34 		ldrd	r3, [r7, #104]
 897 012a C7E97634 		strd	r3, [r7, #472]
 166:fpr.c         **** 
 167:fpr.c         **** 	/*
 168:fpr.c         **** 	 * Extract sign bits, exponents and mantissas. The mantissas are
 169:fpr.c         **** 	 * scaled up to 2^55..2^56-1, and the exponent is unbiased. If
 170:fpr.c         **** 	 * an operand is zero, its mantissa is set to 0 at this step, and
 171:fpr.c         **** 	 * its exponent will be -1078.
 172:fpr.c         **** 	 */
 173:fpr.c         **** 	ex = (int)(x >> 52);
 898              		.loc 2 173 15
 899 012e D7E97823 		ldrd	r2, [r7, #480]
 900 0132 4FF00000 		mov	r0, #0
 901 0136 4FF00001 		mov	r1, #0
 902 013a 180D     		lsrs	r0, r3, #20
 903 013c 0021     		movs	r1, #0
 904              		.loc 2 173 5
 905 013e 0346     		mov	r3, r0
 906 0140 C7F81032 		str	r3, [r7, #528]
 174:fpr.c         **** 	sx = ex >> 11;
 907              		.loc 2 174 5
 908 0144 D7F81032 		ldr	r3, [r7, #528]
 909 0148 DB12     		asrs	r3, r3, #11
 910 014a C7F80C32 		str	r3, [r7, #524]
 175:fpr.c         **** 	ex &= 0x7FF;
 911              		.loc 2 175 5
 912 014e D7F81032 		ldr	r3, [r7, #528]
 913 0152 C3F30A03 		ubfx	r3, r3, #0, #11
 914 0156 C7F81032 		str	r3, [r7, #528]
 176:fpr.c         **** 	m = (uint64_t)(uint32_t)((ex + 0x7FF) >> 11) << 52;
 915              		.loc 2 176 31
 916 015a D7F81032 		ldr	r3, [r7, #528]
 917 015e 03F2FF73 		addw	r3, r3, #2047
 918              		.loc 2 176 40
 919 0162 DB12     		asrs	r3, r3, #11
 920              		.loc 2 176 16
 921 0164 1A46     		mov	r2, r3
 922              		.loc 2 176 6
 923 0166 0023     		movs	r3, #0
 924 0168 C7F8B021 		str	r2, [r7, #432]
 925 016c C7F8B431 		str	r3, [r7, #436]
 926              		.loc 2 176 4
 927 0170 4FF00002 		mov	r2, #0
 928 0174 4FF00003 		mov	r3, #0
 929 0178 D7F8B011 		ldr	r1, [r7, #432]
 930 017c 0B05     		lsls	r3, r1, #20
 931 017e 0022     		movs	r2, #0
 932 0180 C7E98823 		strd	r2, [r7, #544]
 177:fpr.c         **** 	xu = ((x & (((uint64_t)1 << 52) - 1)) | m) << 3;
 933              		.loc 2 177 11
 934 0184 D7E97823 		ldrd	r2, [r7, #480]
 935 0188 C7F8A821 		str	r2, [r7, #424]
 936 018c C3F31303 		ubfx	r3, r3, #0, #20
 937 0190 C7F8AC31 		str	r3, [r7, #428]
 938              		.loc 2 177 40
 939 0194 D7E98823 		ldrd	r2, [r7, #544]
 940 0198 D7E96A01 		ldrd	r0, [r7, #424]
 941 019c 0446     		mov	r4, r0
 942 019e 1443     		orrs	r4, r4, r2
 943 01a0 C7F8A041 		str	r4, [r7, #416]
 944 01a4 1943     		orrs	r1, r1, r3
 945 01a6 C7F8A411 		str	r1, [r7, #420]
 946              		.loc 2 177 5
 947 01aa 4FF00002 		mov	r2, #0
 948 01ae 4FF00003 		mov	r3, #0
 949 01b2 D7E96845 		ldrd	r4, [r7, #416]
 950 01b6 2946     		mov	r1, r5
 951 01b8 CB00     		lsls	r3, r1, #3
 952 01ba 2046     		mov	r0, r4
 953 01bc 2946     		mov	r1, r5
 954 01be 0446     		mov	r4, r0
 955 01c0 43EA5473 		orr	r3, r3, r4, lsr #29
 956 01c4 0146     		mov	r1, r0
 957 01c6 CA00     		lsls	r2, r1, #3
 958 01c8 C7E98023 		strd	r2, [r7, #512]
 178:fpr.c         **** 	ex -= 1078;
 959              		.loc 2 178 5
 960 01cc D7F81032 		ldr	r3, [r7, #528]
 961 01d0 A3F23643 		subw	r3, r3, #1078
 962 01d4 C7F81032 		str	r3, [r7, #528]
 179:fpr.c         **** 	ey = (int)(y >> 52);
 963              		.loc 2 179 15
 964 01d8 D7E97623 		ldrd	r2, [r7, #472]
 965 01dc 4FF00000 		mov	r0, #0
 966 01e0 4FF00001 		mov	r1, #0
 967 01e4 180D     		lsrs	r0, r3, #20
 968 01e6 0021     		movs	r1, #0
 969              		.loc 2 179 5
 970 01e8 0346     		mov	r3, r0
 971 01ea C7F8FC31 		str	r3, [r7, #508]
 180:fpr.c         **** 	sy = ey >> 11;
 972              		.loc 2 180 5
 973 01ee D7F8FC31 		ldr	r3, [r7, #508]
 974 01f2 DB12     		asrs	r3, r3, #11
 975 01f4 C7F8F831 		str	r3, [r7, #504]
 181:fpr.c         **** 	ey &= 0x7FF;
 976              		.loc 2 181 5
 977 01f8 D7F8FC31 		ldr	r3, [r7, #508]
 978 01fc C3F30A03 		ubfx	r3, r3, #0, #11
 979 0200 C7F8FC31 		str	r3, [r7, #508]
 182:fpr.c         **** 	m = (uint64_t)(uint32_t)((ey + 0x7FF) >> 11) << 52;
 980              		.loc 2 182 31
 981 0204 D7F8FC31 		ldr	r3, [r7, #508]
 982 0208 03F2FF73 		addw	r3, r3, #2047
 983              		.loc 2 182 40
 984 020c DB12     		asrs	r3, r3, #11
 985              		.loc 2 182 16
 986 020e 1A46     		mov	r2, r3
 987              		.loc 2 182 6
 988 0210 0023     		movs	r3, #0
 989 0212 C7F89821 		str	r2, [r7, #408]
 990 0216 C7F89C31 		str	r3, [r7, #412]
 991              		.loc 2 182 4
 992 021a 4FF00002 		mov	r2, #0
 993 021e 4FF00003 		mov	r3, #0
 994 0222 D7F89811 		ldr	r1, [r7, #408]
 995 0226 0B05     		lsls	r3, r1, #20
 996 0228 0022     		movs	r2, #0
 997 022a C7E98823 		strd	r2, [r7, #544]
 183:fpr.c         **** 	yu = ((y & (((uint64_t)1 << 52) - 1)) | m) << 3;
 998              		.loc 2 183 11
 999 022e D7E97623 		ldrd	r2, [r7, #472]
 1000 0232 C7F89021 		str	r2, [r7, #400]
 1001 0236 C3F31303 		ubfx	r3, r3, #0, #20
 1002 023a C7F89431 		str	r3, [r7, #404]
 1003              		.loc 2 183 40
 1004 023e D7E98823 		ldrd	r2, [r7, #544]
 1005 0242 D7E96401 		ldrd	r0, [r7, #400]
 1006 0246 0446     		mov	r4, r0
 1007 0248 1443     		orrs	r4, r4, r2
 1008 024a C7F88841 		str	r4, [r7, #392]
 1009 024e 1943     		orrs	r1, r1, r3
 1010 0250 C7F88C11 		str	r1, [r7, #396]
 1011              		.loc 2 183 5
 1012 0254 4FF00002 		mov	r2, #0
 1013 0258 4FF00003 		mov	r3, #0
 1014 025c D7E96245 		ldrd	r4, [r7, #392]
 1015 0260 2946     		mov	r1, r5
 1016 0262 CB00     		lsls	r3, r1, #3
 1017 0264 2046     		mov	r0, r4
 1018 0266 2946     		mov	r1, r5
 1019 0268 0446     		mov	r4, r0
 1020 026a 43EA5473 		orr	r3, r3, r4, lsr #29
 1021 026e 0146     		mov	r1, r0
 1022 0270 CA00     		lsls	r2, r1, #3
 1023 0272 C7E97C23 		strd	r2, [r7, #496]
 184:fpr.c         **** 	ey -= 1078;
 1024              		.loc 2 184 5
 1025 0276 D7F8FC31 		ldr	r3, [r7, #508]
 1026 027a A3F23643 		subw	r3, r3, #1078
 1027 027e C7F8FC31 		str	r3, [r7, #508]
 185:fpr.c         **** 
 186:fpr.c         **** 	/*
 187:fpr.c         **** 	 * x has the larger exponent; hence, we only need to right-shift y.
 188:fpr.c         **** 	 * If the shift count is larger than 59 bits then we clamp the
 189:fpr.c         **** 	 * value to zero.
 190:fpr.c         **** 	 */
 191:fpr.c         **** 	cc = ex - ey;
 1028              		.loc 2 191 5
 1029 0282 D7F81022 		ldr	r2, [r7, #528]
 1030 0286 D7F8FC31 		ldr	r3, [r7, #508]
 1031 028a D31A     		subs	r3, r2, r3
 1032 028c C7F8EC31 		str	r3, [r7, #492]
 192:fpr.c         **** 	yu &= -(uint64_t)((uint32_t)(cc - 60) >> 31);
 1033              		.loc 2 192 34
 1034 0290 D7F8EC31 		ldr	r3, [r7, #492]
 1035 0294 3C3B     		subs	r3, r3, #60
 1036              		.loc 2 192 40
 1037 0296 DB0F     		lsrs	r3, r3, #31
 1038              		.loc 2 192 9
 1039 0298 0022     		movs	r2, #0
 1040 029a C7F88031 		str	r3, [r7, #384]
 1041 029e C7F88421 		str	r2, [r7, #388]
 1042              		.loc 2 192 8
 1043 02a2 0023     		movs	r3, #0
 1044 02a4 D7E96001 		ldrd	r0, [r7, #384]
 1045 02a8 0246     		mov	r2, r0
 1046 02aa 5242     		negs	r2, r2
 1047 02ac C7F87821 		str	r2, [r7, #376]
 1048 02b0 0A46     		mov	r2, r1
 1049 02b2 63EB0203 		sbc	r3, r3, r2
 1050 02b6 C7F87C31 		str	r3, [r7, #380]
 1051              		.loc 2 192 5
 1052 02ba D7E97C23 		ldrd	r2, [r7, #496]
 1053 02be D7E95E01 		ldrd	r0, [r7, #376]
 1054 02c2 0446     		mov	r4, r0
 1055 02c4 1440     		ands	r4, r4, r2
 1056 02c6 3C66     		str	r4, [r7, #96]
 1057 02c8 1940     		ands	r1, r1, r3
 1058 02ca 7966     		str	r1, [r7, #100]
 1059 02cc D7E91834 		ldrd	r3, [r7, #96]
 1060 02d0 C7E97C34 		strd	r3, [r7, #496]
 193:fpr.c         **** 	cc &= 63;
 1061              		.loc 2 193 5
 1062 02d4 D7F8EC31 		ldr	r3, [r7, #492]
 1063 02d8 03F03F03 		and	r3, r3, #63
 1064 02dc C7F8EC31 		str	r3, [r7, #492]
 194:fpr.c         **** 
 195:fpr.c         **** 	/*
 196:fpr.c         **** 	 * The lowest bit of yu is "sticky".
 197:fpr.c         **** 	 */
 198:fpr.c         **** 	m = fpr_ulsh(1, cc) - 1;
 1065              		.loc 2 198 6
 1066 02e0 D7F8EC21 		ldr	r2, [r7, #492]
 1067 02e4 4FF00100 		mov	r0, #1
 1068 02e8 4FF00001 		mov	r1, #0
 1069 02ec FFF7FEFF 		bl	fpr_ulsh
 1070 02f0 0246     		mov	r2, r0
 1071 02f2 0B46     		mov	r3, r1
 1072              		.loc 2 198 4
 1073 02f4 511E     		subs	r1, r2, #1
 1074 02f6 B965     		str	r1, [r7, #88]
 1075 02f8 43F1FF33 		adc	r3, r3, #-1
 1076 02fc FB65     		str	r3, [r7, #92]
 1077 02fe D7E91634 		ldrd	r3, [r7, #88]
 1078 0302 C7E98834 		strd	r3, [r7, #544]
 199:fpr.c         **** 	yu |= (yu & m) + m;
 1079              		.loc 2 199 12
 1080 0306 D7E97C01 		ldrd	r0, [r7, #496]
 1081 030a D7E98823 		ldrd	r2, [r7, #544]
 1082 030e 00EA0204 		and	r4, r0, r2
 1083 0312 C7F87041 		str	r4, [r7, #368]
 1084 0316 0B40     		ands	r3, r3, r1
 1085 0318 C7F87431 		str	r3, [r7, #372]
 1086              		.loc 2 199 17
 1087 031c D7E98823 		ldrd	r2, [r7, #544]
 1088 0320 D7E95C45 		ldrd	r4, [r7, #368]
 1089 0324 2146     		mov	r1, r4
 1090 0326 8918     		adds	r1, r1, r2
 1091 0328 C7F86811 		str	r1, [r7, #360]
 1092 032c 2946     		mov	r1, r5
 1093 032e 43EB0101 		adc	r1, r3, r1
 1094 0332 C7F86C11 		str	r1, [r7, #364]
 1095              		.loc 2 199 5
 1096 0336 D7E97C23 		ldrd	r2, [r7, #496]
 1097 033a D7E95A01 		ldrd	r0, [r7, #360]
 1098 033e 0446     		mov	r4, r0
 1099 0340 1443     		orrs	r4, r4, r2
 1100 0342 3C65     		str	r4, [r7, #80]
 1101 0344 1943     		orrs	r1, r1, r3
 1102 0346 7965     		str	r1, [r7, #84]
 1103 0348 D7E91434 		ldrd	r3, [r7, #80]
 1104 034c C7E97C34 		strd	r3, [r7, #496]
 200:fpr.c         **** 	yu = fpr_ursh(yu, cc);
 1105              		.loc 2 200 7
 1106 0350 D7F8EC21 		ldr	r2, [r7, #492]
 1107 0354 D7E97C01 		ldrd	r0, [r7, #496]
 1108 0358 FFF7FEFF 		bl	fpr_ursh
 1109 035c C7E97C01 		strd	r0, [r7, #496]
 201:fpr.c         **** 
 202:fpr.c         **** 	/*
 203:fpr.c         **** 	 * If the operands have the same sign, then we add the mantissas;
 204:fpr.c         **** 	 * otherwise, we subtract the mantissas.
 205:fpr.c         **** 	 */
 206:fpr.c         **** 	xu += yu - ((yu << 1) & -(uint64_t)(sx ^ sy));
 1110              		.loc 2 206 18
 1111 0360 D7E97C23 		ldrd	r2, [r7, #496]
 1112 0364 9118     		adds	r1, r2, r2
 1113 0366 B964     		str	r1, [r7, #72]
 1114 0368 5B41     		adcs	r3, r3, r3
 1115 036a FB64     		str	r3, [r7, #76]
 1116 036c D7E91201 		ldrd	r0, [r7, #72]
 1117              		.loc 2 206 41
 1118 0370 D7F80C22 		ldr	r2, [r7, #524]
 1119 0374 D7F8F831 		ldr	r3, [r7, #504]
 1120 0378 5340     		eors	r3, r3, r2
 1121              		.loc 2 206 27
 1122 037a DA17     		asrs	r2, r3, #31
 1123 037c C7F86031 		str	r3, [r7, #352]
 1124 0380 C7F86421 		str	r2, [r7, #356]
 1125              		.loc 2 206 26
 1126 0384 0023     		movs	r3, #0
 1127 0386 D7E95845 		ldrd	r4, [r7, #352]
 1128 038a 2246     		mov	r2, r4
 1129 038c 5242     		negs	r2, r2
 1130 038e C7F85821 		str	r2, [r7, #344]
 1131 0392 2A46     		mov	r2, r5
 1132 0394 63EB0203 		sbc	r3, r3, r2
 1133 0398 C7F85C31 		str	r3, [r7, #348]
 1134              		.loc 2 206 24
 1135 039c D7E95634 		ldrd	r3, [r7, #344]
 1136 03a0 1A46     		mov	r2, r3
 1137 03a2 0240     		ands	r2, r2, r0
 1138 03a4 C7F85021 		str	r2, [r7, #336]
 1139 03a8 2346     		mov	r3, r4
 1140 03aa 0B40     		ands	r3, r3, r1
 1141 03ac C7F85431 		str	r3, [r7, #340]
 1142              		.loc 2 206 11
 1143 03b0 D7E97C23 		ldrd	r2, [r7, #496]
 1144 03b4 D7E95401 		ldrd	r0, [r7, #336]
 1145 03b8 0446     		mov	r4, r0
 1146 03ba 141B     		subs	r4, r2, r4
 1147 03bc C7F84841 		str	r4, [r7, #328]
 1148 03c0 63EB0103 		sbc	r3, r3, r1
 1149 03c4 C7F84C31 		str	r3, [r7, #332]
 1150              		.loc 2 206 5
 1151 03c8 D7E98023 		ldrd	r2, [r7, #512]
 1152 03cc D7E95245 		ldrd	r4, [r7, #328]
 1153 03d0 2146     		mov	r1, r4
 1154 03d2 5118     		adds	r1, r2, r1
 1155 03d4 3964     		str	r1, [r7, #64]
 1156 03d6 2946     		mov	r1, r5
 1157 03d8 43EB0101 		adc	r1, r3, r1
 1158 03dc 7964     		str	r1, [r7, #68]
 1159 03de D7E91034 		ldrd	r3, [r7, #64]
 1160 03e2 C7E98034 		strd	r3, [r7, #512]
 1161              	.LBB2:
 207:fpr.c         **** 
 208:fpr.c         **** 	/*
 209:fpr.c         **** 	 * The result may be smaller, or slightly larger. We normalize
 210:fpr.c         **** 	 * it to the 2^63..2^64-1 range (if xu is zero, then it stays
 211:fpr.c         **** 	 * at zero).
 212:fpr.c         **** 	 */
 213:fpr.c         **** 	FPR_NORM64(xu, ex);
 1162              		.loc 2 213 2
 1163 03e6 D7F81032 		ldr	r3, [r7, #528]
 1164 03ea 3F3B     		subs	r3, r3, #63
 1165 03ec C7F81032 		str	r3, [r7, #528]
 1166 03f0 D7E98023 		ldrd	r2, [r7, #512]
 1167 03f4 4FF00000 		mov	r0, #0
 1168 03f8 4FF00001 		mov	r1, #0
 1169 03fc 1800     		movs	r0, r3
 1170 03fe 0021     		movs	r1, #0
 1171 0400 0346     		mov	r3, r0
 1172 0402 C7F8E831 		str	r3, [r7, #488]
 1173 0406 D7F8E831 		ldr	r3, [r7, #488]
 1174 040a 5A42     		rsbs	r2, r3, #0
 1175 040c D7F8E831 		ldr	r3, [r7, #488]
 1176 0410 1343     		orrs	r3, r3, r2
 1177 0412 DB0F     		lsrs	r3, r3, #31
 1178 0414 C7F8E831 		str	r3, [r7, #488]
 1179 0418 D7E98023 		ldrd	r2, [r7, #512]
 1180 041c 4FF00000 		mov	r0, #0
 1181 0420 4FF00001 		mov	r1, #0
 1182 0424 1100     		movs	r1, r2
 1183 0426 0020     		movs	r0, #0
 1184 0428 D7E98023 		ldrd	r2, [r7, #512]
 1185 042c 80EA0204 		eor	r4, r0, r2
 1186 0430 C7F84041 		str	r4, [r7, #320]
 1187 0434 4B40     		eors	r3, r3, r1
 1188 0436 C7F84431 		str	r3, [r7, #324]
 1189 043a D7F8E831 		ldr	r3, [r7, #488]
 1190 043e 0022     		movs	r2, #0
 1191 0440 C7F83831 		str	r3, [r7, #312]
 1192 0444 C7F83C21 		str	r2, [r7, #316]
 1193 0448 D7E94E12 		ldrd	r1, [r7, #312]
 1194 044c 0B46     		mov	r3, r1
 1195 044e 013B     		subs	r3, r3, #1
 1196 0450 C7F83031 		str	r3, [r7, #304]
 1197 0454 1346     		mov	r3, r2
 1198 0456 43F1FF33 		adc	r3, r3, #-1
 1199 045a C7F83431 		str	r3, [r7, #308]
 1200 045e D7E95034 		ldrd	r3, [r7, #320]
 1201 0462 1846     		mov	r0, r3
 1202 0464 D7E94C12 		ldrd	r1, [r7, #304]
 1203 0468 0D46     		mov	r5, r1
 1204 046a 2840     		ands	r0, r0, r5
 1205 046c C7F82801 		str	r0, [r7, #296]
 1206 0470 2346     		mov	r3, r4
 1207 0472 1340     		ands	r3, r3, r2
 1208 0474 C7F82C31 		str	r3, [r7, #300]
 1209 0478 D7E98023 		ldrd	r2, [r7, #512]
 1210 047c D7E94A01 		ldrd	r0, [r7, #296]
 1211 0480 0446     		mov	r4, r0
 1212 0482 5440     		eors	r4, r4, r2
 1213 0484 BC63     		str	r4, [r7, #56]
 1214 0486 5940     		eors	r1, r1, r3
 1215 0488 F963     		str	r1, [r7, #60]
 1216 048a D7E90E34 		ldrd	r3, [r7, #56]
 1217 048e C7E98034 		strd	r3, [r7, #512]
 1218 0492 D7F8E831 		ldr	r3, [r7, #488]
 1219 0496 5B01     		lsls	r3, r3, #5
 1220 0498 1A46     		mov	r2, r3
 1221 049a D7F81032 		ldr	r3, [r7, #528]
 1222 049e 1344     		add	r3, r3, r2
 1223 04a0 C7F81032 		str	r3, [r7, #528]
 1224 04a4 D7E98023 		ldrd	r2, [r7, #512]
 1225 04a8 4FF00000 		mov	r0, #0
 1226 04ac 4FF00001 		mov	r1, #0
 1227 04b0 180C     		lsrs	r0, r3, #16
 1228 04b2 0021     		movs	r1, #0
 1229 04b4 0346     		mov	r3, r0
 1230 04b6 C7F8E831 		str	r3, [r7, #488]
 1231 04ba D7F8E831 		ldr	r3, [r7, #488]
 1232 04be 5A42     		rsbs	r2, r3, #0
 1233 04c0 D7F8E831 		ldr	r3, [r7, #488]
 1234 04c4 1343     		orrs	r3, r3, r2
 1235 04c6 DB0F     		lsrs	r3, r3, #31
 1236 04c8 C7F8E831 		str	r3, [r7, #488]
 1237 04cc D7E98023 		ldrd	r2, [r7, #512]
 1238 04d0 4FF00000 		mov	r0, #0
 1239 04d4 4FF00001 		mov	r1, #0
 1240 04d8 1904     		lsls	r1, r3, #16
 1241 04da 41EA1241 		orr	r1, r1, r2, lsr #16
 1242 04de 1004     		lsls	r0, r2, #16
 1243 04e0 D7E98023 		ldrd	r2, [r7, #512]
 1244 04e4 80EA0204 		eor	r4, r0, r2
 1245 04e8 C7F82041 		str	r4, [r7, #288]
 1246 04ec 4B40     		eors	r3, r3, r1
 1247 04ee C7F82431 		str	r3, [r7, #292]
 1248 04f2 D7F8E831 		ldr	r3, [r7, #488]
 1249 04f6 0022     		movs	r2, #0
 1250 04f8 C7F81831 		str	r3, [r7, #280]
 1251 04fc C7F81C21 		str	r2, [r7, #284]
 1252 0500 D7E94612 		ldrd	r1, [r7, #280]
 1253 0504 0B46     		mov	r3, r1
 1254 0506 013B     		subs	r3, r3, #1
 1255 0508 C7F81031 		str	r3, [r7, #272]
 1256 050c 1346     		mov	r3, r2
 1257 050e 43F1FF33 		adc	r3, r3, #-1
 1258 0512 C7F81431 		str	r3, [r7, #276]
 1259 0516 D7E94834 		ldrd	r3, [r7, #288]
 1260 051a 1846     		mov	r0, r3
 1261 051c D7E94412 		ldrd	r1, [r7, #272]
 1262 0520 0D46     		mov	r5, r1
 1263 0522 2840     		ands	r0, r0, r5
 1264 0524 C7F80801 		str	r0, [r7, #264]
 1265 0528 2346     		mov	r3, r4
 1266 052a 1340     		ands	r3, r3, r2
 1267 052c C7F80C31 		str	r3, [r7, #268]
 1268 0530 D7E98023 		ldrd	r2, [r7, #512]
 1269 0534 D7E94201 		ldrd	r0, [r7, #264]
 1270 0538 0446     		mov	r4, r0
 1271 053a 5440     		eors	r4, r4, r2
 1272 053c 3C63     		str	r4, [r7, #48]
 1273 053e 5940     		eors	r1, r1, r3
 1274 0540 7963     		str	r1, [r7, #52]
 1275 0542 D7E90C34 		ldrd	r3, [r7, #48]
 1276 0546 C7E98034 		strd	r3, [r7, #512]
 1277 054a D7F8E831 		ldr	r3, [r7, #488]
 1278 054e 1B01     		lsls	r3, r3, #4
 1279 0550 1A46     		mov	r2, r3
 1280 0552 D7F81032 		ldr	r3, [r7, #528]
 1281 0556 1344     		add	r3, r3, r2
 1282 0558 C7F81032 		str	r3, [r7, #528]
 1283 055c D7E98023 		ldrd	r2, [r7, #512]
 1284 0560 4FF00000 		mov	r0, #0
 1285 0564 4FF00001 		mov	r1, #0
 1286 0568 180E     		lsrs	r0, r3, #24
 1287 056a 0021     		movs	r1, #0
 1288 056c 0346     		mov	r3, r0
 1289 056e C7F8E831 		str	r3, [r7, #488]
 1290 0572 D7F8E831 		ldr	r3, [r7, #488]
 1291 0576 5A42     		rsbs	r2, r3, #0
 1292 0578 D7F8E831 		ldr	r3, [r7, #488]
 1293 057c 1343     		orrs	r3, r3, r2
 1294 057e DB0F     		lsrs	r3, r3, #31
 1295 0580 C7F8E831 		str	r3, [r7, #488]
 1296 0584 D7E98023 		ldrd	r2, [r7, #512]
 1297 0588 4FF00000 		mov	r0, #0
 1298 058c 4FF00001 		mov	r1, #0
 1299 0590 1902     		lsls	r1, r3, #8
 1300 0592 41EA1261 		orr	r1, r1, r2, lsr #24
 1301 0596 1002     		lsls	r0, r2, #8
 1302 0598 D7E98023 		ldrd	r2, [r7, #512]
 1303 059c 80EA0204 		eor	r4, r0, r2
 1304 05a0 C7F80041 		str	r4, [r7, #256]
 1305 05a4 4B40     		eors	r3, r3, r1
 1306 05a6 C7F80431 		str	r3, [r7, #260]
 1307 05aa D7F8E831 		ldr	r3, [r7, #488]
 1308 05ae 0022     		movs	r2, #0
 1309 05b0 C7F8F830 		str	r3, [r7, #248]
 1310 05b4 C7F8FC20 		str	r2, [r7, #252]
 1311 05b8 D7E93E12 		ldrd	r1, [r7, #248]
 1312 05bc 0B46     		mov	r3, r1
 1313 05be 013B     		subs	r3, r3, #1
 1314 05c0 C7F8F030 		str	r3, [r7, #240]
 1315 05c4 1346     		mov	r3, r2
 1316 05c6 43F1FF33 		adc	r3, r3, #-1
 1317 05ca C7F8F430 		str	r3, [r7, #244]
 1318 05ce D7E94034 		ldrd	r3, [r7, #256]
 1319 05d2 1846     		mov	r0, r3
 1320 05d4 D7E93C12 		ldrd	r1, [r7, #240]
 1321 05d8 0D46     		mov	r5, r1
 1322 05da 2840     		ands	r0, r0, r5
 1323 05dc C7F8E800 		str	r0, [r7, #232]
 1324 05e0 2346     		mov	r3, r4
 1325 05e2 1340     		ands	r3, r3, r2
 1326 05e4 C7F8EC30 		str	r3, [r7, #236]
 1327 05e8 D7E98023 		ldrd	r2, [r7, #512]
 1328 05ec D7E93A01 		ldrd	r0, [r7, #232]
 1329 05f0 0446     		mov	r4, r0
 1330 05f2 5440     		eors	r4, r4, r2
 1331 05f4 BC62     		str	r4, [r7, #40]
 1332 05f6 5940     		eors	r1, r1, r3
 1333 05f8 F962     		str	r1, [r7, #44]
 1334 05fa D7E90A34 		ldrd	r3, [r7, #40]
 1335 05fe C7E98034 		strd	r3, [r7, #512]
 1336 0602 D7F8E831 		ldr	r3, [r7, #488]
 1337 0606 DB00     		lsls	r3, r3, #3
 1338 0608 1A46     		mov	r2, r3
 1339 060a D7F81032 		ldr	r3, [r7, #528]
 1340 060e 1344     		add	r3, r3, r2
 1341 0610 C7F81032 		str	r3, [r7, #528]
 1342 0614 D7E98023 		ldrd	r2, [r7, #512]
 1343 0618 4FF00000 		mov	r0, #0
 1344 061c 4FF00001 		mov	r1, #0
 1345 0620 180F     		lsrs	r0, r3, #28
 1346 0622 0021     		movs	r1, #0
 1347 0624 0346     		mov	r3, r0
 1348 0626 C7F8E831 		str	r3, [r7, #488]
 1349 062a D7F8E831 		ldr	r3, [r7, #488]
 1350 062e 5A42     		rsbs	r2, r3, #0
 1351 0630 D7F8E831 		ldr	r3, [r7, #488]
 1352 0634 1343     		orrs	r3, r3, r2
 1353 0636 DB0F     		lsrs	r3, r3, #31
 1354 0638 C7F8E831 		str	r3, [r7, #488]
 1355 063c D7E98023 		ldrd	r2, [r7, #512]
 1356 0640 4FF00000 		mov	r0, #0
 1357 0644 4FF00001 		mov	r1, #0
 1358 0648 1901     		lsls	r1, r3, #4
 1359 064a 41EA1271 		orr	r1, r1, r2, lsr #28
 1360 064e 1001     		lsls	r0, r2, #4
 1361 0650 D7E98023 		ldrd	r2, [r7, #512]
 1362 0654 80EA0204 		eor	r4, r0, r2
 1363 0658 C7F8E040 		str	r4, [r7, #224]
 1364 065c 4B40     		eors	r3, r3, r1
 1365 065e C7F8E430 		str	r3, [r7, #228]
 1366 0662 D7F8E831 		ldr	r3, [r7, #488]
 1367 0666 0022     		movs	r2, #0
 1368 0668 C7F8D830 		str	r3, [r7, #216]
 1369 066c C7F8DC20 		str	r2, [r7, #220]
 1370 0670 D7E93612 		ldrd	r1, [r7, #216]
 1371 0674 0B46     		mov	r3, r1
 1372 0676 013B     		subs	r3, r3, #1
 1373 0678 C7F8D030 		str	r3, [r7, #208]
 1374 067c 1346     		mov	r3, r2
 1375 067e 43F1FF33 		adc	r3, r3, #-1
 1376 0682 C7F8D430 		str	r3, [r7, #212]
 1377 0686 D7E93834 		ldrd	r3, [r7, #224]
 1378 068a 1846     		mov	r0, r3
 1379 068c D7E93412 		ldrd	r1, [r7, #208]
 1380 0690 0D46     		mov	r5, r1
 1381 0692 2840     		ands	r0, r0, r5
 1382 0694 C7F8C800 		str	r0, [r7, #200]
 1383 0698 2346     		mov	r3, r4
 1384 069a 1340     		ands	r3, r3, r2
 1385 069c C7F8CC30 		str	r3, [r7, #204]
 1386 06a0 D7E98023 		ldrd	r2, [r7, #512]
 1387 06a4 D7E93201 		ldrd	r0, [r7, #200]
 1388 06a8 0446     		mov	r4, r0
 1389 06aa 5440     		eors	r4, r4, r2
 1390 06ac 3C62     		str	r4, [r7, #32]
 1391 06ae 5940     		eors	r1, r1, r3
 1392 06b0 7962     		str	r1, [r7, #36]
 1393 06b2 D7E90834 		ldrd	r3, [r7, #32]
 1394 06b6 C7E98034 		strd	r3, [r7, #512]
 1395 06ba D7F8E831 		ldr	r3, [r7, #488]
 1396 06be 9B00     		lsls	r3, r3, #2
 1397 06c0 1A46     		mov	r2, r3
 1398 06c2 D7F81032 		ldr	r3, [r7, #528]
 1399 06c6 1344     		add	r3, r3, r2
 1400 06c8 C7F81032 		str	r3, [r7, #528]
 1401 06cc D7E98023 		ldrd	r2, [r7, #512]
 1402 06d0 4FF00000 		mov	r0, #0
 1403 06d4 4FF00001 		mov	r1, #0
 1404 06d8 980F     		lsrs	r0, r3, #30
 1405 06da 0021     		movs	r1, #0
 1406 06dc 0346     		mov	r3, r0
 1407 06de C7F8E831 		str	r3, [r7, #488]
 1408 06e2 D7F8E831 		ldr	r3, [r7, #488]
 1409 06e6 5A42     		rsbs	r2, r3, #0
 1410 06e8 D7F8E831 		ldr	r3, [r7, #488]
 1411 06ec 1343     		orrs	r3, r3, r2
 1412 06ee DB0F     		lsrs	r3, r3, #31
 1413 06f0 C7F8E831 		str	r3, [r7, #488]
 1414 06f4 D7E98023 		ldrd	r2, [r7, #512]
 1415 06f8 4FF00000 		mov	r0, #0
 1416 06fc 4FF00001 		mov	r1, #0
 1417 0700 9900     		lsls	r1, r3, #2
 1418 0702 41EA9271 		orr	r1, r1, r2, lsr #30
 1419 0706 9000     		lsls	r0, r2, #2
 1420 0708 D7E98023 		ldrd	r2, [r7, #512]
 1421 070c 80EA0204 		eor	r4, r0, r2
 1422 0710 C7F8C040 		str	r4, [r7, #192]
 1423 0714 4B40     		eors	r3, r3, r1
 1424 0716 C7F8C430 		str	r3, [r7, #196]
 1425 071a D7F8E831 		ldr	r3, [r7, #488]
 1426 071e 0022     		movs	r2, #0
 1427 0720 C7F8B830 		str	r3, [r7, #184]
 1428 0724 C7F8BC20 		str	r2, [r7, #188]
 1429 0728 D7E92E12 		ldrd	r1, [r7, #184]
 1430 072c 0B46     		mov	r3, r1
 1431 072e 013B     		subs	r3, r3, #1
 1432 0730 C7F8B030 		str	r3, [r7, #176]
 1433 0734 1346     		mov	r3, r2
 1434 0736 43F1FF33 		adc	r3, r3, #-1
 1435 073a C7F8B430 		str	r3, [r7, #180]
 1436 073e D7E93034 		ldrd	r3, [r7, #192]
 1437 0742 1846     		mov	r0, r3
 1438 0744 D7E92C12 		ldrd	r1, [r7, #176]
 1439 0748 0D46     		mov	r5, r1
 1440 074a 2840     		ands	r0, r0, r5
 1441 074c C7F8A800 		str	r0, [r7, #168]
 1442 0750 2346     		mov	r3, r4
 1443 0752 1340     		ands	r3, r3, r2
 1444 0754 C7F8AC30 		str	r3, [r7, #172]
 1445 0758 D7E98023 		ldrd	r2, [r7, #512]
 1446 075c D7E92A01 		ldrd	r0, [r7, #168]
 1447 0760 0446     		mov	r4, r0
 1448 0762 5440     		eors	r4, r4, r2
 1449 0764 BC61     		str	r4, [r7, #24]
 1450 0766 5940     		eors	r1, r1, r3
 1451 0768 F961     		str	r1, [r7, #28]
 1452 076a D7E90634 		ldrd	r3, [r7, #24]
 1453 076e C7E98034 		strd	r3, [r7, #512]
 1454 0772 D7F8E831 		ldr	r3, [r7, #488]
 1455 0776 5B00     		lsls	r3, r3, #1
 1456 0778 1A46     		mov	r2, r3
 1457 077a D7F81032 		ldr	r3, [r7, #528]
 1458 077e 1344     		add	r3, r3, r2
 1459 0780 C7F81032 		str	r3, [r7, #528]
 1460 0784 D7E98023 		ldrd	r2, [r7, #512]
 1461 0788 4FF00000 		mov	r0, #0
 1462 078c 4FF00001 		mov	r1, #0
 1463 0790 D80F     		lsrs	r0, r3, #31
 1464 0792 0021     		movs	r1, #0
 1465 0794 0346     		mov	r3, r0
 1466 0796 C7F8E831 		str	r3, [r7, #488]
 1467 079a D7E98023 		ldrd	r2, [r7, #512]
 1468 079e 9118     		adds	r1, r2, r2
 1469 07a0 3961     		str	r1, [r7, #16]
 1470 07a2 5B41     		adcs	r3, r3, r3
 1471 07a4 7B61     		str	r3, [r7, #20]
 1472 07a6 D7E90401 		ldrd	r0, [r7, #16]
 1473 07aa D7E98023 		ldrd	r2, [r7, #512]
 1474 07ae 80EA0204 		eor	r4, r0, r2
 1475 07b2 C7F8A040 		str	r4, [r7, #160]
 1476 07b6 4B40     		eors	r3, r3, r1
 1477 07b8 C7F8A430 		str	r3, [r7, #164]
 1478 07bc D7F8E831 		ldr	r3, [r7, #488]
 1479 07c0 0022     		movs	r2, #0
 1480 07c2 C7F89830 		str	r3, [r7, #152]
 1481 07c6 C7F89C20 		str	r2, [r7, #156]
 1482 07ca D7E92612 		ldrd	r1, [r7, #152]
 1483 07ce 0B46     		mov	r3, r1
 1484 07d0 013B     		subs	r3, r3, #1
 1485 07d2 C7F89030 		str	r3, [r7, #144]
 1486 07d6 1346     		mov	r3, r2
 1487 07d8 43F1FF33 		adc	r3, r3, #-1
 1488 07dc C7F89430 		str	r3, [r7, #148]
 1489 07e0 D7E92834 		ldrd	r3, [r7, #160]
 1490 07e4 1846     		mov	r0, r3
 1491 07e6 D7E92412 		ldrd	r1, [r7, #144]
 1492 07ea 0D46     		mov	r5, r1
 1493 07ec 2840     		ands	r0, r0, r5
 1494 07ee C7F88800 		str	r0, [r7, #136]
 1495 07f2 2346     		mov	r3, r4
 1496 07f4 1340     		ands	r3, r3, r2
 1497 07f6 C7F88C30 		str	r3, [r7, #140]
 1498 07fa D7E98023 		ldrd	r2, [r7, #512]
 1499 07fe D7E92201 		ldrd	r0, [r7, #136]
 1500 0802 0446     		mov	r4, r0
 1501 0804 5440     		eors	r4, r4, r2
 1502 0806 BC60     		str	r4, [r7, #8]
 1503 0808 5940     		eors	r1, r1, r3
 1504 080a F960     		str	r1, [r7, #12]
 1505 080c D7E90234 		ldrd	r3, [r7, #8]
 1506 0810 C7E98034 		strd	r3, [r7, #512]
 1507 0814 D7F8E831 		ldr	r3, [r7, #488]
 1508 0818 D7F81022 		ldr	r2, [r7, #528]
 1509 081c 1344     		add	r3, r3, r2
 1510 081e C7F81032 		str	r3, [r7, #528]
 1511              	.LBE2:
 214:fpr.c         **** 
 215:fpr.c         **** 	/*
 216:fpr.c         **** 	 * Scale down the value to 2^54..s^55-1, handling the last bit
 217:fpr.c         **** 	 * as sticky.
 218:fpr.c         **** 	 */
 219:fpr.c         **** 	xu |= ((uint32_t)xu & 0x1FF) + 0x1FF;
 1512              		.loc 2 219 9
 1513 0822 D7F80032 		ldr	r3, [r7, #512]
 1514              		.loc 2 219 22
 1515 0826 C3F30803 		ubfx	r3, r3, #0, #9
 1516              		.loc 2 219 31
 1517 082a 03F2FF13 		addw	r3, r3, #511
 1518 082e 0022     		movs	r2, #0
 1519 0830 C7F88030 		str	r3, [r7, #128]
 1520 0834 C7F88420 		str	r2, [r7, #132]
 1521              		.loc 2 219 5
 1522 0838 D7E98023 		ldrd	r2, [r7, #512]
 1523 083c D7E92001 		ldrd	r0, [r7, #128]
 1524 0840 0446     		mov	r4, r0
 1525 0842 1443     		orrs	r4, r4, r2
 1526 0844 3C60     		str	r4, [r7]
 1527 0846 1943     		orrs	r1, r1, r3
 1528 0848 7960     		str	r1, [r7, #4]
 1529 084a D7E90034 		ldrd	r3, [r7]
 1530 084e C7E98034 		strd	r3, [r7, #512]
 220:fpr.c         **** 	xu >>= 9;
 1531              		.loc 2 220 5
 1532 0852 D7E98001 		ldrd	r0, [r7, #512]
 1533 0856 4FF00002 		mov	r2, #0
 1534 085a 4FF00003 		mov	r3, #0
 1535 085e 420A     		lsrs	r2, r0, #9
 1536 0860 42EAC152 		orr	r2, r2, r1, lsl #23
 1537 0864 4B0A     		lsrs	r3, r1, #9
 1538 0866 C7E98023 		strd	r2, [r7, #512]
 221:fpr.c         **** 	ex += 9;
 1539              		.loc 2 221 5
 1540 086a D7F81032 		ldr	r3, [r7, #528]
 1541 086e 0933     		adds	r3, r3, #9
 1542 0870 C7F81032 		str	r3, [r7, #528]
 222:fpr.c         **** 
 223:fpr.c         **** 	/*
 224:fpr.c         **** 	 * In general, the result has the sign of x. However, if the
 225:fpr.c         **** 	 * result is exactly zero, then the following situations may
 226:fpr.c         **** 	 * be encountered:
 227:fpr.c         **** 	 *   x > 0, y = -x   -> result should be +0
 228:fpr.c         **** 	 *   x < 0, y = -x   -> result should be +0
 229:fpr.c         **** 	 *   x = +0, y = +0  -> result should be +0
 230:fpr.c         **** 	 *   x = -0, y = +0  -> result should be +0
 231:fpr.c         **** 	 *   x = +0, y = -0  -> result should be +0
 232:fpr.c         **** 	 *   x = -0, y = -0  -> result should be -0
 233:fpr.c         **** 	 *
 234:fpr.c         **** 	 * But at the conditional swap step at the start of the
 235:fpr.c         **** 	 * function, we ensured that if abs(x) = abs(y) and the
 236:fpr.c         **** 	 * sign of x was 1, then x and y were swapped. Thus, the
 237:fpr.c         **** 	 * two following cases cannot actually happen:
 238:fpr.c         **** 	 *   x < 0, y = -x
 239:fpr.c         **** 	 *   x = -0, y = +0
 240:fpr.c         **** 	 * In all other cases, the sign bit of x is conserved, which
 241:fpr.c         **** 	 * is what the FPR() function does. The FPR() function also
 242:fpr.c         **** 	 * properly clamps values to zero when the exponent is too
 243:fpr.c         **** 	 * low, but does not alter the sign in that case.
 244:fpr.c         **** 	 */
 245:fpr.c         **** 	return FPR(sx, ex, xu);
 1543              		.loc 2 245 9
 1544 0874 D7E98023 		ldrd	r2, [r7, #512]
 1545 0878 D7F81012 		ldr	r1, [r7, #528]
 1546 087c D7F80C02 		ldr	r0, [r7, #524]
 1547 0880 FFF7FEFF 		bl	FPR
 1548 0884 0246     		mov	r2, r0
 1549 0886 0B46     		mov	r3, r1
 246:fpr.c         **** }
 1550              		.loc 2 246 1
 1551 0888 1046     		mov	r0, r2
 1552 088a 1946     		mov	r1, r3
 1553 088c 07F50A77 		add	r7, r7, #552
 1554              	.LCFI32:
 1555              		.cfi_def_cfa_offset 32
 1556 0890 BD46     		mov	sp, r7
 1557              	.LCFI33:
 1558              		.cfi_def_cfa_register 13
 1559              		@ sp needed
 1560 0892 BDE8B08F 		pop	{r4, r5, r7, r8, r9, r10, fp, pc}
 1561              		.cfi_endproc
 1562              	.LFE19:
 1564              		.section	.text.falcon_inner_fpr_mul,"ax",%progbits
 1565              		.align	1
 1566              		.global	falcon_inner_fpr_mul
 1567              		.syntax unified
 1568              		.thumb
 1569              		.thumb_func
 1570              		.fpu softvfp
 1572              	falcon_inner_fpr_mul:
 1573              	.LFB20:
 247:fpr.c         **** 
 248:fpr.c         **** 
 249:fpr.c         **** 
 250:fpr.c         **** fpr
 251:fpr.c         **** fpr_mul(fpr x, fpr y)
 252:fpr.c         **** {
 1574              		.loc 2 252 1
 1575              		.cfi_startproc
 1576              		@ args = 0, pretend = 0, frame = 272
 1577              		@ frame_needed = 1, uses_anonymous_args = 0
 1578              		@ link register save eliminated.
 1579 0000 2DE9B00F 		push	{r4, r5, r7, r8, r9, r10, fp}
 1580              	.LCFI34:
 1581              		.cfi_def_cfa_offset 28
 1582              		.cfi_offset 4, -28
 1583              		.cfi_offset 5, -24
 1584              		.cfi_offset 7, -20
 1585              		.cfi_offset 8, -16
 1586              		.cfi_offset 9, -12
 1587              		.cfi_offset 10, -8
 1588              		.cfi_offset 11, -4
 1589 0004 C5B0     		sub	sp, sp, #276
 1590              	.LCFI35:
 1591              		.cfi_def_cfa_offset 304
 1592 0006 00AF     		add	r7, sp, #0
 1593              	.LCFI36:
 1594              		.cfi_def_cfa_register 7
 1595 0008 C7E93001 		strd	r0, [r7, #192]
 1596 000c C7E92E23 		strd	r2, [r7, #184]
 253:fpr.c         **** 	uint64_t xu, yu, w, zu, zv;
 254:fpr.c         **** 	uint32_t x0, x1, y0, y1, z0, z1, z2;
 255:fpr.c         **** 	int ex, ey, d, e, s;
 256:fpr.c         **** 
 257:fpr.c         **** 	/*
 258:fpr.c         **** 	 * Extract absolute values as scaled unsigned integers. We
 259:fpr.c         **** 	 * don't extract exponents yet.
 260:fpr.c         **** 	 */
 261:fpr.c         **** 	xu = (x & (((uint64_t)1 << 52) - 1)) | ((uint64_t)1 << 52); //1.xx    1
 1597              		.loc 2 261 10
 1598 0010 D7E93023 		ldrd	r2, [r7, #192]
 1599 0014 1446     		mov	r4, r2
 1600 0016 C3F31305 		ubfx	r5, r3, #0, #20
 1601              		.loc 2 261 5
 1602 001a A246     		mov	r10, r4
 1603 001c 45F4801B 		orr	fp, r5, #1048576
 1604 0020 C7E942AB 		strd	r10, [r7, #264]
 262:fpr.c         **** 	yu = (y & (((uint64_t)1 << 52) - 1)) | ((uint64_t)1 << 52);
 1605              		.loc 2 262 10
 1606 0024 D7E92E23 		ldrd	r2, [r7, #184]
 1607 0028 9046     		mov	r8, r2
 1608 002a C3F31309 		ubfx	r9, r3, #0, #20
 1609              		.loc 2 262 5
 1610 002e C7F82080 		str	r8, [r7, #32]
 1611 0032 49F48013 		orr	r3, r9, #1048576
 1612 0036 7B62     		str	r3, [r7, #36]
 1613 0038 D7E90834 		ldrd	r3, [r7, #32]
 1614 003c C7E94034 		strd	r3, [r7, #256]
 263:fpr.c         **** 
 264:fpr.c         **** 	/*
 265:fpr.c         **** 	 * We have two 53-bit integers to multiply; we need to split
 266:fpr.c         **** 	 * each into a lower half and a upper half. Moreover, we
 267:fpr.c         **** 	 * prefer to have lower halves to be of 25 bits each, for
 268:fpr.c         **** 	 * reasons explained later on.
 269:fpr.c         **** 	 */
 270:fpr.c         **** //    trigger_high();
 271:fpr.c         **** 	x0 = (uint32_t)xu & 0x01FFFFFF;
 1615              		.loc 2 271 7
 1616 0040 D7F80831 		ldr	r3, [r7, #264]
 1617              		.loc 2 271 5
 1618 0044 23F07E43 		bic	r3, r3, #-33554432
 1619 0048 C7F8FC30 		str	r3, [r7, #252]
 272:fpr.c         **** 	x1 = (uint32_t)(xu >> 25);
 1620              		.loc 2 272 21
 1621 004c D7E94223 		ldrd	r2, [r7, #264]
 1622 0050 4FF00000 		mov	r0, #0
 1623 0054 4FF00001 		mov	r1, #0
 1624 0058 500E     		lsrs	r0, r2, #25
 1625 005a 40EAC310 		orr	r0, r0, r3, lsl #7
 1626 005e 590E     		lsrs	r1, r3, #25
 1627              		.loc 2 272 5
 1628 0060 0346     		mov	r3, r0
 1629 0062 C7F8F830 		str	r3, [r7, #248]
 273:fpr.c         **** 	y0 = (uint32_t)yu & 0x01FFFFFF;
 1630              		.loc 2 273 7
 1631 0066 D7F80031 		ldr	r3, [r7, #256]
 1632              		.loc 2 273 5
 1633 006a 23F07E43 		bic	r3, r3, #-33554432
 1634 006e C7F8F430 		str	r3, [r7, #244]
 274:fpr.c         **** 	y1 = (uint32_t)(yu >> 25);
 1635              		.loc 2 274 21
 1636 0072 D7E94023 		ldrd	r2, [r7, #256]
 1637 0076 4FF00000 		mov	r0, #0
 1638 007a 4FF00001 		mov	r1, #0
 1639 007e 500E     		lsrs	r0, r2, #25
 1640 0080 40EAC310 		orr	r0, r0, r3, lsl #7
 1641 0084 590E     		lsrs	r1, r3, #25
 1642              		.loc 2 274 5
 1643 0086 0346     		mov	r3, r0
 1644 0088 C7F8F030 		str	r3, [r7, #240]
 275:fpr.c         **** 	w = (uint64_t)x0 * (uint64_t)y0;
 1645              		.loc 2 275 6
 1646 008c D7F8FC30 		ldr	r3, [r7, #252]
 1647 0090 0022     		movs	r2, #0
 1648 0092 C7F89030 		str	r3, [r7, #144]
 1649 0096 C7F89420 		str	r2, [r7, #148]
 1650              		.loc 2 275 21
 1651 009a D7F8F430 		ldr	r3, [r7, #244]
 1652 009e 0022     		movs	r2, #0
 1653 00a0 C7F88830 		str	r3, [r7, #136]
 1654 00a4 C7F88C20 		str	r2, [r7, #140]
 1655              		.loc 2 275 4
 1656 00a8 D7E92434 		ldrd	r3, [r7, #144]
 1657 00ac 2246     		mov	r2, r4
 1658 00ae D7E92289 		ldrd	r8, [r7, #136]
 1659 00b2 4146     		mov	r1, r8
 1660 00b4 01FB02F2 		mul	r2, r1, r2
 1661 00b8 4D46     		mov	r5, r9
 1662 00ba 1846     		mov	r0, r3
 1663 00bc 2146     		mov	r1, r4
 1664 00be 0346     		mov	r3, r0
 1665 00c0 03FB05F3 		mul	r3, r3, r5
 1666 00c4 1344     		add	r3, r3, r2
 1667 00c6 0246     		mov	r2, r0
 1668 00c8 4146     		mov	r1, r8
 1669 00ca A2FB0121 		umull	r2, r1, r2, r1
 1670 00ce C7F8B410 		str	r1, [r7, #180]
 1671 00d2 C7F8B020 		str	r2, [r7, #176]
 1672 00d6 D7F8B420 		ldr	r2, [r7, #180]
 1673 00da 1344     		add	r3, r3, r2
 1674 00dc C7F8B430 		str	r3, [r7, #180]
 1675 00e0 D7E92C34 		ldrd	r3, [r7, #176]
 1676 00e4 C7E93A34 		strd	r3, [r7, #232]
 1677 00e8 C7E93A34 		strd	r3, [r7, #232]
 276:fpr.c         **** 	z0 = (uint32_t)w & 0x01FFFFFF;
 1678              		.loc 2 276 7
 1679 00ec D7F8E830 		ldr	r3, [r7, #232]
 1680              		.loc 2 276 5
 1681 00f0 23F07E43 		bic	r3, r3, #-33554432
 1682 00f4 C7F8E430 		str	r3, [r7, #228]
 277:fpr.c         **** 	z1 = (uint32_t)(w >> 25);
 1683              		.loc 2 277 20
 1684 00f8 D7E93A23 		ldrd	r2, [r7, #232]
 1685 00fc 4FF00000 		mov	r0, #0
 1686 0100 4FF00001 		mov	r1, #0
 1687 0104 500E     		lsrs	r0, r2, #25
 1688 0106 40EAC310 		orr	r0, r0, r3, lsl #7
 1689 010a 590E     		lsrs	r1, r3, #25
 1690              		.loc 2 277 5
 1691 010c 0346     		mov	r3, r0
 1692 010e C7F8E030 		str	r3, [r7, #224]
 278:fpr.c         **** 	w = (uint64_t)x0 * (uint64_t)y1;
 1693              		.loc 2 278 6
 1694 0112 D7F8FC30 		ldr	r3, [r7, #252]
 1695 0116 0022     		movs	r2, #0
 1696 0118 C7F88030 		str	r3, [r7, #128]
 1697 011c C7F88420 		str	r2, [r7, #132]
 1698              		.loc 2 278 21
 1699 0120 D7F8F030 		ldr	r3, [r7, #240]
 1700 0124 0022     		movs	r2, #0
 1701 0126 BB67     		str	r3, [r7, #120]
 1702 0128 FA67     		str	r2, [r7, #124]
 1703              		.loc 2 278 4
 1704 012a D7E92034 		ldrd	r3, [r7, #128]
 1705 012e 2246     		mov	r2, r4
 1706 0130 D7E91E89 		ldrd	r8, [r7, #120]
 1707 0134 4146     		mov	r1, r8
 1708 0136 01FB02F2 		mul	r2, r1, r2
 1709 013a 4D46     		mov	r5, r9
 1710 013c 1846     		mov	r0, r3
 1711 013e 2146     		mov	r1, r4
 1712 0140 0346     		mov	r3, r0
 1713 0142 03FB05F3 		mul	r3, r3, r5
 1714 0146 1344     		add	r3, r3, r2
 1715 0148 0246     		mov	r2, r0
 1716 014a 4146     		mov	r1, r8
 1717 014c A2FB0121 		umull	r2, r1, r2, r1
 1718 0150 C7F8AC10 		str	r1, [r7, #172]
 1719 0154 C7F8A820 		str	r2, [r7, #168]
 1720 0158 D7F8AC20 		ldr	r2, [r7, #172]
 1721 015c 1344     		add	r3, r3, r2
 1722 015e C7F8AC30 		str	r3, [r7, #172]
 1723 0162 D7E92A34 		ldrd	r3, [r7, #168]
 1724 0166 C7E93A34 		strd	r3, [r7, #232]
 1725 016a C7E93A34 		strd	r3, [r7, #232]
 279:fpr.c         **** 	z1 += (uint32_t)w & 0x01FFFFFF;
 1726              		.loc 2 279 8
 1727 016e D7F8E830 		ldr	r3, [r7, #232]
 1728              		.loc 2 279 20
 1729 0172 23F07E42 		bic	r2, r3, #-33554432
 1730              		.loc 2 279 5
 1731 0176 D7F8E030 		ldr	r3, [r7, #224]
 1732 017a 1344     		add	r3, r3, r2
 1733 017c C7F8E030 		str	r3, [r7, #224]
 280:fpr.c         **** 	z2 = (uint32_t)(w >> 25);
 1734              		.loc 2 280 20
 1735 0180 D7E93A23 		ldrd	r2, [r7, #232]
 1736 0184 4FF00000 		mov	r0, #0
 1737 0188 4FF00001 		mov	r1, #0
 1738 018c 500E     		lsrs	r0, r2, #25
 1739 018e 40EAC310 		orr	r0, r0, r3, lsl #7
 1740 0192 590E     		lsrs	r1, r3, #25
 1741              		.loc 2 280 5
 1742 0194 0346     		mov	r3, r0
 1743 0196 C7F8DC30 		str	r3, [r7, #220]
 281:fpr.c         **** 	w = (uint64_t)x1 * (uint64_t)y0;
 1744              		.loc 2 281 6
 1745 019a D7F8F830 		ldr	r3, [r7, #248]
 1746 019e 0022     		movs	r2, #0
 1747 01a0 3B67     		str	r3, [r7, #112]
 1748 01a2 7A67     		str	r2, [r7, #116]
 1749              		.loc 2 281 21
 1750 01a4 D7F8F430 		ldr	r3, [r7, #244]
 1751 01a8 0022     		movs	r2, #0
 1752 01aa BB66     		str	r3, [r7, #104]
 1753 01ac FA66     		str	r2, [r7, #108]
 1754              		.loc 2 281 4
 1755 01ae D7E91C34 		ldrd	r3, [r7, #112]
 1756 01b2 2246     		mov	r2, r4
 1757 01b4 D7E91A89 		ldrd	r8, [r7, #104]
 1758 01b8 4146     		mov	r1, r8
 1759 01ba 01FB02F2 		mul	r2, r1, r2
 1760 01be 4D46     		mov	r5, r9
 1761 01c0 1846     		mov	r0, r3
 1762 01c2 2146     		mov	r1, r4
 1763 01c4 0346     		mov	r3, r0
 1764 01c6 03FB05F3 		mul	r3, r3, r5
 1765 01ca 1344     		add	r3, r3, r2
 1766 01cc 0246     		mov	r2, r0
 1767 01ce 4146     		mov	r1, r8
 1768 01d0 A2FB0121 		umull	r2, r1, r2, r1
 1769 01d4 C7F8A410 		str	r1, [r7, #164]
 1770 01d8 C7F8A020 		str	r2, [r7, #160]
 1771 01dc D7F8A420 		ldr	r2, [r7, #164]
 1772 01e0 1344     		add	r3, r3, r2
 1773 01e2 C7F8A430 		str	r3, [r7, #164]
 1774 01e6 D7E92834 		ldrd	r3, [r7, #160]
 1775 01ea C7E93A34 		strd	r3, [r7, #232]
 1776 01ee C7E93A34 		strd	r3, [r7, #232]
 282:fpr.c         **** 	z1 += (uint32_t)w & 0x01FFFFFF;
 1777              		.loc 2 282 8
 1778 01f2 D7F8E830 		ldr	r3, [r7, #232]
 1779              		.loc 2 282 20
 1780 01f6 23F07E42 		bic	r2, r3, #-33554432
 1781              		.loc 2 282 5
 1782 01fa D7F8E030 		ldr	r3, [r7, #224]
 1783 01fe 1344     		add	r3, r3, r2
 1784 0200 C7F8E030 		str	r3, [r7, #224]
 283:fpr.c         **** 	z2 += (uint32_t)(w >> 25);
 1785              		.loc 2 283 21
 1786 0204 D7E93A23 		ldrd	r2, [r7, #232]
 1787 0208 4FF00000 		mov	r0, #0
 1788 020c 4FF00001 		mov	r1, #0
 1789 0210 500E     		lsrs	r0, r2, #25
 1790 0212 40EAC310 		orr	r0, r0, r3, lsl #7
 1791 0216 590E     		lsrs	r1, r3, #25
 1792              		.loc 2 283 8
 1793 0218 0246     		mov	r2, r0
 1794              		.loc 2 283 5
 1795 021a D7F8DC30 		ldr	r3, [r7, #220]
 1796 021e 1344     		add	r3, r3, r2
 1797 0220 C7F8DC30 		str	r3, [r7, #220]
 284:fpr.c         **** 	zu = (uint64_t)x1 * (uint64_t)y1;
 1798              		.loc 2 284 7
 1799 0224 D7F8F830 		ldr	r3, [r7, #248]
 1800 0228 0022     		movs	r2, #0
 1801 022a 3B66     		str	r3, [r7, #96]
 1802 022c 7A66     		str	r2, [r7, #100]
 1803              		.loc 2 284 22
 1804 022e D7F8F030 		ldr	r3, [r7, #240]
 1805 0232 0022     		movs	r2, #0
 1806 0234 BB65     		str	r3, [r7, #88]
 1807 0236 FA65     		str	r2, [r7, #92]
 1808              		.loc 2 284 5
 1809 0238 D7E91834 		ldrd	r3, [r7, #96]
 1810 023c 2246     		mov	r2, r4
 1811 023e D7E91689 		ldrd	r8, [r7, #88]
 1812 0242 4146     		mov	r1, r8
 1813 0244 01FB02F2 		mul	r2, r1, r2
 1814 0248 4D46     		mov	r5, r9
 1815 024a 1846     		mov	r0, r3
 1816 024c 2146     		mov	r1, r4
 1817 024e 0346     		mov	r3, r0
 1818 0250 03FB05F3 		mul	r3, r3, r5
 1819 0254 1344     		add	r3, r3, r2
 1820 0256 0246     		mov	r2, r0
 1821 0258 4146     		mov	r1, r8
 1822 025a A2FB0121 		umull	r2, r1, r2, r1
 1823 025e C7F89C10 		str	r1, [r7, #156]
 1824 0262 C7F89820 		str	r2, [r7, #152]
 1825 0266 D7F89C20 		ldr	r2, [r7, #156]
 1826 026a 1344     		add	r3, r3, r2
 1827 026c C7F89C30 		str	r3, [r7, #156]
 1828 0270 D7E92634 		ldrd	r3, [r7, #152]
 1829 0274 C7E93434 		strd	r3, [r7, #208]
 1830 0278 C7E93434 		strd	r3, [r7, #208]
 285:fpr.c         **** 	z2 += (z1 >> 25);
 1831              		.loc 2 285 12
 1832 027c D7F8E030 		ldr	r3, [r7, #224]
 1833 0280 5A0E     		lsrs	r2, r3, #25
 1834              		.loc 2 285 5
 1835 0282 D7F8DC30 		ldr	r3, [r7, #220]
 1836 0286 1344     		add	r3, r3, r2
 1837 0288 C7F8DC30 		str	r3, [r7, #220]
 286:fpr.c         **** 	z1 &= 0x01FFFFFF;
 1838              		.loc 2 286 5
 1839 028c D7F8E030 		ldr	r3, [r7, #224]
 1840 0290 23F07E43 		bic	r3, r3, #-33554432
 1841 0294 C7F8E030 		str	r3, [r7, #224]
 287:fpr.c         **** 	zu += z2;
 1842              		.loc 2 287 5
 1843 0298 D7F8DC30 		ldr	r3, [r7, #220]
 1844 029c 0022     		movs	r2, #0
 1845 029e 3B65     		str	r3, [r7, #80]
 1846 02a0 7A65     		str	r2, [r7, #84]
 1847 02a2 D7E93423 		ldrd	r2, [r7, #208]
 1848 02a6 D7E91445 		ldrd	r4, [r7, #80]
 1849 02aa 2146     		mov	r1, r4
 1850 02ac 5118     		adds	r1, r2, r1
 1851 02ae B961     		str	r1, [r7, #24]
 1852 02b0 2946     		mov	r1, r5
 1853 02b2 43EB0101 		adc	r1, r3, r1
 1854 02b6 F961     		str	r1, [r7, #28]
 1855 02b8 D7E90634 		ldrd	r3, [r7, #24]
 1856 02bc C7E93434 		strd	r3, [r7, #208]
 288:fpr.c         **** //    trigger_low();
 289:fpr.c         **** 	/*
 290:fpr.c         **** 	 * Since xu and yu are both in the 2^52..2^53-1 range, the
 291:fpr.c         **** 	 * product is in the 2^104..2^106-1 range. We first reassemble
 292:fpr.c         **** 	 * it and round it into the 2^54..2^56-1 range; the bottom bit
 293:fpr.c         **** 	 * is made "sticky". Since the low limbs z0 and z1 are 25 bits
 294:fpr.c         **** 	 * each, we just take the upper part (zu), and consider z0 and
 295:fpr.c         **** 	 * z1 only for purposes of stickiness.
 296:fpr.c         **** 	 * (This is the reason why we chose 25-bit limbs above.)
 297:fpr.c         **** 
 298:fpr.c         ****      * xu yu  2^52..2^53-1    2^104..2^106-1  
 299:fpr.c         ****      *   2^54..2^56-1  .   "
 300:fpr.c         ****      *  z0 z1  25  (zu)  z0 z1 
 301:fpr.c         ****      */
 302:fpr.c         **** 	zu |= ((z0 | z1) + 0x01FFFFFF) >> 25; //zu   1 or
 1857              		.loc 2 302 13
 1858 02c0 D7F8E420 		ldr	r2, [r7, #228]
 1859 02c4 D7F8E030 		ldr	r3, [r7, #224]
 1860 02c8 1343     		orrs	r3, r3, r2
 1861              		.loc 2 302 19
 1862 02ca 03F10073 		add	r3, r3, #33554432
 1863 02ce 013B     		subs	r3, r3, #1
 1864              		.loc 2 302 33
 1865 02d0 5B0E     		lsrs	r3, r3, #25
 1866 02d2 0022     		movs	r2, #0
 1867 02d4 BB64     		str	r3, [r7, #72]
 1868 02d6 FA64     		str	r2, [r7, #76]
 1869              		.loc 2 302 5
 1870 02d8 D7E93423 		ldrd	r2, [r7, #208]
 1871 02dc D7E91201 		ldrd	r0, [r7, #72]
 1872 02e0 0446     		mov	r4, r0
 1873 02e2 1443     		orrs	r4, r4, r2
 1874 02e4 3C61     		str	r4, [r7, #16]
 1875 02e6 1943     		orrs	r1, r1, r3
 1876 02e8 7961     		str	r1, [r7, #20]
 1877 02ea D7E90434 		ldrd	r3, [r7, #16]
 1878 02ee C7E93434 		strd	r3, [r7, #208]
 303:fpr.c         **** 
 304:fpr.c         **** 	/*
 305:fpr.c         **** 	 * We normalize zu to the 2^54..s^55-1 range: it could be one
 306:fpr.c         **** 	 * bit too large at this point. This is done with a conditional
 307:fpr.c         **** 	 * right-shift that takes into account the sticky bit.
 308:fpr.c         **** 	 *
 309:fpr.c         **** 	 * zu 2^54..s^55-1  .
 310:fpr.c         **** 	 *   1    .
 311:fpr.c         **** 	 *        .
 312:fpr.c         **** 	 */
 313:fpr.c         **** 	zv = (zu >> 1) | (zu & 1);
 1879              		.loc 2 313 11
 1880 02f2 D7E93423 		ldrd	r2, [r7, #208]
 1881 02f6 4FF00000 		mov	r0, #0
 1882 02fa 4FF00001 		mov	r1, #0
 1883 02fe 5008     		lsrs	r0, r2, #1
 1884 0300 40EAC370 		orr	r0, r0, r3, lsl #31
 1885 0304 5908     		lsrs	r1, r3, #1
 1886              		.loc 2 313 23
 1887 0306 D7E93423 		ldrd	r2, [r7, #208]
 1888 030a 02F00103 		and	r3, r2, #1
 1889 030e 3B64     		str	r3, [r7, #64]
 1890 0310 0023     		movs	r3, #0
 1891 0312 7B64     		str	r3, [r7, #68]
 1892              		.loc 2 313 5
 1893 0314 D7E91034 		ldrd	r3, [r7, #64]
 1894 0318 1A46     		mov	r2, r3
 1895 031a 0243     		orrs	r2, r2, r0
 1896 031c BA60     		str	r2, [r7, #8]
 1897 031e 2346     		mov	r3, r4
 1898 0320 0B43     		orrs	r3, r3, r1
 1899 0322 FB60     		str	r3, [r7, #12]
 1900 0324 D7E90234 		ldrd	r3, [r7, #8]
 1901 0328 C7E93234 		strd	r3, [r7, #200]
 314:fpr.c         **** 	w = zu >> 55;
 1902              		.loc 2 314 4
 1903 032c D7E93401 		ldrd	r0, [r7, #208]
 1904 0330 4FF00002 		mov	r2, #0
 1905 0334 4FF00003 		mov	r3, #0
 1906 0338 CA0D     		lsrs	r2, r1, #23
 1907 033a 0023     		movs	r3, #0
 1908 033c C7E93A23 		strd	r2, [r7, #232]
 315:fpr.c         **** 	zu ^= (zu ^ zv) & -w;
 1909              		.loc 2 315 12
 1910 0340 D7E93401 		ldrd	r0, [r7, #208]
 1911 0344 D7E93223 		ldrd	r2, [r7, #200]
 1912 0348 80EA0204 		eor	r4, r0, r2
 1913 034c BC63     		str	r4, [r7, #56]
 1914 034e 4B40     		eors	r3, r3, r1
 1915 0350 FB63     		str	r3, [r7, #60]
 1916              		.loc 2 315 20
 1917 0352 D7E93A23 		ldrd	r2, [r7, #232]
 1918 0356 0021     		movs	r1, #0
 1919 0358 5042     		negs	r0, r2
 1920 035a 3863     		str	r0, [r7, #48]
 1921 035c 61EB0303 		sbc	r3, r1, r3
 1922 0360 7B63     		str	r3, [r7, #52]
 1923              		.loc 2 315 18
 1924 0362 D7E90E34 		ldrd	r3, [r7, #56]
 1925 0366 1846     		mov	r0, r3
 1926 0368 D7E90C12 		ldrd	r1, [r7, #48]
 1927 036c 0D46     		mov	r5, r1
 1928 036e 2840     		ands	r0, r0, r5
 1929 0370 B862     		str	r0, [r7, #40]
 1930 0372 2346     		mov	r3, r4
 1931 0374 1340     		ands	r3, r3, r2
 1932 0376 FB62     		str	r3, [r7, #44]
 1933              		.loc 2 315 5
 1934 0378 D7E93423 		ldrd	r2, [r7, #208]
 1935 037c D7E90A01 		ldrd	r0, [r7, #40]
 1936 0380 0446     		mov	r4, r0
 1937 0382 5440     		eors	r4, r4, r2
 1938 0384 3C60     		str	r4, [r7]
 1939 0386 5940     		eors	r1, r1, r3
 1940 0388 7960     		str	r1, [r7, #4]
 1941 038a D7E90034 		ldrd	r3, [r7]
 1942 038e C7E93434 		strd	r3, [r7, #208]
 316:fpr.c         **** 
 317:fpr.c         **** 	/*
 318:fpr.c         **** 	 * Get the aggregate scaling factor:
 319:fpr.c         **** 	 *
 320:fpr.c         **** 	 *   - Each exponent is biased by 1023.
 321:fpr.c         **** 	 *
 322:fpr.c         **** 	 *   - Integral mantissas are scaled by 2^52, hence an
 323:fpr.c         **** 	 *     extra 52 bias for each exponent.
 324:fpr.c         **** 	 *
 325:fpr.c         **** 	 *   - However, we right-shifted z by 50 bits, and then
 326:fpr.c         **** 	 *     by 0 or 1 extra bit (depending on the value of w).
 327:fpr.c         **** 	 *
 328:fpr.c         **** 	 * In total, we must add the exponents, then subtract
 329:fpr.c         **** 	 * 2 * (1023 + 52), then add 50 + w.
 330:fpr.c         **** 	 */
 331:fpr.c         **** //	ex = (int)((x >> 52) & 0x7FF);
 332:fpr.c         **** //	ey = (int)((y >> 52) & 0x7FF);
 333:fpr.c         **** //	e = ex + ey - 2100 + (int)w;
 334:fpr.c         **** 
 335:fpr.c         **** 	/*
 336:fpr.c         **** 	 * Sign bit is the XOR of the operand sign bits.
 337:fpr.c         **** 	 */
 338:fpr.c         **** //	s = (int)((x ^ y) >> 63);
 339:fpr.c         **** 
 340:fpr.c         **** 	/*
 341:fpr.c         **** 	 * Corrective actions for zeros: if either of the operands is
 342:fpr.c         **** 	 * zero, then the computations above were wrong. Test for zero
 343:fpr.c         **** 	 * is whether ex or ey is zero. We just have to set the mantissa
 344:fpr.c         **** 	 * (zu) to zero, the FPR() function will normalize e.
 345:fpr.c         **** 	 */
 346:fpr.c         **** //	d = ((ex + 0x7FF) & (ey + 0x7FF)) >> 11;
 347:fpr.c         **** //	zu &= -(uint64_t)d;
 348:fpr.c         **** 
 349:fpr.c         **** 	/*
 350:fpr.c         **** 	 * FPR() packs the result and applies proper rounding.
 351:fpr.c         **** 	 */
 352:fpr.c         **** //	return FPR(s, e, zu);
 353:fpr.c         ****     return 0;
 1943              		.loc 2 353 12
 1944 0392 4FF00002 		mov	r2, #0
 1945 0396 4FF00003 		mov	r3, #0
 354:fpr.c         **** }
 1946              		.loc 2 354 1
 1947 039a 1046     		mov	r0, r2
 1948 039c 1946     		mov	r1, r3
 1949 039e 07F58A77 		add	r7, r7, #276
 1950              	.LCFI37:
 1951              		.cfi_def_cfa_offset 28
 1952 03a2 BD46     		mov	sp, r7
 1953              	.LCFI38:
 1954              		.cfi_def_cfa_register 13
 1955              		@ sp needed
 1956 03a4 BDE8B00F 		pop	{r4, r5, r7, r8, r9, r10, fp}
 1957              	.LCFI39:
 1958              		.cfi_restore 11
 1959              		.cfi_restore 10
 1960              		.cfi_restore 9
 1961              		.cfi_restore 8
 1962              		.cfi_restore 7
 1963              		.cfi_restore 5
 1964              		.cfi_restore 4
 1965              		.cfi_def_cfa_offset 0
 1966 03a8 7047     		bx	lr
 1967              		.cfi_endproc
 1968              	.LFE20:
 1970              		.section	.text.falcon_inner_fpr_div,"ax",%progbits
 1971              		.align	1
 1972              		.global	falcon_inner_fpr_div
 1973              		.syntax unified
 1974              		.thumb
 1975              		.thumb_func
 1976              		.fpu softvfp
 1978              	falcon_inner_fpr_div:
 1979              	.LFB21:
 355:fpr.c         **** 
 356:fpr.c         **** 
 357:fpr.c         **** 
 358:fpr.c         **** fpr
 359:fpr.c         **** fpr_div(fpr x, fpr y)
 360:fpr.c         **** {
 1980              		.loc 2 360 1
 1981              		.cfi_startproc
 1982              		@ args = 0, pretend = 0, frame = 272
 1983              		@ frame_needed = 1, uses_anonymous_args = 0
 1984 0000 2DE9B04F 		push	{r4, r5, r7, r8, r9, r10, fp, lr}
 1985              	.LCFI40:
 1986              		.cfi_def_cfa_offset 32
 1987              		.cfi_offset 4, -32
 1988              		.cfi_offset 5, -28
 1989              		.cfi_offset 7, -24
 1990              		.cfi_offset 8, -20
 1991              		.cfi_offset 9, -16
 1992              		.cfi_offset 10, -12
 1993              		.cfi_offset 11, -8
 1994              		.cfi_offset 14, -4
 1995 0004 C4B0     		sub	sp, sp, #272
 1996              	.LCFI41:
 1997              		.cfi_def_cfa_offset 304
 1998 0006 00AF     		add	r7, sp, #0
 1999              	.LCFI42:
 2000              		.cfi_def_cfa_register 7
 2001 0008 C7E92E01 		strd	r0, [r7, #184]
 2002 000c C7E92C23 		strd	r2, [r7, #176]
 361:fpr.c         **** 	uint64_t xu, yu, q, q2, w;
 362:fpr.c         **** 	int i, ex, ey, e, d, s;
 363:fpr.c         **** 
 364:fpr.c         **** 	/*
 365:fpr.c         **** 	 * Extract mantissas of x and y (unsigned).
 366:fpr.c         **** 	 */
 367:fpr.c         **** 	xu = (x & (((uint64_t)1 << 52) - 1)) | ((uint64_t)1 << 52);
 2003              		.loc 2 367 10
 2004 0010 D7E92E23 		ldrd	r2, [r7, #184]
 2005 0014 1446     		mov	r4, r2
 2006 0016 C3F31305 		ubfx	r5, r3, #0, #20
 2007              		.loc 2 367 5
 2008 001a A246     		mov	r10, r4
 2009 001c 45F4801B 		orr	fp, r5, #1048576
 2010 0020 C7E942AB 		strd	r10, [r7, #264]
 368:fpr.c         **** 	yu = (y & (((uint64_t)1 << 52) - 1)) | ((uint64_t)1 << 52);
 2011              		.loc 2 368 10
 2012 0024 D7E92C23 		ldrd	r2, [r7, #176]
 2013 0028 9046     		mov	r8, r2
 2014 002a C3F31309 		ubfx	r9, r3, #0, #20
 2015              		.loc 2 368 5
 2016 002e C7F84880 		str	r8, [r7, #72]
 2017 0032 49F48013 		orr	r3, r9, #1048576
 2018 0036 FB64     		str	r3, [r7, #76]
 2019 0038 D7E91234 		ldrd	r3, [r7, #72]
 2020 003c C7E93C34 		strd	r3, [r7, #240]
 369:fpr.c         **** 
 370:fpr.c         **** 	/*
 371:fpr.c         **** 	 * Perform bit-by-bit division of xu by yu. We run it for 55 bits.
 372:fpr.c         **** 	 */
 373:fpr.c         **** 	q = 0;
 2021              		.loc 2 373 4
 2022 0040 4FF00002 		mov	r2, #0
 2023 0044 4FF00003 		mov	r3, #0
 2024 0048 C7E94023 		strd	r2, [r7, #256]
 374:fpr.c         **** 	for (i = 0; i < 55; i ++) {
 2025              		.loc 2 374 9
 2026 004c 0023     		movs	r3, #0
 2027 004e C7F8FC30 		str	r3, [r7, #252]
 2028              		.loc 2 374 2
 2029 0052 63E0     		b	.L16
 2030              	.L17:
 2031              	.LBB3:
 375:fpr.c         **** 		/*
 376:fpr.c         **** 		 * If yu is less than or equal xu, then subtract it and
 377:fpr.c         **** 		 * push a 1 in the quotient; otherwise, leave xu unchanged
 378:fpr.c         **** 		 * and push a 0.
 379:fpr.c         **** 		 */
 380:fpr.c         **** 		uint64_t b;
 381:fpr.c         **** 
 382:fpr.c         **** 		b = ((xu - yu) >> 63) - 1;
 2032              		.loc 2 382 12 discriminator 3
 2033 0054 D7E94201 		ldrd	r0, [r7, #264]
 2034 0058 D7E93C23 		ldrd	r2, [r7, #240]
 2035 005c 841A     		subs	r4, r0, r2
 2036 005e C7F8A840 		str	r4, [r7, #168]
 2037 0062 61EB0303 		sbc	r3, r1, r3
 2038 0066 C7F8AC30 		str	r3, [r7, #172]
 2039              		.loc 2 382 18 discriminator 3
 2040 006a 4FF00002 		mov	r2, #0
 2041 006e 4FF00003 		mov	r3, #0
 2042 0072 D7F8AC10 		ldr	r1, [r7, #172]
 2043 0076 CA0F     		lsrs	r2, r1, #31
 2044 0078 0023     		movs	r3, #0
 2045              		.loc 2 382 5 discriminator 3
 2046 007a 511E     		subs	r1, r2, #1
 2047 007c 3964     		str	r1, [r7, #64]
 2048 007e 43F1FF33 		adc	r3, r3, #-1
 2049 0082 7B64     		str	r3, [r7, #68]
 2050 0084 D7E91034 		ldrd	r3, [r7, #64]
 2051 0088 C7E93034 		strd	r3, [r7, #192]
 383:fpr.c         **** 		xu -= b & yu;
 2052              		.loc 2 383 11 discriminator 3
 2053 008c D7E93001 		ldrd	r0, [r7, #192]
 2054 0090 D7E93C23 		ldrd	r2, [r7, #240]
 2055 0094 00EA0204 		and	r4, r0, r2
 2056 0098 C7F8A040 		str	r4, [r7, #160]
 2057 009c 0B40     		ands	r3, r3, r1
 2058 009e C7F8A430 		str	r3, [r7, #164]
 2059              		.loc 2 383 6 discriminator 3
 2060 00a2 D7E94223 		ldrd	r2, [r7, #264]
 2061 00a6 D7E92801 		ldrd	r0, [r7, #160]
 2062 00aa 0446     		mov	r4, r0
 2063 00ac 141B     		subs	r4, r2, r4
 2064 00ae BC63     		str	r4, [r7, #56]
 2065 00b0 63EB0103 		sbc	r3, r3, r1
 2066 00b4 FB63     		str	r3, [r7, #60]
 2067 00b6 D7E90E34 		ldrd	r3, [r7, #56]
 2068 00ba C7E94234 		strd	r3, [r7, #264]
 384:fpr.c         **** 		q |= b & 1;
 2069              		.loc 2 384 10 discriminator 3
 2070 00be D7E93023 		ldrd	r2, [r7, #192]
 2071 00c2 02F00103 		and	r3, r2, #1
 2072 00c6 C7F89830 		str	r3, [r7, #152]
 2073 00ca 0023     		movs	r3, #0
 2074 00cc C7F89C30 		str	r3, [r7, #156]
 2075              		.loc 2 384 5 discriminator 3
 2076 00d0 D7E94023 		ldrd	r2, [r7, #256]
 2077 00d4 D7E92601 		ldrd	r0, [r7, #152]
 2078 00d8 0446     		mov	r4, r0
 2079 00da 1443     		orrs	r4, r4, r2
 2080 00dc 3C63     		str	r4, [r7, #48]
 2081 00de 0B43     		orrs	r3, r3, r1
 2082 00e0 7B63     		str	r3, [r7, #52]
 2083 00e2 D7E90C34 		ldrd	r3, [r7, #48]
 2084 00e6 C7E94034 		strd	r3, [r7, #256]
 385:fpr.c         **** 		xu <<= 1;
 2085              		.loc 2 385 6 discriminator 3
 2086 00ea D7E94223 		ldrd	r2, [r7, #264]
 2087 00ee 9118     		adds	r1, r2, r2
 2088 00f0 B962     		str	r1, [r7, #40]
 2089 00f2 5B41     		adcs	r3, r3, r3
 2090 00f4 FB62     		str	r3, [r7, #44]
 2091 00f6 D7E90A34 		ldrd	r3, [r7, #40]
 2092 00fa C7E94234 		strd	r3, [r7, #264]
 386:fpr.c         **** 		q <<= 1;
 2093              		.loc 2 386 5 discriminator 3
 2094 00fe D7E94023 		ldrd	r2, [r7, #256]
 2095 0102 9118     		adds	r1, r2, r2
 2096 0104 3962     		str	r1, [r7, #32]
 2097 0106 5B41     		adcs	r3, r3, r3
 2098 0108 7B62     		str	r3, [r7, #36]
 2099 010a D7E90834 		ldrd	r3, [r7, #32]
 2100 010e C7E94034 		strd	r3, [r7, #256]
 2101              	.LBE3:
 374:fpr.c         **** 		/*
 2102              		.loc 2 374 24 discriminator 3
 2103 0112 D7F8FC30 		ldr	r3, [r7, #252]
 2104 0116 0133     		adds	r3, r3, #1
 2105 0118 C7F8FC30 		str	r3, [r7, #252]
 2106              	.L16:
 374:fpr.c         **** 		/*
 2107              		.loc 2 374 2 discriminator 1
 2108 011c D7F8FC30 		ldr	r3, [r7, #252]
 2109 0120 362B     		cmp	r3, #54
 2110 0122 97DD     		ble	.L17
 387:fpr.c         **** 	}
 388:fpr.c         **** 
 389:fpr.c         **** 	/*
 390:fpr.c         **** 	 * We got 55 bits in the quotient, followed by an extra zero. We
 391:fpr.c         **** 	 * want that 56th bit to be "sticky": it should be a 1 if and
 392:fpr.c         **** 	 * only if the remainder (xu) is non-zero.
 393:fpr.c         **** 	 */
 394:fpr.c         **** 	q |= (xu | -xu) >> 63;
 2111              		.loc 2 394 13
 2112 0124 D7E94223 		ldrd	r2, [r7, #264]
 2113 0128 0021     		movs	r1, #0
 2114 012a 5042     		negs	r0, r2
 2115 012c C7F89000 		str	r0, [r7, #144]
 2116 0130 61EB0303 		sbc	r3, r1, r3
 2117 0134 C7F89430 		str	r3, [r7, #148]
 2118              		.loc 2 394 11
 2119 0138 D7E94223 		ldrd	r2, [r7, #264]
 2120 013c D7E92401 		ldrd	r0, [r7, #144]
 2121 0140 0446     		mov	r4, r0
 2122 0142 1443     		orrs	r4, r4, r2
 2123 0144 C7F88840 		str	r4, [r7, #136]
 2124 0148 1943     		orrs	r1, r1, r3
 2125 014a C7F88C10 		str	r1, [r7, #140]
 2126              		.loc 2 394 18
 2127 014e 4FF00000 		mov	r0, #0
 2128 0152 4FF00001 		mov	r1, #0
 2129 0156 D7F88C30 		ldr	r3, [r7, #140]
 2130 015a D80F     		lsrs	r0, r3, #31
 2131 015c 0021     		movs	r1, #0
 2132              		.loc 2 394 4
 2133 015e D7E94023 		ldrd	r2, [r7, #256]
 2134 0162 42EA0004 		orr	r4, r2, r0
 2135 0166 BC61     		str	r4, [r7, #24]
 2136 0168 0B43     		orrs	r3, r3, r1
 2137 016a FB61     		str	r3, [r7, #28]
 2138 016c D7E90634 		ldrd	r3, [r7, #24]
 2139 0170 C7E94034 		strd	r3, [r7, #256]
 395:fpr.c         **** 
 396:fpr.c         **** 	/*
 397:fpr.c         **** 	 * Quotient is at most 2^56-1. Its top bit may be zero, but in
 398:fpr.c         **** 	 * that case the next-to-top bit will be a one, since the
 399:fpr.c         **** 	 * initial xu and yu were both in the 2^52..2^53-1 range.
 400:fpr.c         **** 	 * We perform a conditional shift to normalize q to the
 401:fpr.c         **** 	 * 2^54..2^55-1 range (with the bottom bit being sticky).
 402:fpr.c         **** 	 */
 403:fpr.c         **** 	q2 = (q >> 1) | (q & 1);
 2140              		.loc 2 403 10
 2141 0174 D7E94023 		ldrd	r2, [r7, #256]
 2142 0178 4FF00000 		mov	r0, #0
 2143 017c 4FF00001 		mov	r1, #0
 2144 0180 5008     		lsrs	r0, r2, #1
 2145 0182 40EAC370 		orr	r0, r0, r3, lsl #31
 2146 0186 5908     		lsrs	r1, r3, #1
 2147              		.loc 2 403 21
 2148 0188 D7E94023 		ldrd	r2, [r7, #256]
 2149 018c 02F00103 		and	r3, r2, #1
 2150 0190 C7F88030 		str	r3, [r7, #128]
 2151 0194 0023     		movs	r3, #0
 2152 0196 C7F88430 		str	r3, [r7, #132]
 2153              		.loc 2 403 5
 2154 019a D7E92034 		ldrd	r3, [r7, #128]
 2155 019e 1A46     		mov	r2, r3
 2156 01a0 0243     		orrs	r2, r2, r0
 2157 01a2 3A61     		str	r2, [r7, #16]
 2158 01a4 2346     		mov	r3, r4
 2159 01a6 0B43     		orrs	r3, r3, r1
 2160 01a8 7B61     		str	r3, [r7, #20]
 2161 01aa D7E90434 		ldrd	r3, [r7, #16]
 2162 01ae C7E93A34 		strd	r3, [r7, #232]
 404:fpr.c         **** 	w = q >> 55;
 2163              		.loc 2 404 4
 2164 01b2 D7E94023 		ldrd	r2, [r7, #256]
 2165 01b6 4FF00000 		mov	r0, #0
 2166 01ba 4FF00001 		mov	r1, #0
 2167 01be D80D     		lsrs	r0, r3, #23
 2168 01c0 0021     		movs	r1, #0
 2169 01c2 C7E93801 		strd	r0, [r7, #224]
 405:fpr.c         **** 	q ^= (q ^ q2) & -w;
 2170              		.loc 2 405 10
 2171 01c6 D7E94001 		ldrd	r0, [r7, #256]
 2172 01ca D7E93A23 		ldrd	r2, [r7, #232]
 2173 01ce 80EA0204 		eor	r4, r0, r2
 2174 01d2 BC67     		str	r4, [r7, #120]
 2175 01d4 4B40     		eors	r3, r3, r1
 2176 01d6 FB67     		str	r3, [r7, #124]
 2177              		.loc 2 405 18
 2178 01d8 D7E93823 		ldrd	r2, [r7, #224]
 2179 01dc 0021     		movs	r1, #0
 2180 01de 5042     		negs	r0, r2
 2181 01e0 3867     		str	r0, [r7, #112]
 2182 01e2 61EB0303 		sbc	r3, r1, r3
 2183 01e6 7B67     		str	r3, [r7, #116]
 2184              		.loc 2 405 16
 2185 01e8 D7E91E34 		ldrd	r3, [r7, #120]
 2186 01ec 1846     		mov	r0, r3
 2187 01ee D7E91C12 		ldrd	r1, [r7, #112]
 2188 01f2 0D46     		mov	r5, r1
 2189 01f4 2840     		ands	r0, r0, r5
 2190 01f6 B866     		str	r0, [r7, #104]
 2191 01f8 2346     		mov	r3, r4
 2192 01fa 1340     		ands	r3, r3, r2
 2193 01fc FB66     		str	r3, [r7, #108]
 2194              		.loc 2 405 4
 2195 01fe D7E94023 		ldrd	r2, [r7, #256]
 2196 0202 D7E91A01 		ldrd	r0, [r7, #104]
 2197 0206 0446     		mov	r4, r0
 2198 0208 5440     		eors	r4, r4, r2
 2199 020a BC60     		str	r4, [r7, #8]
 2200 020c 5940     		eors	r1, r1, r3
 2201 020e F960     		str	r1, [r7, #12]
 2202 0210 D7E90234 		ldrd	r3, [r7, #8]
 2203 0214 C7E94034 		strd	r3, [r7, #256]
 406:fpr.c         **** 
 407:fpr.c         **** 	/*
 408:fpr.c         **** 	 * Extract exponents to compute the scaling factor:
 409:fpr.c         **** 	 *
 410:fpr.c         **** 	 *   - Each exponent is biased and we scaled them up by
 411:fpr.c         **** 	 *     52 bits; but these biases will cancel out.
 412:fpr.c         **** 	 *
 413:fpr.c         **** 	 *   - The division loop produced a 55-bit shifted result,
 414:fpr.c         **** 	 *     so we must scale it down by 55 bits.
 415:fpr.c         **** 	 *
 416:fpr.c         **** 	 *   - If w = 1, we right-shifted the integer by 1 bit,
 417:fpr.c         **** 	 *     hence we must add 1 to the scaling.
 418:fpr.c         **** 	 */
 419:fpr.c         **** 	ex = (int)((x >> 52) & 0x7FF);
 2204              		.loc 2 419 16
 2205 0218 D7E92E01 		ldrd	r0, [r7, #184]
 2206 021c 4FF00002 		mov	r2, #0
 2207 0220 4FF00003 		mov	r3, #0
 2208 0224 0A0D     		lsrs	r2, r1, #20
 2209 0226 0023     		movs	r3, #0
 2210              		.loc 2 419 23
 2211 0228 1346     		mov	r3, r2
 2212              		.loc 2 419 5
 2213 022a C3F30A03 		ubfx	r3, r3, #0, #11
 2214 022e C7F8DC30 		str	r3, [r7, #220]
 420:fpr.c         **** 	ey = (int)((y >> 52) & 0x7FF);
 2215              		.loc 2 420 16
 2216 0232 D7E92C01 		ldrd	r0, [r7, #176]
 2217 0236 4FF00002 		mov	r2, #0
 2218 023a 4FF00003 		mov	r3, #0
 2219 023e 0A0D     		lsrs	r2, r1, #20
 2220 0240 0023     		movs	r3, #0
 2221              		.loc 2 420 23
 2222 0242 1346     		mov	r3, r2
 2223              		.loc 2 420 5
 2224 0244 C3F30A03 		ubfx	r3, r3, #0, #11
 2225 0248 C7F8D830 		str	r3, [r7, #216]
 421:fpr.c         **** 	e = ex - ey - 55 + (int)w;
 2226              		.loc 2 421 9
 2227 024c D7F8DC20 		ldr	r2, [r7, #220]
 2228 0250 D7F8D830 		ldr	r3, [r7, #216]
 2229 0254 D31A     		subs	r3, r2, r3
 2230              		.loc 2 421 14
 2231 0256 A3F13702 		sub	r2, r3, #55
 2232              		.loc 2 421 21
 2233 025a D7F8E030 		ldr	r3, [r7, #224]
 2234              		.loc 2 421 4
 2235 025e 1344     		add	r3, r3, r2
 2236 0260 C7F8D430 		str	r3, [r7, #212]
 422:fpr.c         **** 
 423:fpr.c         **** 	/*
 424:fpr.c         **** 	 * Sign is the XOR of the signs of the operands.
 425:fpr.c         **** 	 */
 426:fpr.c         **** 	s = (int)((x ^ y) >> 63);
 2237              		.loc 2 426 15
 2238 0264 D7E92E01 		ldrd	r0, [r7, #184]
 2239 0268 D7E92C23 		ldrd	r2, [r7, #176]
 2240 026c 80EA0204 		eor	r4, r0, r2
 2241 0270 3C66     		str	r4, [r7, #96]
 2242 0272 4B40     		eors	r3, r3, r1
 2243 0274 7B66     		str	r3, [r7, #100]
 2244              		.loc 2 426 20
 2245 0276 4FF00002 		mov	r2, #0
 2246 027a 4FF00003 		mov	r3, #0
 2247 027e 796E     		ldr	r1, [r7, #100]
 2248 0280 CA0F     		lsrs	r2, r1, #31
 2249 0282 0023     		movs	r3, #0
 2250              		.loc 2 426 4
 2251 0284 1346     		mov	r3, r2
 2252 0286 C7F8D030 		str	r3, [r7, #208]
 427:fpr.c         **** 
 428:fpr.c         **** 	/*
 429:fpr.c         **** 	 * Corrective actions for zeros: if x = 0, then the computation
 430:fpr.c         **** 	 * is wrong, and we must clamp e and q to 0. We do not care
 431:fpr.c         **** 	 * about the case y = 0 (as per assumptions in this module,
 432:fpr.c         **** 	 * the caller does not perform divisions by zero).
 433:fpr.c         **** 	 */
 434:fpr.c         **** 	d = (ex + 0x7FF) >> 11;
 2253              		.loc 2 434 10
 2254 028a D7F8DC30 		ldr	r3, [r7, #220]
 2255 028e 03F2FF73 		addw	r3, r3, #2047
 2256              		.loc 2 434 4
 2257 0292 DB12     		asrs	r3, r3, #11
 2258 0294 C7F8CC30 		str	r3, [r7, #204]
 435:fpr.c         **** 	s &= d;
 2259              		.loc 2 435 4
 2260 0298 D7F8D020 		ldr	r2, [r7, #208]
 2261 029c D7F8CC30 		ldr	r3, [r7, #204]
 2262 02a0 1340     		ands	r3, r3, r2
 2263 02a2 C7F8D030 		str	r3, [r7, #208]
 436:fpr.c         **** 	e &= -d;
 2264              		.loc 2 436 7
 2265 02a6 D7F8CC30 		ldr	r3, [r7, #204]
 2266 02aa 5B42     		rsbs	r3, r3, #0
 2267              		.loc 2 436 4
 2268 02ac D7F8D420 		ldr	r2, [r7, #212]
 2269 02b0 1340     		ands	r3, r3, r2
 2270 02b2 C7F8D430 		str	r3, [r7, #212]
 437:fpr.c         **** 	q &= -(uint64_t)d;
 2271              		.loc 2 437 8
 2272 02b6 D7F8CC30 		ldr	r3, [r7, #204]
 2273 02ba DA17     		asrs	r2, r3, #31
 2274 02bc BB65     		str	r3, [r7, #88]
 2275 02be FA65     		str	r2, [r7, #92]
 2276              		.loc 2 437 7
 2277 02c0 0023     		movs	r3, #0
 2278 02c2 D7E91601 		ldrd	r0, [r7, #88]
 2279 02c6 0246     		mov	r2, r0
 2280 02c8 5242     		negs	r2, r2
 2281 02ca 3A65     		str	r2, [r7, #80]
 2282 02cc 0A46     		mov	r2, r1
 2283 02ce 63EB0203 		sbc	r3, r3, r2
 2284 02d2 7B65     		str	r3, [r7, #84]
 2285              		.loc 2 437 4
 2286 02d4 D7E94023 		ldrd	r2, [r7, #256]
 2287 02d8 D7E91401 		ldrd	r0, [r7, #80]
 2288 02dc 0446     		mov	r4, r0
 2289 02de 1440     		ands	r4, r4, r2
 2290 02e0 3C60     		str	r4, [r7]
 2291 02e2 1940     		ands	r1, r1, r3
 2292 02e4 7960     		str	r1, [r7, #4]
 2293 02e6 D7E90034 		ldrd	r3, [r7]
 2294 02ea C7E94034 		strd	r3, [r7, #256]
 438:fpr.c         **** 
 439:fpr.c         **** 	/*
 440:fpr.c         **** 	 * FPR() packs the result and applies proper rounding.
 441:fpr.c         **** 	 */
 442:fpr.c         **** 	return FPR(s, e, q);
 2295              		.loc 2 442 9
 2296 02ee D7E94023 		ldrd	r2, [r7, #256]
 2297 02f2 D7F8D410 		ldr	r1, [r7, #212]
 2298 02f6 D7F8D000 		ldr	r0, [r7, #208]
 2299 02fa FFF7FEFF 		bl	FPR
 2300 02fe 0246     		mov	r2, r0
 2301 0300 0B46     		mov	r3, r1
 443:fpr.c         **** }
 2302              		.loc 2 443 1
 2303 0302 1046     		mov	r0, r2
 2304 0304 1946     		mov	r1, r3
 2305 0306 07F58877 		add	r7, r7, #272
 2306              	.LCFI43:
 2307              		.cfi_def_cfa_offset 32
 2308 030a BD46     		mov	sp, r7
 2309              	.LCFI44:
 2310              		.cfi_def_cfa_register 13
 2311              		@ sp needed
 2312 030c BDE8B08F 		pop	{r4, r5, r7, r8, r9, r10, fp, pc}
 2313              		.cfi_endproc
 2314              	.LFE21:
 2316              		.section	.text.falcon_inner_fpr_sqrt,"ax",%progbits
 2317              		.align	1
 2318              		.global	falcon_inner_fpr_sqrt
 2319              		.syntax unified
 2320              		.thumb
 2321              		.thumb_func
 2322              		.fpu softvfp
 2324              	falcon_inner_fpr_sqrt:
 2325              	.LFB22:
 444:fpr.c         **** 
 445:fpr.c         **** 
 446:fpr.c         **** 
 447:fpr.c         **** fpr
 448:fpr.c         **** fpr_sqrt(fpr x)
 449:fpr.c         **** {
 2326              		.loc 2 449 1
 2327              		.cfi_startproc
 2328              		@ args = 0, pretend = 0, frame = 256
 2329              		@ frame_needed = 1, uses_anonymous_args = 0
 2330 0000 2DE9B04F 		push	{r4, r5, r7, r8, r9, r10, fp, lr}
 2331              	.LCFI45:
 2332              		.cfi_def_cfa_offset 32
 2333              		.cfi_offset 4, -32
 2334              		.cfi_offset 5, -28
 2335              		.cfi_offset 7, -24
 2336              		.cfi_offset 8, -20
 2337              		.cfi_offset 9, -16
 2338              		.cfi_offset 10, -12
 2339              		.cfi_offset 11, -8
 2340              		.cfi_offset 14, -4
 2341 0004 C0B0     		sub	sp, sp, #256
 2342              	.LCFI46:
 2343              		.cfi_def_cfa_offset 288
 2344 0006 00AF     		add	r7, sp, #0
 2345              	.LCFI47:
 2346              		.cfi_def_cfa_register 7
 2347 0008 C7E92E01 		strd	r0, [r7, #184]
 450:fpr.c         **** 	uint64_t xu, q, s, r;
 451:fpr.c         **** 	int ex, e;
 452:fpr.c         **** 
 453:fpr.c         **** 	/*
 454:fpr.c         **** 	 * Extract the mantissa and the exponent. We don't care about
 455:fpr.c         **** 	 * the sign: by assumption, the operand is nonnegative.
 456:fpr.c         **** 	 * We want the "true" exponent corresponding to a mantissa
 457:fpr.c         **** 	 * in the 1..2 range.
 458:fpr.c         **** 	 */
 459:fpr.c         **** 	xu = (x & (((uint64_t)1 << 52) - 1)) | ((uint64_t)1 << 52);
 2348              		.loc 2 459 10
 2349 000c D7E92E23 		ldrd	r2, [r7, #184]
 2350 0010 1446     		mov	r4, r2
 2351 0012 C3F31305 		ubfx	r5, r3, #0, #20
 2352              		.loc 2 459 5
 2353 0016 A046     		mov	r8, r4
 2354 0018 45F48019 		orr	r9, r5, #1048576
 2355 001c C7E93E89 		strd	r8, [r7, #248]
 460:fpr.c         **** 	ex = (int)((x >> 52) & 0x7FF);
 2356              		.loc 2 460 16
 2357 0020 D7E92E23 		ldrd	r2, [r7, #184]
 2358 0024 4FF00000 		mov	r0, #0
 2359 0028 4FF00001 		mov	r1, #0
 2360 002c 180D     		lsrs	r0, r3, #20
 2361 002e 0021     		movs	r1, #0
 2362              		.loc 2 460 23
 2363 0030 0346     		mov	r3, r0
 2364              		.loc 2 460 5
 2365 0032 C3F30A03 		ubfx	r3, r3, #0, #11
 2366 0036 C7F8D830 		str	r3, [r7, #216]
 461:fpr.c         **** 	e = ex - 1023;
 2367              		.loc 2 461 4
 2368 003a D7F8D830 		ldr	r3, [r7, #216]
 2369 003e A3F2FF33 		subw	r3, r3, #1023
 2370 0042 C7F8D430 		str	r3, [r7, #212]
 462:fpr.c         **** 
 463:fpr.c         **** 	/*
 464:fpr.c         **** 	 * If the exponent is odd, double the mantissa and decrement
 465:fpr.c         **** 	 * the exponent. The exponent is then halved to account for
 466:fpr.c         **** 	 * the square root.
 467:fpr.c         **** 	 */
 468:fpr.c         **** 	xu += xu & -(uint64_t)(e & 1);
 2371              		.loc 2 468 27
 2372 0046 D7F8D430 		ldr	r3, [r7, #212]
 2373 004a DA17     		asrs	r2, r3, #31
 2374 004c C7F8B030 		str	r3, [r7, #176]
 2375 0050 C7F8B420 		str	r2, [r7, #180]
 2376              		.loc 2 468 14
 2377 0054 D7F8B030 		ldr	r3, [r7, #176]
 2378 0058 03F00103 		and	r3, r3, #1
 2379 005c C7F8A830 		str	r3, [r7, #168]
 2380 0060 0023     		movs	r3, #0
 2381 0062 C7F8AC30 		str	r3, [r7, #172]
 2382              		.loc 2 468 13
 2383 0066 0023     		movs	r3, #0
 2384 0068 D7E92A12 		ldrd	r1, [r7, #168]
 2385 006c 0846     		mov	r0, r1
 2386 006e D0F1000A 		rsbs	r10, r0, #0
 2387 0072 63EB020B 		sbc	fp, r3, r2
 2388              		.loc 2 468 11
 2389 0076 D7E93E23 		ldrd	r2, [r7, #248]
 2390 007a 0AEA0201 		and	r1, r10, r2
 2391 007e C7F8A010 		str	r1, [r7, #160]
 2392 0082 0BEA0303 		and	r3, fp, r3
 2393 0086 C7F8A430 		str	r3, [r7, #164]
 2394              		.loc 2 468 5
 2395 008a D7E93E23 		ldrd	r2, [r7, #248]
 2396 008e D7E92845 		ldrd	r4, [r7, #160]
 2397 0092 2146     		mov	r1, r4
 2398 0094 5118     		adds	r1, r2, r1
 2399 0096 B965     		str	r1, [r7, #88]
 2400 0098 2946     		mov	r1, r5
 2401 009a 43EB0101 		adc	r1, r3, r1
 2402 009e F965     		str	r1, [r7, #92]
 2403 00a0 D7E91634 		ldrd	r3, [r7, #88]
 2404 00a4 C7E93E34 		strd	r3, [r7, #248]
 469:fpr.c         **** 	e >>= 1;
 2405              		.loc 2 469 4
 2406 00a8 D7F8D430 		ldr	r3, [r7, #212]
 2407 00ac 5B10     		asrs	r3, r3, #1
 2408 00ae C7F8D430 		str	r3, [r7, #212]
 470:fpr.c         **** 
 471:fpr.c         **** 	/*
 472:fpr.c         **** 	 * Double the mantissa.
 473:fpr.c         **** 	 */
 474:fpr.c         **** 	xu <<= 1;
 2409              		.loc 2 474 5
 2410 00b2 D7E93E23 		ldrd	r2, [r7, #248]
 2411 00b6 9118     		adds	r1, r2, r2
 2412 00b8 3965     		str	r1, [r7, #80]
 2413 00ba 5B41     		adcs	r3, r3, r3
 2414 00bc 7B65     		str	r3, [r7, #84]
 2415 00be D7E91434 		ldrd	r3, [r7, #80]
 2416 00c2 C7E93E34 		strd	r3, [r7, #248]
 475:fpr.c         **** 
 476:fpr.c         **** 	/*
 477:fpr.c         **** 	 * We now have a mantissa in the 2^53..2^55-1 range. It
 478:fpr.c         **** 	 * represents a value between 1 (inclusive) and 4 (exclusive)
 479:fpr.c         **** 	 * in fixed point notation (with 53 fractional bits). We
 480:fpr.c         **** 	 * compute the square root bit by bit.
 481:fpr.c         **** 	 */
 482:fpr.c         **** 	q = 0;
 2417              		.loc 2 482 4
 2418 00c6 4FF00002 		mov	r2, #0
 2419 00ca 4FF00003 		mov	r3, #0
 2420 00ce C7E93C23 		strd	r2, [r7, #240]
 483:fpr.c         **** 	s = 0;
 2421              		.loc 2 483 4
 2422 00d2 4FF00002 		mov	r2, #0
 2423 00d6 4FF00003 		mov	r3, #0
 2424 00da C7E93A23 		strd	r2, [r7, #232]
 484:fpr.c         **** 	r = (uint64_t)1 << 53;
 2425              		.loc 2 484 4
 2426 00de 4FF00002 		mov	r2, #0
 2427 00e2 4FF40013 		mov	r3, #2097152
 2428 00e6 C7E93823 		strd	r2, [r7, #224]
 2429              	.LBB4:
 485:fpr.c         **** 	for (int i = 0; i < 54; i ++) {
 2430              		.loc 2 485 11
 2431 00ea 0023     		movs	r3, #0
 2432 00ec C7F8DC30 		str	r3, [r7, #220]
 2433              		.loc 2 485 2
 2434 00f0 94E0     		b	.L20
 2435              	.L21:
 2436              	.LBB5:
 486:fpr.c         **** 		uint64_t t, b;
 487:fpr.c         **** 
 488:fpr.c         **** 		t = s + r;
 2437              		.loc 2 488 5 discriminator 3
 2438 00f2 D7E93A01 		ldrd	r0, [r7, #232]
 2439 00f6 D7E93823 		ldrd	r2, [r7, #224]
 2440 00fa 8418     		adds	r4, r0, r2
 2441 00fc BC64     		str	r4, [r7, #72]
 2442 00fe 41EB0303 		adc	r3, r1, r3
 2443 0102 FB64     		str	r3, [r7, #76]
 2444 0104 D7E91234 		ldrd	r3, [r7, #72]
 2445 0108 C7E93234 		strd	r3, [r7, #200]
 489:fpr.c         **** 		b = ((xu - t) >> 63) - 1;
 2446              		.loc 2 489 12 discriminator 3
 2447 010c D7E93E01 		ldrd	r0, [r7, #248]
 2448 0110 D7E93223 		ldrd	r2, [r7, #200]
 2449 0114 841A     		subs	r4, r0, r2
 2450 0116 C7F89840 		str	r4, [r7, #152]
 2451 011a 61EB0303 		sbc	r3, r1, r3
 2452 011e C7F89C30 		str	r3, [r7, #156]
 2453              		.loc 2 489 17 discriminator 3
 2454 0122 4FF00002 		mov	r2, #0
 2455 0126 4FF00003 		mov	r3, #0
 2456 012a D7F89C10 		ldr	r1, [r7, #156]
 2457 012e CA0F     		lsrs	r2, r1, #31
 2458 0130 0023     		movs	r3, #0
 2459              		.loc 2 489 5 discriminator 3
 2460 0132 511E     		subs	r1, r2, #1
 2461 0134 3964     		str	r1, [r7, #64]
 2462 0136 43F1FF33 		adc	r3, r3, #-1
 2463 013a 7B64     		str	r3, [r7, #68]
 2464 013c D7E91034 		ldrd	r3, [r7, #64]
 2465 0140 C7E93034 		strd	r3, [r7, #192]
 490:fpr.c         **** 		s += (r << 1) & b;
 2466              		.loc 2 490 11 discriminator 3
 2467 0144 D7E93823 		ldrd	r2, [r7, #224]
 2468 0148 9118     		adds	r1, r2, r2
 2469 014a B963     		str	r1, [r7, #56]
 2470 014c 5B41     		adcs	r3, r3, r3
 2471 014e FB63     		str	r3, [r7, #60]
 2472 0150 D7E90E01 		ldrd	r0, [r7, #56]
 2473              		.loc 2 490 17 discriminator 3
 2474 0154 D7E93023 		ldrd	r2, [r7, #192]
 2475 0158 00EA0204 		and	r4, r0, r2
 2476 015c C7F89040 		str	r4, [r7, #144]
 2477 0160 0B40     		ands	r3, r3, r1
 2478 0162 C7F89430 		str	r3, [r7, #148]
 2479              		.loc 2 490 5 discriminator 3
 2480 0166 D7E93A23 		ldrd	r2, [r7, #232]
 2481 016a D7E92445 		ldrd	r4, [r7, #144]
 2482 016e 2146     		mov	r1, r4
 2483 0170 5118     		adds	r1, r2, r1
 2484 0172 3963     		str	r1, [r7, #48]
 2485 0174 2946     		mov	r1, r5
 2486 0176 4B41     		adcs	r3, r3, r1
 2487 0178 7B63     		str	r3, [r7, #52]
 2488 017a D7E90C34 		ldrd	r3, [r7, #48]
 2489 017e C7E93A34 		strd	r3, [r7, #232]
 491:fpr.c         **** 		xu -= t & b;
 2490              		.loc 2 491 11 discriminator 3
 2491 0182 D7E93201 		ldrd	r0, [r7, #200]
 2492 0186 D7E93023 		ldrd	r2, [r7, #192]
 2493 018a 00EA0204 		and	r4, r0, r2
 2494 018e C7F88840 		str	r4, [r7, #136]
 2495 0192 0B40     		ands	r3, r3, r1
 2496 0194 C7F88C30 		str	r3, [r7, #140]
 2497              		.loc 2 491 6 discriminator 3
 2498 0198 D7E93E23 		ldrd	r2, [r7, #248]
 2499 019c D7E92201 		ldrd	r0, [r7, #136]
 2500 01a0 0446     		mov	r4, r0
 2501 01a2 141B     		subs	r4, r2, r4
 2502 01a4 BC62     		str	r4, [r7, #40]
 2503 01a6 63EB0103 		sbc	r3, r3, r1
 2504 01aa FB62     		str	r3, [r7, #44]
 2505 01ac D7E90A34 		ldrd	r3, [r7, #40]
 2506 01b0 C7E93E34 		strd	r3, [r7, #248]
 492:fpr.c         **** 		q += r & b;
 2507              		.loc 2 492 10 discriminator 3
 2508 01b4 D7E93801 		ldrd	r0, [r7, #224]
 2509 01b8 D7E93023 		ldrd	r2, [r7, #192]
 2510 01bc 00EA0204 		and	r4, r0, r2
 2511 01c0 C7F88040 		str	r4, [r7, #128]
 2512 01c4 0B40     		ands	r3, r3, r1
 2513 01c6 C7F88430 		str	r3, [r7, #132]
 2514              		.loc 2 492 5 discriminator 3
 2515 01ca D7E93C23 		ldrd	r2, [r7, #240]
 2516 01ce D7E92045 		ldrd	r4, [r7, #128]
 2517 01d2 2146     		mov	r1, r4
 2518 01d4 5118     		adds	r1, r2, r1
 2519 01d6 3962     		str	r1, [r7, #32]
 2520 01d8 2946     		mov	r1, r5
 2521 01da 4B41     		adcs	r3, r3, r1
 2522 01dc 7B62     		str	r3, [r7, #36]
 2523 01de D7E90834 		ldrd	r3, [r7, #32]
 2524 01e2 C7E93C34 		strd	r3, [r7, #240]
 493:fpr.c         **** 		xu <<= 1;
 2525              		.loc 2 493 6 discriminator 3
 2526 01e6 D7E93E23 		ldrd	r2, [r7, #248]
 2527 01ea 9118     		adds	r1, r2, r2
 2528 01ec B961     		str	r1, [r7, #24]
 2529 01ee 5B41     		adcs	r3, r3, r3
 2530 01f0 FB61     		str	r3, [r7, #28]
 2531 01f2 D7E90634 		ldrd	r3, [r7, #24]
 2532 01f6 C7E93E34 		strd	r3, [r7, #248]
 494:fpr.c         **** 		r >>= 1;
 2533              		.loc 2 494 5 discriminator 3
 2534 01fa D7E93823 		ldrd	r2, [r7, #224]
 2535 01fe 4FF00000 		mov	r0, #0
 2536 0202 4FF00001 		mov	r1, #0
 2537 0206 5008     		lsrs	r0, r2, #1
 2538 0208 40EAC370 		orr	r0, r0, r3, lsl #31
 2539 020c 5908     		lsrs	r1, r3, #1
 2540 020e C7E93801 		strd	r0, [r7, #224]
 2541              	.LBE5:
 485:fpr.c         **** 		uint64_t t, b;
 2542              		.loc 2 485 28 discriminator 3
 2543 0212 D7F8DC30 		ldr	r3, [r7, #220]
 2544 0216 0133     		adds	r3, r3, #1
 2545 0218 C7F8DC30 		str	r3, [r7, #220]
 2546              	.L20:
 485:fpr.c         **** 		uint64_t t, b;
 2547              		.loc 2 485 2 discriminator 1
 2548 021c D7F8DC30 		ldr	r3, [r7, #220]
 2549 0220 352B     		cmp	r3, #53
 2550 0222 7FF766AF 		ble	.L21
 2551              	.LBE4:
 495:fpr.c         **** 	}
 496:fpr.c         **** 
 497:fpr.c         **** 	/*
 498:fpr.c         **** 	 * Now, q is a rounded-low 54-bit value, with a leading 1,
 499:fpr.c         **** 	 * 52 fractional digits, and an additional guard bit. We add
 500:fpr.c         **** 	 * an extra sticky bit to account for what remains of the operand.
 501:fpr.c         **** 	 */
 502:fpr.c         **** 	q <<= 1;
 2552              		.loc 2 502 4
 2553 0226 D7E93C23 		ldrd	r2, [r7, #240]
 2554 022a 9118     		adds	r1, r2, r2
 2555 022c 3961     		str	r1, [r7, #16]
 2556 022e 5B41     		adcs	r3, r3, r3
 2557 0230 7B61     		str	r3, [r7, #20]
 2558 0232 D7E90434 		ldrd	r3, [r7, #16]
 2559 0236 C7E93C34 		strd	r3, [r7, #240]
 503:fpr.c         **** 	q |= (xu | -xu) >> 63;
 2560              		.loc 2 503 13
 2561 023a D7E93E23 		ldrd	r2, [r7, #248]
 2562 023e 0021     		movs	r1, #0
 2563 0240 5042     		negs	r0, r2
 2564 0242 B867     		str	r0, [r7, #120]
 2565 0244 61EB0303 		sbc	r3, r1, r3
 2566 0248 FB67     		str	r3, [r7, #124]
 2567              		.loc 2 503 11
 2568 024a D7E93E23 		ldrd	r2, [r7, #248]
 2569 024e D7E91E01 		ldrd	r0, [r7, #120]
 2570 0252 0446     		mov	r4, r0
 2571 0254 1443     		orrs	r4, r4, r2
 2572 0256 3C67     		str	r4, [r7, #112]
 2573 0258 1943     		orrs	r1, r1, r3
 2574 025a 7967     		str	r1, [r7, #116]
 2575              		.loc 2 503 18
 2576 025c 4FF00002 		mov	r2, #0
 2577 0260 4FF00003 		mov	r3, #0
 2578 0264 796F     		ldr	r1, [r7, #116]
 2579 0266 CA0F     		lsrs	r2, r1, #31
 2580 0268 0023     		movs	r3, #0
 2581              		.loc 2 503 4
 2582 026a D7E93C01 		ldrd	r0, [r7, #240]
 2583 026e 40EA0204 		orr	r4, r0, r2
 2584 0272 BC60     		str	r4, [r7, #8]
 2585 0274 0B43     		orrs	r3, r3, r1
 2586 0276 FB60     		str	r3, [r7, #12]
 2587 0278 D7E90234 		ldrd	r3, [r7, #8]
 2588 027c C7E93C34 		strd	r3, [r7, #240]
 504:fpr.c         **** 
 505:fpr.c         **** 	/*
 506:fpr.c         **** 	 * Result q is in the 2^54..2^55-1 range; we bias the exponent
 507:fpr.c         **** 	 * by 54 bits (the value e at that point contains the "true"
 508:fpr.c         **** 	 * exponent, but q is now considered an integer, i.e. scaled
 509:fpr.c         **** 	 * up.
 510:fpr.c         **** 	 */
 511:fpr.c         **** 	e -= 54;
 2589              		.loc 2 511 4
 2590 0280 D7F8D430 		ldr	r3, [r7, #212]
 2591 0284 363B     		subs	r3, r3, #54
 2592 0286 C7F8D430 		str	r3, [r7, #212]
 512:fpr.c         **** 
 513:fpr.c         **** 	/*
 514:fpr.c         **** 	 * Corrective action for an operand of value zero.
 515:fpr.c         **** 	 */
 516:fpr.c         **** 	q &= -(uint64_t)((ex + 0x7FF) >> 11);
 2593              		.loc 2 516 23
 2594 028a D7F8D830 		ldr	r3, [r7, #216]
 2595 028e 03F2FF73 		addw	r3, r3, #2047
 2596              		.loc 2 516 32
 2597 0292 DB12     		asrs	r3, r3, #11
 2598              		.loc 2 516 8
 2599 0294 DA17     		asrs	r2, r3, #31
 2600 0296 BB66     		str	r3, [r7, #104]
 2601 0298 FA66     		str	r2, [r7, #108]
 2602              		.loc 2 516 7
 2603 029a 0023     		movs	r3, #0
 2604 029c D7E91A01 		ldrd	r0, [r7, #104]
 2605 02a0 0246     		mov	r2, r0
 2606 02a2 5242     		negs	r2, r2
 2607 02a4 3A66     		str	r2, [r7, #96]
 2608 02a6 0A46     		mov	r2, r1
 2609 02a8 63EB0203 		sbc	r3, r3, r2
 2610 02ac 7B66     		str	r3, [r7, #100]
 2611              		.loc 2 516 4
 2612 02ae D7E93C23 		ldrd	r2, [r7, #240]
 2613 02b2 D7E91801 		ldrd	r0, [r7, #96]
 2614 02b6 0446     		mov	r4, r0
 2615 02b8 1440     		ands	r4, r4, r2
 2616 02ba 3C60     		str	r4, [r7]
 2617 02bc 1940     		ands	r1, r1, r3
 2618 02be 7960     		str	r1, [r7, #4]
 2619 02c0 D7E90034 		ldrd	r3, [r7]
 2620 02c4 C7E93C34 		strd	r3, [r7, #240]
 517:fpr.c         **** 
 518:fpr.c         **** 	/*
 519:fpr.c         **** 	 * Apply rounding and back result.
 520:fpr.c         **** 	 */
 521:fpr.c         **** 	return FPR(0, e, q);
 2621              		.loc 2 521 9
 2622 02c8 D7E93C23 		ldrd	r2, [r7, #240]
 2623 02cc D7F8D410 		ldr	r1, [r7, #212]
 2624 02d0 0020     		movs	r0, #0
 2625 02d2 FFF7FEFF 		bl	FPR
 2626 02d6 0246     		mov	r2, r0
 2627 02d8 0B46     		mov	r3, r1
 522:fpr.c         **** }
 2628              		.loc 2 522 1
 2629 02da 1046     		mov	r0, r2
 2630 02dc 1946     		mov	r1, r3
 2631 02de 07F58077 		add	r7, r7, #256
 2632              	.LCFI48:
 2633              		.cfi_def_cfa_offset 32
 2634 02e2 BD46     		mov	sp, r7
 2635              	.LCFI49:
 2636              		.cfi_def_cfa_register 13
 2637              		@ sp needed
 2638 02e4 BDE8B08F 		pop	{r4, r5, r7, r8, r9, r10, fp, pc}
 2639              		.cfi_endproc
 2640              	.LFE22:
 2642              		.section	.text.falcon_inner_fpr_expm_p63,"ax",%progbits
 2643              		.align	1
 2644              		.global	falcon_inner_fpr_expm_p63
 2645              		.syntax unified
 2646              		.thumb
 2647              		.thumb_func
 2648              		.fpu softvfp
 2650              	falcon_inner_fpr_expm_p63:
 2651              	.LFB23:
 523:fpr.c         **** 
 524:fpr.c         **** 
 525:fpr.c         **** uint64_t
 526:fpr.c         **** fpr_expm_p63(fpr x, fpr ccs)
 527:fpr.c         **** {
 2652              		.loc 2 527 1
 2653              		.cfi_startproc
 2654              		@ args = 0, pretend = 0, frame = 384
 2655              		@ frame_needed = 1, uses_anonymous_args = 0
 2656 0000 2DE9B04F 		push	{r4, r5, r7, r8, r9, r10, fp, lr}
 2657              	.LCFI50:
 2658              		.cfi_def_cfa_offset 32
 2659              		.cfi_offset 4, -32
 2660              		.cfi_offset 5, -28
 2661              		.cfi_offset 7, -24
 2662              		.cfi_offset 8, -20
 2663              		.cfi_offset 9, -16
 2664              		.cfi_offset 10, -12
 2665              		.cfi_offset 11, -8
 2666              		.cfi_offset 14, -4
 2667 0004 E0B0     		sub	sp, sp, #384
 2668              	.LCFI51:
 2669              		.cfi_def_cfa_offset 416
 2670 0006 00AF     		add	r7, sp, #0
 2671              	.LCFI52:
 2672              		.cfi_def_cfa_register 7
 2673 0008 C7E94E01 		strd	r0, [r7, #312]
 2674 000c C7E94C23 		strd	r2, [r7, #304]
 528:fpr.c         **** 	/*
 529:fpr.c         **** 	 * Polynomial approximation of exp(-x) is taken from FACCT:
 530:fpr.c         **** 	 *   https://eprint.iacr.org/2018/1234
 531:fpr.c         **** 	 * Specifically, values are extracted from the implementation
 532:fpr.c         **** 	 * referenced from the FACCT article, and available at:
 533:fpr.c         **** 	 *   https://github.com/raykzhao/gaussian
 534:fpr.c         **** 	 * Here, the coefficients have been scaled up by 2^63 and
 535:fpr.c         **** 	 * converted to integers.
 536:fpr.c         **** 	 *
 537:fpr.c         **** 	 * Tests over more than 24 billions of random inputs in the
 538:fpr.c         **** 	 * 0..log(2) range have never shown a deviation larger than
 539:fpr.c         **** 	 * 2^(-50) from the true mathematical value.
 540:fpr.c         **** 	 */
 541:fpr.c         **** 	static const uint64_t C[] = {
 542:fpr.c         **** 		0x00000004741183A3u,
 543:fpr.c         **** 		0x00000036548CFC06u,
 544:fpr.c         **** 		0x0000024FDCBF140Au,
 545:fpr.c         **** 		0x0000171D939DE045u,
 546:fpr.c         **** 		0x0000D00CF58F6F84u,
 547:fpr.c         **** 		0x000680681CF796E3u,
 548:fpr.c         **** 		0x002D82D8305B0FEAu,
 549:fpr.c         **** 		0x011111110E066FD0u,
 550:fpr.c         **** 		0x0555555555070F00u,
 551:fpr.c         **** 		0x155555555581FF00u,
 552:fpr.c         **** 		0x400000000002B400u,
 553:fpr.c         **** 		0x7FFFFFFFFFFF4800u,
 554:fpr.c         **** 		0x8000000000000000u
 555:fpr.c         **** 	};
 556:fpr.c         **** 
 557:fpr.c         **** 	uint64_t z, y;
 558:fpr.c         **** 	unsigned u;
 559:fpr.c         **** 	uint32_t z0, z1, y0, y1;
 560:fpr.c         **** 	uint64_t a, b;
 561:fpr.c         **** 
 562:fpr.c         **** 	y = C[0];
 2675              		.loc 2 562 4
 2676 0010 0E4B     		ldr	r3, .L27
 2677 0012 D3E90023 		ldrd	r2, [r3]
 2678 0016 C7E95E23 		strd	r2, [r7, #376]
 563:fpr.c         **** 	z = (uint64_t)fpr_trunc(fpr_mul(x, fpr_ptwo63)) << 1;
 2679              		.loc 2 563 16
 2680 001a 4FF00002 		mov	r2, #0
 2681 001e 0C4B     		ldr	r3, .L27+4
 2682 0020 D7E94E01 		ldrd	r0, [r7, #312]
 2683 0024 FFF7FEFF 		bl	falcon_inner_fpr_mul
 2684 0028 0246     		mov	r2, r0
 2685 002a 0B46     		mov	r3, r1
 2686 002c 1046     		mov	r0, r2
 2687 002e 1946     		mov	r1, r3
 2688 0030 FFF7FEFF 		bl	fpr_trunc
 2689 0034 0246     		mov	r2, r0
 2690 0036 0B46     		mov	r3, r1
 2691              		.loc 2 563 4
 2692 0038 9418     		adds	r4, r2, r2
 2693 003a 43EB0305 		adc	r5, r3, r3
 2694 003e C7E95A45 		strd	r4, [r7, #360]
 564:fpr.c         **** 	for (u = 1; u < (sizeof C) / sizeof(C[0]); u ++) {
 2695              		.loc 2 564 9
 2696 0042 0123     		movs	r3, #1
 2697 0044 C7F87431 		str	r3, [r7, #372]
 2698              		.loc 2 564 2
 2699 0048 40E1     		b	.L24
 2700              	.L28:
 2701 004a 00BF     		.align	2
 2702              	.L27:
 2703 004c 98410000 		.word	C.0
 2704 0050 0000E043 		.word	1138753536
 2705              	.L25:
 2706              	.LBB6:
 565:fpr.c         **** 		/*
 566:fpr.c         **** 		 * Compute product z * y over 128 bits, but keep only
 567:fpr.c         **** 		 * the top 64 bits.
 568:fpr.c         **** 		 *
 569:fpr.c         **** 		 * TODO: On some architectures/compilers we could use
 570:fpr.c         **** 		 * some intrinsics (__umulh() on MSVC) or other compiler
 571:fpr.c         **** 		 * extensions (unsigned __int128 on GCC / Clang) for
 572:fpr.c         **** 		 * improved speed; however, most 64-bit architectures
 573:fpr.c         **** 		 * also have appropriate IEEE754 floating-point support,
 574:fpr.c         **** 		 * which is better.
 575:fpr.c         **** 		 */
 576:fpr.c         **** 		uint64_t c;
 577:fpr.c         **** 
 578:fpr.c         **** 		z0 = (uint32_t)z;
 2707              		.loc 2 578 6 discriminator 3
 2708 0054 D7F86831 		ldr	r3, [r7, #360]
 2709 0058 C7F86431 		str	r3, [r7, #356]
 579:fpr.c         **** 		z1 = (uint32_t)(z >> 32);
 2710              		.loc 2 579 21 discriminator 3
 2711 005c D7E95A23 		ldrd	r2, [r7, #360]
 2712 0060 4FF00000 		mov	r0, #0
 2713 0064 4FF00001 		mov	r1, #0
 2714 0068 1800     		movs	r0, r3
 2715 006a 0021     		movs	r1, #0
 2716              		.loc 2 579 6 discriminator 3
 2717 006c 0346     		mov	r3, r0
 2718 006e C7F86031 		str	r3, [r7, #352]
 580:fpr.c         **** 		y0 = (uint32_t)y;
 2719              		.loc 2 580 6 discriminator 3
 2720 0072 D7F87831 		ldr	r3, [r7, #376]
 2721 0076 C7F85C31 		str	r3, [r7, #348]
 581:fpr.c         **** 		y1 = (uint32_t)(y >> 32);
 2722              		.loc 2 581 21 discriminator 3
 2723 007a D7E95E23 		ldrd	r2, [r7, #376]
 2724 007e 4FF00000 		mov	r0, #0
 2725 0082 4FF00001 		mov	r1, #0
 2726 0086 1800     		movs	r0, r3
 2727 0088 0021     		movs	r1, #0
 2728              		.loc 2 581 6 discriminator 3
 2729 008a 0346     		mov	r3, r0
 2730 008c C7F85831 		str	r3, [r7, #344]
 582:fpr.c         **** 		a = ((uint64_t)z0 * (uint64_t)y1)
 2731              		.loc 2 582 8 discriminator 3
 2732 0090 D7F86431 		ldr	r3, [r7, #356]
 2733 0094 0022     		movs	r2, #0
 2734 0096 C7F8F830 		str	r3, [r7, #248]
 2735 009a C7F8FC20 		str	r2, [r7, #252]
 2736              		.loc 2 582 23 discriminator 3
 2737 009e D7F85831 		ldr	r3, [r7, #344]
 2738 00a2 0022     		movs	r2, #0
 2739 00a4 C7F8F030 		str	r3, [r7, #240]
 2740 00a8 C7F8F420 		str	r2, [r7, #244]
 2741              		.loc 2 582 21 discriminator 3
 2742 00ac D7E93E01 		ldrd	r0, [r7, #248]
 2743 00b0 0B46     		mov	r3, r1
 2744 00b2 D7E93C45 		ldrd	r4, [r7, #240]
 2745 00b6 2246     		mov	r2, r4
 2746 00b8 02FB03F2 		mul	r2, r2, r3
 2747 00bc 2B46     		mov	r3, r5
 2748 00be 8446     		mov	ip, r0
 2749 00c0 0CFB03F3 		mul	r3, ip, r3
 2750 00c4 1344     		add	r3, r3, r2
 2751 00c6 0246     		mov	r2, r0
 2752 00c8 2146     		mov	r1, r4
 2753 00ca A2FB0121 		umull	r2, r1, r2, r1
 2754 00ce C7F82C11 		str	r1, [r7, #300]
 2755 00d2 C7F82821 		str	r2, [r7, #296]
 2756 00d6 D7F82C21 		ldr	r2, [r7, #300]
 2757 00da 1344     		add	r3, r3, r2
 2758 00dc C7F82C31 		str	r3, [r7, #300]
 583:fpr.c         **** 			+ (((uint64_t)z0 * (uint64_t)y0) >> 32);
 2759              		.loc 2 583 8 discriminator 3
 2760 00e0 D7F86431 		ldr	r3, [r7, #356]
 2761 00e4 0022     		movs	r2, #0
 2762 00e6 C7F8E830 		str	r3, [r7, #232]
 2763 00ea C7F8EC20 		str	r2, [r7, #236]
 2764              		.loc 2 583 23 discriminator 3
 2765 00ee D7F85C31 		ldr	r3, [r7, #348]
 2766 00f2 0022     		movs	r2, #0
 2767 00f4 C7F8E030 		str	r3, [r7, #224]
 2768 00f8 C7F8E420 		str	r2, [r7, #228]
 2769              		.loc 2 583 21 discriminator 3
 2770 00fc D7E93A01 		ldrd	r0, [r7, #232]
 2771 0100 0B46     		mov	r3, r1
 2772 0102 D7E93845 		ldrd	r4, [r7, #224]
 2773 0106 2246     		mov	r2, r4
 2774 0108 02FB03F2 		mul	r2, r2, r3
 2775 010c 2B46     		mov	r3, r5
 2776 010e 8446     		mov	ip, r0
 2777 0110 0CFB03F3 		mul	r3, ip, r3
 2778 0114 1344     		add	r3, r3, r2
 2779 0116 0246     		mov	r2, r0
 2780 0118 2146     		mov	r1, r4
 2781 011a A2FB0121 		umull	r2, r1, r2, r1
 2782 011e C7F82411 		str	r1, [r7, #292]
 2783 0122 C7F82021 		str	r2, [r7, #288]
 2784 0126 D7F82421 		ldr	r2, [r7, #292]
 2785 012a 1344     		add	r3, r3, r2
 2786 012c C7F82431 		str	r3, [r7, #292]
 2787              		.loc 2 583 37 discriminator 3
 2788 0130 4FF00002 		mov	r2, #0
 2789 0134 4FF00003 		mov	r3, #0
 2790 0138 D7F82411 		ldr	r1, [r7, #292]
 2791 013c 0A00     		movs	r2, r1
 2792 013e 0023     		movs	r3, #0
 582:fpr.c         **** 		a = ((uint64_t)z0 * (uint64_t)y1)
 2793              		.loc 2 582 5 discriminator 3
 2794 0140 D7E94A45 		ldrd	r4, [r7, #296]
 2795 0144 2146     		mov	r1, r4
 2796 0146 8918     		adds	r1, r1, r2
 2797 0148 B964     		str	r1, [r7, #72]
 2798 014a 2946     		mov	r1, r5
 2799 014c 41EB0303 		adc	r3, r1, r3
 2800 0150 FB64     		str	r3, [r7, #76]
 2801 0152 D7E91234 		ldrd	r3, [r7, #72]
 2802 0156 C7E95434 		strd	r3, [r7, #336]
 584:fpr.c         **** 		b = ((uint64_t)z1 * (uint64_t)y0);
 2803              		.loc 2 584 8 discriminator 3
 2804 015a D7F86031 		ldr	r3, [r7, #352]
 2805 015e 0022     		movs	r2, #0
 2806 0160 C7F8D830 		str	r3, [r7, #216]
 2807 0164 C7F8DC20 		str	r2, [r7, #220]
 2808              		.loc 2 584 23 discriminator 3
 2809 0168 D7F85C31 		ldr	r3, [r7, #348]
 2810 016c 0022     		movs	r2, #0
 2811 016e C7F8D030 		str	r3, [r7, #208]
 2812 0172 C7F8D420 		str	r2, [r7, #212]
 2813              		.loc 2 584 5 discriminator 3
 2814 0176 D7E93601 		ldrd	r0, [r7, #216]
 2815 017a 0B46     		mov	r3, r1
 2816 017c D7E93445 		ldrd	r4, [r7, #208]
 2817 0180 2246     		mov	r2, r4
 2818 0182 02FB03F2 		mul	r2, r2, r3
 2819 0186 2B46     		mov	r3, r5
 2820 0188 8446     		mov	ip, r0
 2821 018a 0CFB03F3 		mul	r3, ip, r3
 2822 018e 1344     		add	r3, r3, r2
 2823 0190 0246     		mov	r2, r0
 2824 0192 2146     		mov	r1, r4
 2825 0194 A2FB0121 		umull	r2, r1, r2, r1
 2826 0198 C7F80C11 		str	r1, [r7, #268]
 2827 019c C7F80821 		str	r2, [r7, #264]
 2828 01a0 D7F80C21 		ldr	r2, [r7, #268]
 2829 01a4 1344     		add	r3, r3, r2
 2830 01a6 C7F80C31 		str	r3, [r7, #268]
 2831 01aa D7E94234 		ldrd	r3, [r7, #264]
 2832 01ae C7E95234 		strd	r3, [r7, #328]
 2833 01b2 C7E95234 		strd	r3, [r7, #328]
 585:fpr.c         **** 		c = (a >> 32) + (b >> 32);
 2834              		.loc 2 585 10 discriminator 3
 2835 01b6 D7E95423 		ldrd	r2, [r7, #336]
 2836 01ba 4FF00004 		mov	r4, #0
 2837 01be 4FF00005 		mov	r5, #0
 2838 01c2 1C00     		movs	r4, r3
 2839 01c4 0025     		movs	r5, #0
 2840              		.loc 2 585 22 discriminator 3
 2841 01c6 D7E95223 		ldrd	r2, [r7, #328]
 2842 01ca 4FF00000 		mov	r0, #0
 2843 01ce 4FF00001 		mov	r1, #0
 2844 01d2 1800     		movs	r0, r3
 2845 01d4 0021     		movs	r1, #0
 2846              		.loc 2 585 5 discriminator 3
 2847 01d6 2318     		adds	r3, r4, r0
 2848 01d8 3B64     		str	r3, [r7, #64]
 2849 01da 45EB0103 		adc	r3, r5, r1
 2850 01de 7B64     		str	r3, [r7, #68]
 2851 01e0 D7E91034 		ldrd	r3, [r7, #64]
 2852 01e4 C7E95034 		strd	r3, [r7, #320]
 586:fpr.c         **** 		c += (((uint64_t)(uint32_t)a + (uint64_t)(uint32_t)b) >> 32);
 2853              		.loc 2 586 20 discriminator 3
 2854 01e8 D7F85031 		ldr	r3, [r7, #336]
 2855              		.loc 2 586 10 discriminator 3
 2856 01ec 0022     		movs	r2, #0
 2857 01ee C7F8C830 		str	r3, [r7, #200]
 2858 01f2 C7F8CC20 		str	r2, [r7, #204]
 2859              		.loc 2 586 44 discriminator 3
 2860 01f6 D7F84831 		ldr	r3, [r7, #328]
 2861              		.loc 2 586 34 discriminator 3
 2862 01fa 0022     		movs	r2, #0
 2863 01fc C7F8C030 		str	r3, [r7, #192]
 2864 0200 C7F8C420 		str	r2, [r7, #196]
 2865              		.loc 2 586 32 discriminator 3
 2866 0204 D7E93245 		ldrd	r4, [r7, #200]
 2867 0208 2346     		mov	r3, r4
 2868 020a D7E93001 		ldrd	r0, [r7, #192]
 2869 020e 0246     		mov	r2, r0
 2870 0210 9B18     		adds	r3, r3, r2
 2871 0212 C7F8B830 		str	r3, [r7, #184]
 2872 0216 2B46     		mov	r3, r5
 2873 0218 0A46     		mov	r2, r1
 2874 021a 5341     		adcs	r3, r3, r2
 2875 021c C7F8BC30 		str	r3, [r7, #188]
 2876              		.loc 2 586 57 discriminator 3
 2877 0220 4FF00000 		mov	r0, #0
 2878 0224 4FF00001 		mov	r1, #0
 2879 0228 D7F8BC30 		ldr	r3, [r7, #188]
 2880 022c 1800     		movs	r0, r3
 2881 022e 0021     		movs	r1, #0
 2882              		.loc 2 586 5 discriminator 3
 2883 0230 D7E95023 		ldrd	r2, [r7, #320]
 2884 0234 1418     		adds	r4, r2, r0
 2885 0236 BC63     		str	r4, [r7, #56]
 2886 0238 4B41     		adcs	r3, r3, r1
 2887 023a FB63     		str	r3, [r7, #60]
 2888 023c D7E90E34 		ldrd	r3, [r7, #56]
 2889 0240 C7E95034 		strd	r3, [r7, #320]
 587:fpr.c         **** 		c += (uint64_t)z1 * (uint64_t)y1;
 2890              		.loc 2 587 8 discriminator 3
 2891 0244 D7F86031 		ldr	r3, [r7, #352]
 2892 0248 0022     		movs	r2, #0
 2893 024a C7F8B030 		str	r3, [r7, #176]
 2894 024e C7F8B420 		str	r2, [r7, #180]
 2895              		.loc 2 587 23 discriminator 3
 2896 0252 D7F85831 		ldr	r3, [r7, #344]
 2897 0256 0022     		movs	r2, #0
 2898 0258 C7F8A830 		str	r3, [r7, #168]
 2899 025c C7F8AC20 		str	r2, [r7, #172]
 2900              		.loc 2 587 21 discriminator 3
 2901 0260 D7E92C01 		ldrd	r0, [r7, #176]
 2902 0264 0B46     		mov	r3, r1
 2903 0266 D7E92A45 		ldrd	r4, [r7, #168]
 2904 026a 2246     		mov	r2, r4
 2905 026c 02FB03F2 		mul	r2, r2, r3
 2906 0270 2B46     		mov	r3, r5
 2907 0272 8446     		mov	ip, r0
 2908 0274 0CFB03F3 		mul	r3, ip, r3
 2909 0278 1344     		add	r3, r3, r2
 2910 027a 0246     		mov	r2, r0
 2911 027c 2146     		mov	r1, r4
 2912 027e A2FB0189 		umull	r8, r9, r2, r1
 2913 0282 4B44     		add	r3, r3, r9
 2914 0284 9946     		mov	r9, r3
 2915              		.loc 2 587 5 discriminator 3
 2916 0286 D7E95023 		ldrd	r2, [r7, #320]
 2917 028a 12EB0801 		adds	r1, r2, r8
 2918 028e 3963     		str	r1, [r7, #48]
 2919 0290 43EB0903 		adc	r3, r3, r9
 2920 0294 7B63     		str	r3, [r7, #52]
 2921 0296 D7E90C34 		ldrd	r3, [r7, #48]
 2922 029a C7E95034 		strd	r3, [r7, #320]
 588:fpr.c         **** 		y = C[u] - c;
 2923              		.loc 2 588 8 discriminator 3
 2924 029e AF4A     		ldr	r2, .L29
 2925 02a0 D7F87431 		ldr	r3, [r7, #372]
 2926 02a4 DB00     		lsls	r3, r3, #3
 2927 02a6 1344     		add	r3, r3, r2
 2928 02a8 D3E90001 		ldrd	r0, [r3]
 2929              		.loc 2 588 5 discriminator 3
 2930 02ac D7E95023 		ldrd	r2, [r7, #320]
 2931 02b0 841A     		subs	r4, r0, r2
 2932 02b2 BC62     		str	r4, [r7, #40]
 2933 02b4 61EB0303 		sbc	r3, r1, r3
 2934 02b8 FB62     		str	r3, [r7, #44]
 2935 02ba D7E90A34 		ldrd	r3, [r7, #40]
 2936 02be C7E95E34 		strd	r3, [r7, #376]
 2937              	.LBE6:
 564:fpr.c         **** 		/*
 2938              		.loc 2 564 47 discriminator 3
 2939 02c2 D7F87431 		ldr	r3, [r7, #372]
 2940 02c6 0133     		adds	r3, r3, #1
 2941 02c8 C7F87431 		str	r3, [r7, #372]
 2942              	.L24:
 564:fpr.c         **** 		/*
 2943              		.loc 2 564 2 discriminator 1
 2944 02cc D7F87431 		ldr	r3, [r7, #372]
 2945 02d0 0C2B     		cmp	r3, #12
 2946 02d2 7FF6BFAE 		bls	.L25
 589:fpr.c         **** 	}
 590:fpr.c         **** 
 591:fpr.c         **** 	/*
 592:fpr.c         **** 	 * The scaling factor must be applied at the end. Since y is now
 593:fpr.c         **** 	 * in fixed-point notation, we have to convert the factor to the
 594:fpr.c         **** 	 * same format, and do an extra integer multiplication.
 595:fpr.c         **** 	 */
 596:fpr.c         **** 	z = (uint64_t)fpr_trunc(fpr_mul(ccs, fpr_ptwo63)) << 1;
 2947              		.loc 2 596 16
 2948 02d6 4FF00002 		mov	r2, #0
 2949 02da A14B     		ldr	r3, .L29+4
 2950 02dc D7E94C01 		ldrd	r0, [r7, #304]
 2951 02e0 FFF7FEFF 		bl	falcon_inner_fpr_mul
 2952 02e4 0246     		mov	r2, r0
 2953 02e6 0B46     		mov	r3, r1
 2954 02e8 1046     		mov	r0, r2
 2955 02ea 1946     		mov	r1, r3
 2956 02ec FFF7FEFF 		bl	fpr_trunc
 2957 02f0 0246     		mov	r2, r0
 2958 02f2 0B46     		mov	r3, r1
 2959              		.loc 2 596 4
 2960 02f4 9118     		adds	r1, r2, r2
 2961 02f6 3962     		str	r1, [r7, #32]
 2962 02f8 5B41     		adcs	r3, r3, r3
 2963 02fa 7B62     		str	r3, [r7, #36]
 2964 02fc D7E90834 		ldrd	r3, [r7, #32]
 2965 0300 C7E95A34 		strd	r3, [r7, #360]
 597:fpr.c         **** 	z0 = (uint32_t)z;
 2966              		.loc 2 597 5
 2967 0304 D7F86831 		ldr	r3, [r7, #360]
 2968 0308 C7F86431 		str	r3, [r7, #356]
 598:fpr.c         **** 	z1 = (uint32_t)(z >> 32);
 2969              		.loc 2 598 20
 2970 030c D7E95A23 		ldrd	r2, [r7, #360]
 2971 0310 4FF00000 		mov	r0, #0
 2972 0314 4FF00001 		mov	r1, #0
 2973 0318 1800     		movs	r0, r3
 2974 031a 0021     		movs	r1, #0
 2975              		.loc 2 598 5
 2976 031c 0346     		mov	r3, r0
 2977 031e C7F86031 		str	r3, [r7, #352]
 599:fpr.c         **** 	y0 = (uint32_t)y;
 2978              		.loc 2 599 5
 2979 0322 D7F87831 		ldr	r3, [r7, #376]
 2980 0326 C7F85C31 		str	r3, [r7, #348]
 600:fpr.c         **** 	y1 = (uint32_t)(y >> 32);
 2981              		.loc 2 600 20
 2982 032a D7E95E23 		ldrd	r2, [r7, #376]
 2983 032e 4FF00000 		mov	r0, #0
 2984 0332 4FF00001 		mov	r1, #0
 2985 0336 1800     		movs	r0, r3
 2986 0338 0021     		movs	r1, #0
 2987              		.loc 2 600 5
 2988 033a 0346     		mov	r3, r0
 2989 033c C7F85831 		str	r3, [r7, #344]
 601:fpr.c         **** 	a = ((uint64_t)z0 * (uint64_t)y1)
 2990              		.loc 2 601 7
 2991 0340 D7F86431 		ldr	r3, [r7, #356]
 2992 0344 0022     		movs	r2, #0
 2993 0346 C7F8A030 		str	r3, [r7, #160]
 2994 034a C7F8A420 		str	r2, [r7, #164]
 2995              		.loc 2 601 22
 2996 034e D7F85831 		ldr	r3, [r7, #344]
 2997 0352 0022     		movs	r2, #0
 2998 0354 C7F89830 		str	r3, [r7, #152]
 2999 0358 C7F89C20 		str	r2, [r7, #156]
 3000              		.loc 2 601 20
 3001 035c D7E92834 		ldrd	r3, [r7, #160]
 3002 0360 2246     		mov	r2, r4
 3003 0362 D7E92689 		ldrd	r8, [r7, #152]
 3004 0366 4146     		mov	r1, r8
 3005 0368 01FB02F2 		mul	r2, r1, r2
 3006 036c 4D46     		mov	r5, r9
 3007 036e 1846     		mov	r0, r3
 3008 0370 2146     		mov	r1, r4
 3009 0372 0346     		mov	r3, r0
 3010 0374 03FB05F3 		mul	r3, r3, r5
 3011 0378 1344     		add	r3, r3, r2
 3012 037a 0246     		mov	r2, r0
 3013 037c 4146     		mov	r1, r8
 3014 037e A2FB01AB 		umull	r10, fp, r2, r1
 3015 0382 5B44     		add	r3, r3, fp
 3016 0384 9B46     		mov	fp, r3
 602:fpr.c         **** 		+ (((uint64_t)z0 * (uint64_t)y0) >> 32);
 3017              		.loc 2 602 7
 3018 0386 D7F86431 		ldr	r3, [r7, #356]
 3019 038a 0022     		movs	r2, #0
 3020 038c C7F89030 		str	r3, [r7, #144]
 3021 0390 C7F89420 		str	r2, [r7, #148]
 3022              		.loc 2 602 22
 3023 0394 D7F85C31 		ldr	r3, [r7, #348]
 3024 0398 0022     		movs	r2, #0
 3025 039a C7F88830 		str	r3, [r7, #136]
 3026 039e C7F88C20 		str	r2, [r7, #140]
 3027              		.loc 2 602 20
 3028 03a2 D7E92434 		ldrd	r3, [r7, #144]
 3029 03a6 2246     		mov	r2, r4
 3030 03a8 D7E92289 		ldrd	r8, [r7, #136]
 3031 03ac 4146     		mov	r1, r8
 3032 03ae 01FB02F2 		mul	r2, r1, r2
 3033 03b2 4D46     		mov	r5, r9
 3034 03b4 1846     		mov	r0, r3
 3035 03b6 2146     		mov	r1, r4
 3036 03b8 0346     		mov	r3, r0
 3037 03ba 03FB05F3 		mul	r3, r3, r5
 3038 03be 1344     		add	r3, r3, r2
 3039 03c0 0246     		mov	r2, r0
 3040 03c2 4146     		mov	r1, r8
 3041 03c4 A2FB0121 		umull	r2, r1, r2, r1
 3042 03c8 C7F81C11 		str	r1, [r7, #284]
 3043 03cc C7F81821 		str	r2, [r7, #280]
 3044 03d0 D7F81C21 		ldr	r2, [r7, #284]
 3045 03d4 1344     		add	r3, r3, r2
 3046 03d6 C7F81C31 		str	r3, [r7, #284]
 3047              		.loc 2 602 36
 3048 03da 4FF00002 		mov	r2, #0
 3049 03de 4FF00003 		mov	r3, #0
 3050 03e2 D7F81C11 		ldr	r1, [r7, #284]
 3051 03e6 0A00     		movs	r2, r1
 3052 03e8 0023     		movs	r3, #0
 601:fpr.c         **** 	a = ((uint64_t)z0 * (uint64_t)y1)
 3053              		.loc 2 601 4
 3054 03ea 1AEB0201 		adds	r1, r10, r2
 3055 03ee B961     		str	r1, [r7, #24]
 3056 03f0 4BEB0303 		adc	r3, fp, r3
 3057 03f4 FB61     		str	r3, [r7, #28]
 3058 03f6 D7E90634 		ldrd	r3, [r7, #24]
 3059 03fa C7E95434 		strd	r3, [r7, #336]
 603:fpr.c         **** 	b = ((uint64_t)z1 * (uint64_t)y0);
 3060              		.loc 2 603 7
 3061 03fe D7F86031 		ldr	r3, [r7, #352]
 3062 0402 0022     		movs	r2, #0
 3063 0404 C7F88030 		str	r3, [r7, #128]
 3064 0408 C7F88420 		str	r2, [r7, #132]
 3065              		.loc 2 603 22
 3066 040c D7F85C31 		ldr	r3, [r7, #348]
 3067 0410 0022     		movs	r2, #0
 3068 0412 BB67     		str	r3, [r7, #120]
 3069 0414 FA67     		str	r2, [r7, #124]
 3070              		.loc 2 603 4
 3071 0416 D7E92034 		ldrd	r3, [r7, #128]
 3072 041a 2246     		mov	r2, r4
 3073 041c D7E91E89 		ldrd	r8, [r7, #120]
 3074 0420 4146     		mov	r1, r8
 3075 0422 01FB02F2 		mul	r2, r1, r2
 3076 0426 4D46     		mov	r5, r9
 3077 0428 1846     		mov	r0, r3
 3078 042a 2146     		mov	r1, r4
 3079 042c 0346     		mov	r3, r0
 3080 042e 03FB05F3 		mul	r3, r3, r5
 3081 0432 1344     		add	r3, r3, r2
 3082 0434 0246     		mov	r2, r0
 3083 0436 4146     		mov	r1, r8
 3084 0438 A2FB0121 		umull	r2, r1, r2, r1
 3085 043c C7F80411 		str	r1, [r7, #260]
 3086 0440 C7F80021 		str	r2, [r7, #256]
 3087 0444 D7F80421 		ldr	r2, [r7, #260]
 3088 0448 1344     		add	r3, r3, r2
 3089 044a C7F80431 		str	r3, [r7, #260]
 3090 044e D7E94034 		ldrd	r3, [r7, #256]
 3091 0452 C7E95234 		strd	r3, [r7, #328]
 3092 0456 C7E95234 		strd	r3, [r7, #328]
 604:fpr.c         **** 	y = (a >> 32) + (b >> 32);
 3093              		.loc 2 604 9
 3094 045a D7E95423 		ldrd	r2, [r7, #336]
 3095 045e 4FF00004 		mov	r4, #0
 3096 0462 4FF00005 		mov	r5, #0
 3097 0466 1C00     		movs	r4, r3
 3098 0468 0025     		movs	r5, #0
 3099              		.loc 2 604 21
 3100 046a D7E95223 		ldrd	r2, [r7, #328]
 3101 046e 4FF00000 		mov	r0, #0
 3102 0472 4FF00001 		mov	r1, #0
 3103 0476 1800     		movs	r0, r3
 3104 0478 0021     		movs	r1, #0
 3105              		.loc 2 604 4
 3106 047a 2318     		adds	r3, r4, r0
 3107 047c 3B61     		str	r3, [r7, #16]
 3108 047e 45EB0103 		adc	r3, r5, r1
 3109 0482 7B61     		str	r3, [r7, #20]
 3110 0484 D7E90434 		ldrd	r3, [r7, #16]
 3111 0488 C7E95E34 		strd	r3, [r7, #376]
 605:fpr.c         **** 	y += (((uint64_t)(uint32_t)a + (uint64_t)(uint32_t)b) >> 32);
 3112              		.loc 2 605 19
 3113 048c D7F85031 		ldr	r3, [r7, #336]
 3114              		.loc 2 605 9
 3115 0490 0022     		movs	r2, #0
 3116 0492 3B67     		str	r3, [r7, #112]
 3117 0494 7A67     		str	r2, [r7, #116]
 3118              		.loc 2 605 43
 3119 0496 D7F84831 		ldr	r3, [r7, #328]
 3120              		.loc 2 605 33
 3121 049a 0022     		movs	r2, #0
 3122 049c BB66     		str	r3, [r7, #104]
 3123 049e FA66     		str	r2, [r7, #108]
 3124              		.loc 2 605 31
 3125 04a0 D7E91C45 		ldrd	r4, [r7, #112]
 3126 04a4 2346     		mov	r3, r4
 3127 04a6 D7E91A01 		ldrd	r0, [r7, #104]
 3128 04aa 0246     		mov	r2, r0
 3129 04ac 9B18     		adds	r3, r3, r2
 3130 04ae 3B66     		str	r3, [r7, #96]
 3131 04b0 0B46     		mov	r3, r1
 3132 04b2 2A46     		mov	r2, r5
 3133 04b4 42EB0303 		adc	r3, r2, r3
 3134 04b8 7B66     		str	r3, [r7, #100]
 3135              		.loc 2 605 56
 3136 04ba 4FF00002 		mov	r2, #0
 3137 04be 4FF00003 		mov	r3, #0
 3138 04c2 796E     		ldr	r1, [r7, #100]
 3139 04c4 0A00     		movs	r2, r1
 3140 04c6 0023     		movs	r3, #0
 3141              		.loc 2 605 4
 3142 04c8 D7E95E01 		ldrd	r0, [r7, #376]
 3143 04cc 8418     		adds	r4, r0, r2
 3144 04ce BC60     		str	r4, [r7, #8]
 3145 04d0 41EB0303 		adc	r3, r1, r3
 3146 04d4 FB60     		str	r3, [r7, #12]
 3147 04d6 D7E90234 		ldrd	r3, [r7, #8]
 3148 04da C7E95E34 		strd	r3, [r7, #376]
 606:fpr.c         **** 	y += (uint64_t)z1 * (uint64_t)y1;
 3149              		.loc 2 606 7
 3150 04de D7F86031 		ldr	r3, [r7, #352]
 3151 04e2 0022     		movs	r2, #0
 3152 04e4 BB65     		str	r3, [r7, #88]
 3153 04e6 FA65     		str	r2, [r7, #92]
 3154              		.loc 2 606 22
 3155 04e8 D7F85831 		ldr	r3, [r7, #344]
 3156 04ec 0022     		movs	r2, #0
 3157 04ee 3B65     		str	r3, [r7, #80]
 3158 04f0 7A65     		str	r2, [r7, #84]
 3159              		.loc 2 606 20
 3160 04f2 D7E91634 		ldrd	r3, [r7, #88]
 3161 04f6 2246     		mov	r2, r4
 3162 04f8 D7E91489 		ldrd	r8, [r7, #80]
 3163 04fc 4146     		mov	r1, r8
 3164 04fe 01FB02F2 		mul	r2, r1, r2
 3165 0502 4D46     		mov	r5, r9
 3166 0504 1846     		mov	r0, r3
 3167 0506 2146     		mov	r1, r4
 3168 0508 0346     		mov	r3, r0
 3169 050a 03FB05F3 		mul	r3, r3, r5
 3170 050e 1344     		add	r3, r3, r2
 3171 0510 0246     		mov	r2, r0
 3172 0512 4146     		mov	r1, r8
 3173 0514 A2FB0121 		umull	r2, r1, r2, r1
 3174 0518 C7F81411 		str	r1, [r7, #276]
 3175 051c C7F81021 		str	r2, [r7, #272]
 3176 0520 D7F81421 		ldr	r2, [r7, #276]
 3177 0524 1344     		add	r3, r3, r2
 3178 0526 C7F81431 		str	r3, [r7, #276]
 3179              		.loc 2 606 4
 3180 052a D7E95E23 		ldrd	r2, [r7, #376]
 3181 052e D7E94445 		ldrd	r4, [r7, #272]
 3182 0532 2146     		mov	r1, r4
 3183 0534 5118     		adds	r1, r2, r1
 3184 0536 3960     		str	r1, [r7]
 3185 0538 2946     		mov	r1, r5
 3186 053a 43EB0101 		adc	r1, r3, r1
 3187 053e 7960     		str	r1, [r7, #4]
 3188 0540 D7E90034 		ldrd	r3, [r7]
 3189 0544 C7E95E34 		strd	r3, [r7, #376]
 607:fpr.c         **** 
 608:fpr.c         **** 	return y;
 3190              		.loc 2 608 9
 3191 0548 D7E95E23 		ldrd	r2, [r7, #376]
 609:fpr.c         **** }
 3192              		.loc 2 609 1
 3193 054c 1046     		mov	r0, r2
 3194 054e 1946     		mov	r1, r3
 3195 0550 07F5C077 		add	r7, r7, #384
 3196              	.LCFI53:
 3197              		.cfi_def_cfa_offset 32
 3198 0554 BD46     		mov	sp, r7
 3199              	.LCFI54:
 3200              		.cfi_def_cfa_register 13
 3201              		@ sp needed
 3202 0556 BDE8B08F 		pop	{r4, r5, r7, r8, r9, r10, fp, pc}
 3203              	.L30:
 3204 055a 00BF     		.align	2
 3205              	.L29:
 3206 055c 98410000 		.word	C.0
 3207 0560 0000E043 		.word	1138753536
 3208              		.cfi_endproc
 3209              	.LFE23:
 3211              		.global	falcon_inner_fpr_gm_tab
 3212              		.section	.rodata
 3213              		.align	3
 3216              	falcon_inner_fpr_gm_tab:
 3217 0140 00000000 		.word	0
 3218 0144 00000000 		.word	0
 3219 0148 00000000 		.word	0
 3220 014c 00000000 		.word	0
 3221 0150 00000000 		.word	0
 3222 0154 00000080 		.word	-2147483648
 3223 0158 00000000 		.word	0
 3224 015c 0000F03F 		.word	1072693248
 3225 0160 CD3B7F66 		.word	1719614413
 3226 0164 9EA0E63F 		.word	1072079006
 3227 0168 CD3B7F66 		.word	1719614413
 3228 016c 9EA0E63F 		.word	1072079006
 3229 0170 CD3B7F66 		.word	1719614413
 3230 0174 9EA0E6BF 		.word	-1075404642
 3231 0178 CD3B7F66 		.word	1719614413
 3232 017c 9EA0E63F 		.word	1072079006
 3233 0180 468D32CF 		.word	-818770618
 3234 0184 6B90ED3F 		.word	1072533611
 3235 0188 63A9AEA6 		.word	-1498502813
 3236 018c E27DD83F 		.word	1071152610
 3237 0190 63A9AEA6 		.word	-1498502813
 3238 0194 E27DD8BF 		.word	-1076331038
 3239 0198 468D32CF 		.word	-818770618
 3240 019c 6B90ED3F 		.word	1072533611
 3241 01a0 63A9AEA6 		.word	-1498502813
 3242 01a4 E27DD83F 		.word	1071152610
 3243 01a8 468D32CF 		.word	-818770618
 3244 01ac 6B90ED3F 		.word	1072533611
 3245 01b0 468D32CF 		.word	-818770618
 3246 01b4 6B90EDBF 		.word	-1074950037
 3247 01b8 63A9AEA6 		.word	-1498502813
 3248 01bc E27DD83F 		.word	1071152610
 3249 01c0 B05CF7CF 		.word	-805872464
 3250 01c4 9762EF3F 		.word	1072652951
 3251 01c8 0BA6693C 		.word	1013556747
 3252 01cc B8F8C83F 		.word	1070135480
 3253 01d0 0BA6693C 		.word	1013556747
 3254 01d4 B8F8C8BF 		.word	-1077348168
 3255 01d8 B05CF7CF 		.word	-805872464
 3256 01dc 9762EF3F 		.word	1072652951
 3257 01e0 C868AE39 		.word	967731400
 3258 01e4 3BC7E13F 		.word	1071761211
 3259 01e8 A3A10E29 		.word	688824739
 3260 01ec 669BEA3F 		.word	1072339814
 3261 01f0 A3A10E29 		.word	688824739
 3262 01f4 669BEABF 		.word	-1075143834
 3263 01f8 C868AE39 		.word	967731400
 3264 01fc 3BC7E13F 		.word	1071761211
 3265 0200 A3A10E29 		.word	688824739
 3266 0204 669BEA3F 		.word	1072339814
 3267 0208 C868AE39 		.word	967731400
 3268 020c 3BC7E13F 		.word	1071761211
 3269 0210 C868AE39 		.word	967731400
 3270 0214 3BC7E1BF 		.word	-1075722437
 3271 0218 A3A10E29 		.word	688824739
 3272 021c 669BEA3F 		.word	1072339814
 3273 0220 0BA6693C 		.word	1013556747
 3274 0224 B8F8C83F 		.word	1070135480
 3275 0228 B05CF7CF 		.word	-805872464
 3276 022c 9762EF3F 		.word	1072652951
 3277 0230 B05CF7CF 		.word	-805872464
 3278 0234 9762EFBF 		.word	-1074830697
 3279 0238 0BA6693C 		.word	1013556747
 3280 023c B8F8C83F 		.word	1070135480
 3281 0240 2625D1A3 		.word	-1546574554
 3282 0244 8DD8EF3F 		.word	1072683149
 3283 0248 2CB429BC 		.word	-1138117588
 3284 024c A617B93F 		.word	1069094822
 3285 0250 2CB429BC 		.word	-1138117588
 3286 0254 A617B9BF 		.word	-1078388826
 3287 0258 2625D1A3 		.word	-1546574554
 3288 025c 8DD8EF3F 		.word	1072683149
 3289 0260 D61D0925 		.word	621354454
 3290 0264 F34CE43F 		.word	1071926515
 3291 0268 4117156B 		.word	1796544321
 3292 026c 80BCE83F 		.word	1072217216
 3293 0270 4117156B 		.word	1796544321
 3294 0274 80BCE8BF 		.word	-1075266432
 3295 0278 D61D0925 		.word	621354454
 3296 027c F34CE43F 		.word	1071926515
 3297 0280 B1BD80F1 		.word	-243221071
 3298 0284 B238EC3F 		.word	1072445618
 3299 0288 3BF60638 		.word	939980347
 3300 028c 5D2BDE3F 		.word	1071524701
 3301 0290 3BF60638 		.word	939980347
 3302 0294 5D2BDEBF 		.word	-1075958947
 3303 0298 B1BD80F1 		.word	-243221071
 3304 029c B238EC3F 		.word	1072445618
 3305 02a0 069FD52E 		.word	785751814
 3306 02a4 0694D23F 		.word	1070765062
 3307 02a8 DA2DC656 		.word	1455828442
 3308 02ac 419FEE3F 		.word	1072602945
 3309 02b0 DA2DC656 		.word	1455828442
 3310 02b4 419FEEBF 		.word	-1074880703
 3311 02b8 069FD52E 		.word	785751814
 3312 02bc 0694D23F 		.word	1070765062
 3313 02c0 DA2DC656 		.word	1455828442
 3314 02c4 419FEE3F 		.word	1072602945
 3315 02c8 069FD52E 		.word	785751814
 3316 02cc 0694D23F 		.word	1070765062
 3317 02d0 069FD52E 		.word	785751814
 3318 02d4 0694D2BF 		.word	-1076718586
 3319 02d8 DA2DC656 		.word	1455828442
 3320 02dc 419FEE3F 		.word	1072602945
 3321 02e0 3BF60638 		.word	939980347
 3322 02e4 5D2BDE3F 		.word	1071524701
 3323 02e8 B1BD80F1 		.word	-243221071
 3324 02ec B238EC3F 		.word	1072445618
 3325 02f0 B1BD80F1 		.word	-243221071
 3326 02f4 B238ECBF 		.word	-1075038030
 3327 02f8 3BF60638 		.word	939980347
 3328 02fc 5D2BDE3F 		.word	1071524701
 3329 0300 4117156B 		.word	1796544321
 3330 0304 80BCE83F 		.word	1072217216
 3331 0308 D61D0925 		.word	621354454
 3332 030c F34CE43F 		.word	1071926515
 3333 0310 D61D0925 		.word	621354454
 3334 0314 F34CE4BF 		.word	-1075557133
 3335 0318 4117156B 		.word	1796544321
 3336 031c 80BCE83F 		.word	1072217216
 3337 0320 2CB429BC 		.word	-1138117588
 3338 0324 A617B93F 		.word	1069094822
 3339 0328 2625D1A3 		.word	-1546574554
 3340 032c 8DD8EF3F 		.word	1072683149
 3341 0330 2625D1A3 		.word	-1546574554
 3342 0334 8DD8EFBF 		.word	-1074800499
 3343 0338 2CB429BC 		.word	-1138117588
 3344 033c A617B93F 		.word	1069094822
 3345 0340 7E6D79E3 		.word	-478581378
 3346 0344 21F6EF3F 		.word	1072690721
 3347 0348 14D80DF1 		.word	-250750956
 3348 034c 651FA93F 		.word	1068048229
 3349 0350 14D80DF1 		.word	-250750956
 3350 0354 651FA9BF 		.word	-1079435419
 3351 0358 7E6D79E3 		.word	-478581378
 3352 035c 21F6EF3F 		.word	1072690721
 3353 0360 A0EC8C34 		.word	881650848
 3354 0364 697DE53F 		.word	1072004457
 3355 0368 AFAF6A22 		.word	577417135
 3356 036c DFB5E73F 		.word	1072149983
 3357 0370 AFAF6A22 		.word	577417135
 3358 0374 DFB5E7BF 		.word	-1075333665
 3359 0378 A0EC8C34 		.word	881650848
 3360 037c 697DE53F 		.word	1072004457
 3361 0380 73C73CF4 		.word	-197343373
 3362 0384 7AEDEC3F 		.word	1072491898
 3363 0388 C05CE109 		.word	165764288
 3364 038c 105DDB3F 		.word	1071340816
 3365 0390 C05CE109 		.word	165764288
 3366 0394 105DDBBF 		.word	-1076142832
 3367 0398 73C73CF4 		.word	-197343373
 3368 039c 7AEDEC3F 		.word	1072491898
 3369 03a0 DD1FAB75 		.word	1974149085
 3370 03a4 9A8FD53F 		.word	1070960538
 3371 03a8 E586F604 		.word	83265253
 3372 03ac 2121EE3F 		.word	1072570657
 3373 03b0 E586F604 		.word	83265253
 3374 03b4 2121EEBF 		.word	-1074912991
 3375 03b8 DD1FAB75 		.word	1974149085
 3376 03bc 9A8FD53F 		.word	1070960538
 3377 03c0 D73092FB 		.word	-74305321
 3378 03c4 7E0AEF3F 		.word	1072630398
 3379 03c8 1B5F217B 		.word	2065784603
 3380 03cc F919CF3F 		.word	1070537209
 3381 03d0 1B5F217B 		.word	2065784603
 3382 03d4 F919CFBF 		.word	-1076946439
 3383 03d8 D73092FB 		.word	-74305321
 3384 03dc 7E0AEF3F 		.word	1072630398
 3385 03e0 EEFF2299 		.word	-1725759506
 3386 03e4 8773E03F 		.word	1071674247
 3387 03e8 3E6E1945 		.word	1159294526
 3388 03ec 8372EB3F 		.word	1072394883
 3389 03f0 3E6E1945 		.word	1159294526
 3390 03f4 8372EBBF 		.word	-1075088765
 3391 03f8 EEFF2299 		.word	-1725759506
 3392 03fc 8773E03F 		.word	1071674247
 3393 0400 4187F347 		.word	1207142209
 3394 0404 E0B3E93F 		.word	1072280544
 3395 0408 3570E1FC 		.word	-52334539
 3396 040c F70FE33F 		.word	1071845367
 3397 0410 3570E1FC 		.word	-52334539
 3398 0414 F70FE3BF 		.word	-1075638281
 3399 0418 4187F347 		.word	1207142209
 3400 041c E0B3E93F 		.word	1072280544
 3401 0420 3A618E6E 		.word	1854824762
 3402 0424 10C8C23F 		.word	1069729808
 3403 0428 17A5087F 		.word	2131272983
 3404 042c 55A7EF3F 		.word	1072670549
 3405 0430 17A5087F 		.word	2131272983
 3406 0434 55A7EFBF 		.word	-1074813099
 3407 0438 3A618E6E 		.word	1854824762
 3408 043c 10C8C23F 		.word	1069729808
 3409 0440 17A5087F 		.word	2131272983
 3410 0444 55A7EF3F 		.word	1072670549
 3411 0448 3A618E6E 		.word	1854824762
 3412 044c 10C8C23F 		.word	1069729808
 3413 0450 3A618E6E 		.word	1854824762
 3414 0454 10C8C2BF 		.word	-1077753840
 3415 0458 17A5087F 		.word	2131272983
 3416 045c 55A7EF3F 		.word	1072670549
 3417 0460 3570E1FC 		.word	-52334539
 3418 0464 F70FE33F 		.word	1071845367
 3419 0468 4187F347 		.word	1207142209
 3420 046c E0B3E93F 		.word	1072280544
 3421 0470 4187F347 		.word	1207142209
 3422 0474 E0B3E9BF 		.word	-1075203104
 3423 0478 3570E1FC 		.word	-52334539
 3424 047c F70FE33F 		.word	1071845367
 3425 0480 3E6E1945 		.word	1159294526
 3426 0484 8372EB3F 		.word	1072394883
 3427 0488 EEFF2299 		.word	-1725759506
 3428 048c 8773E03F 		.word	1071674247
 3429 0490 EEFF2299 		.word	-1725759506
 3430 0494 8773E0BF 		.word	-1075809401
 3431 0498 3E6E1945 		.word	1159294526
 3432 049c 8372EB3F 		.word	1072394883
 3433 04a0 1B5F217B 		.word	2065784603
 3434 04a4 F919CF3F 		.word	1070537209
 3435 04a8 D73092FB 		.word	-74305321
 3436 04ac 7E0AEF3F 		.word	1072630398
 3437 04b0 D73092FB 		.word	-74305321
 3438 04b4 7E0AEFBF 		.word	-1074853250
 3439 04b8 1B5F217B 		.word	2065784603
 3440 04bc F919CF3F 		.word	1070537209
 3441 04c0 E586F604 		.word	83265253
 3442 04c4 2121EE3F 		.word	1072570657
 3443 04c8 DD1FAB75 		.word	1974149085
 3444 04cc 9A8FD53F 		.word	1070960538
 3445 04d0 DD1FAB75 		.word	1974149085
 3446 04d4 9A8FD5BF 		.word	-1076523110
 3447 04d8 E586F604 		.word	83265253
 3448 04dc 2121EE3F 		.word	1072570657
 3449 04e0 C05CE109 		.word	165764288
 3450 04e4 105DDB3F 		.word	1071340816
 3451 04e8 73C73CF4 		.word	-197343373
 3452 04ec 7AEDEC3F 		.word	1072491898
 3453 04f0 73C73CF4 		.word	-197343373
 3454 04f4 7AEDECBF 		.word	-1074991750
 3455 04f8 C05CE109 		.word	165764288
 3456 04fc 105DDB3F 		.word	1071340816
 3457 0500 AFAF6A22 		.word	577417135
 3458 0504 DFB5E73F 		.word	1072149983
 3459 0508 A0EC8C34 		.word	881650848
 3460 050c 697DE53F 		.word	1072004457
 3461 0510 A0EC8C34 		.word	881650848
 3462 0514 697DE5BF 		.word	-1075479191
 3463 0518 AFAF6A22 		.word	577417135
 3464 051c DFB5E73F 		.word	1072149983
 3465 0520 14D80DF1 		.word	-250750956
 3466 0524 651FA93F 		.word	1068048229
 3467 0528 7E6D79E3 		.word	-478581378
 3468 052c 21F6EF3F 		.word	1072690721
 3469 0530 7E6D79E3 		.word	-478581378
 3470 0534 21F6EFBF 		.word	-1074792927
 3471 0538 14D80DF1 		.word	-250750956
 3472 053c 651FA93F 		.word	1068048229
 3473 0540 0DCD8460 		.word	1619315981
 3474 0544 88FDEF3F 		.word	1072692616
 3475 0548 7E66A3F7 		.word	-140286338
 3476 054c 5521993F 		.word	1067000149
 3477 0550 7E66A3F7 		.word	-140286338
 3478 0554 552199BF 		.word	-1080483499
 3479 0558 0DCD8460 		.word	1619315981
 3480 055c 88FDEF3F 		.word	1072692616
 3481 0560 DF2C1D55 		.word	1427975391
 3482 0564 B710E63F 		.word	1072042167
 3483 0568 96FFEF37 		.word	938475414
 3484 056c 082DE73F 		.word	1072114952
 3485 0570 96FFEF37 		.word	938475414
 3486 0574 082DE7BF 		.word	-1075368696
 3487 0578 DF2C1D55 		.word	1427975391
 3488 057c B710E63F 		.word	1072042167
 3489 0580 3AC94DD1 		.word	-783431366
 3490 0584 3441ED3F 		.word	1072513332
 3491 0588 8AEDA843 		.word	1135144330
 3492 058c 79EFD93F 		.word	1071247225
 3493 0590 8AEDA843 		.word	1135144330
 3494 0594 79EFD9BF 		.word	-1076236423
 3495 0598 3AC94DD1 		.word	-783431366
 3496 059c 3441ED3F 		.word	1072513332
 3497 05a0 9F45FA30 		.word	821708191
 3498 05a4 8508D73F 		.word	1071057029
 3499 05a8 3CC2CCB6 		.word	-1228094916
 3500 05ac 13DBED3F 		.word	1072552723
 3501 05b0 3CC2CCB6 		.word	-1228094916
 3502 05b4 13DBEDBF 		.word	-1074930925
 3503 05b8 9F45FA30 		.word	821708191
 3504 05bc 8508D73F 		.word	1071057029
 3505 05c0 89E564AC 		.word	-1402673783
 3506 05c4 F338EF3F 		.word	1072642291
 3507 05c8 634F7E6A 		.word	1786662755
 3508 05cc 820BCC3F 		.word	1070336898
 3509 05d0 634F7E6A 		.word	1786662755
 3510 05d4 820BCCBF 		.word	-1077146750
 3511 05d8 89E564AC 		.word	-1402673783
 3512 05dc F338EF3F 		.word	1072642291
 3513 05e0 234B1B54 		.word	1411074851
 3514 05e4 B31EE13F 		.word	1071718067
 3515 05e8 00021558 		.word	1477771776
 3516 05ec 0A09EB3F 		.word	1072367882
 3517 05f0 00021558 		.word	1477771776
 3518 05f4 0A09EBBF 		.word	-1075115766
 3519 05f8 234B1B54 		.word	1411074851
 3520 05fc B31EE13F 		.word	1071718067
 3521 0600 822746A0 		.word	-1606015102
 3522 0604 A729EA3F 		.word	1072310695
 3523 0608 DF12DD4C 		.word	1289556703
 3524 060c 056DE23F 		.word	1071803653
 3525 0610 DF12DD4C 		.word	1289556703
 3526 0614 056DE2BF 		.word	-1075679995
 3527 0618 822746A0 		.word	-1606015102
 3528 061c A729EA3F 		.word	1072310695
 3529 0620 C63F8B44 		.word	1149976518
 3530 0624 14E2C53F 		.word	1069933076
 3531 0628 A94B71FA 		.word	-93238359
 3532 062c 6487EF3F 		.word	1072662372
 3533 0630 A94B71FA 		.word	-93238359
 3534 0634 6487EFBF 		.word	-1074821276
 3535 0638 C63F8B44 		.word	1149976518
 3536 063c 14E2C53F 		.word	1069933076
 3537 0640 D39FE170 		.word	1893834707
 3538 0644 64C2EF3F 		.word	1072677476
 3539 0648 0E73A956 		.word	1453945614
 3540 064c 4E56BF3F 		.word	1069504078
 3541 0650 0E73A956 		.word	1453945614
 3542 0654 4E56BFBF 		.word	-1077979570
 3543 0658 D39FE170 		.word	1893834707
 3544 065c 64C2EF3F 		.word	1072677476
 3545 0660 B9502029 		.word	689983673
 3546 0664 FAAFE33F 		.word	1071886330
 3547 0668 FB639249 		.word	1234330619
 3548 066c 223AE93F 		.word	1072249378
 3549 0670 FB639249 		.word	1234330619
 3550 0674 223AE9BF 		.word	-1075234270
 3551 0678 B9502029 		.word	689983673
 3552 067c FAAFE33F 		.word	1071886330
 3553 0680 2A956FAC 		.word	-1401973462
 3554 0684 C0D7EB3F 		.word	1072420800
 3555 0688 BA9AF8DB 		.word	-604464454
 3556 068c A48BDF3F 		.word	1071614884
 3557 0690 BA9AF8DB 		.word	-604464454
 3558 0694 A48BDFBF 		.word	-1075868764
 3559 0698 2A956FAC 		.word	-1401973462
 3560 069c C0D7EB3F 		.word	1072420800
 3561 06a0 77F6B162 		.word	1655830135
 3562 06a4 D211D13F 		.word	1070666194
 3563 06a8 634968E7 		.word	-412595869
 3564 06ac 40D7EE3F 		.word	1072617280
 3565 06b0 634968E7 		.word	-412595869
 3566 06b4 40D7EEBF 		.word	-1074866368
 3567 06b8 77F6B162 		.word	1655830135
 3568 06bc D211D13F 		.word	1070666194
 3569 06c0 12E148EC 		.word	-330768110
 3570 06c4 8862EE3F 		.word	1072587400
 3571 06c8 01661794 		.word	-1810405887
 3572 06cc 5C13D43F 		.word	1070863196
 3573 06d0 01661794 		.word	-1810405887
 3574 06d4 5C13D4BF 		.word	-1076620452
 3575 06d8 12E148EC 		.word	-330768110
 3576 06dc 8862EE3F 		.word	1072587400
 3577 06e0 5EC43199 		.word	-1724791714
 3578 06e4 6EC6DC3F 		.word	1071433326
 3579 06e8 F5113421 		.word	557060597
 3580 06ec 4B95EC3F 		.word	1072469323
 3581 06f0 F5113421 		.word	557060597
 3582 06f4 4B95ECBF 		.word	-1075014325
 3583 06f8 5EC43199 		.word	-1724791714
 3584 06fc 6EC6DC3F 		.word	1071433326
 3585 0700 6E97FF0B 		.word	201299822
 3586 0704 0E3BE83F 		.word	1072184078
 3587 0708 E9E5E3BB 		.word	-1142692375
 3588 070c CAE6E43F 		.word	1071965898
 3589 0710 E9E5E3BB 		.word	-1142692375
 3590 0714 CAE6E4BF 		.word	-1075517750
 3591 0718 6E97FF0B 		.word	201299822
 3592 071c 0E3BE83F 		.word	1072184078
 3593 0720 F619CE92 		.word	-1831986698
 3594 0724 20D5B23F 		.word	1068684576
 3595 0728 3A8801AD 		.word	-1392408518
 3596 072c CDE9EF3F 		.word	1072687565
 3597 0730 3A8801AD 		.word	-1392408518
 3598 0734 CDE9EFBF 		.word	-1074796083
 3599 0738 F619CE92 		.word	-1831986698
 3600 073c 20D5B23F 		.word	1068684576
 3601 0740 3A8801AD 		.word	-1392408518
 3602 0744 CDE9EF3F 		.word	1072687565
 3603 0748 F619CE92 		.word	-1831986698
 3604 074c 20D5B23F 		.word	1068684576
 3605 0750 F619CE92 		.word	-1831986698
 3606 0754 20D5B2BF 		.word	-1078799072
 3607 0758 3A8801AD 		.word	-1392408518
 3608 075c CDE9EF3F 		.word	1072687565
 3609 0760 E9E5E3BB 		.word	-1142692375
 3610 0764 CAE6E43F 		.word	1071965898
 3611 0768 6E97FF0B 		.word	201299822
 3612 076c 0E3BE83F 		.word	1072184078
 3613 0770 6E97FF0B 		.word	201299822
 3614 0774 0E3BE8BF 		.word	-1075299570
 3615 0778 E9E5E3BB 		.word	-1142692375
 3616 077c CAE6E43F 		.word	1071965898
 3617 0780 F5113421 		.word	557060597
 3618 0784 4B95EC3F 		.word	1072469323
 3619 0788 5EC43199 		.word	-1724791714
 3620 078c 6EC6DC3F 		.word	1071433326
 3621 0790 5EC43199 		.word	-1724791714
 3622 0794 6EC6DCBF 		.word	-1076050322
 3623 0798 F5113421 		.word	557060597
 3624 079c 4B95EC3F 		.word	1072469323
 3625 07a0 01661794 		.word	-1810405887
 3626 07a4 5C13D43F 		.word	1070863196
 3627 07a8 12E148EC 		.word	-330768110
 3628 07ac 8862EE3F 		.word	1072587400
 3629 07b0 12E148EC 		.word	-330768110
 3630 07b4 8862EEBF 		.word	-1074896248
 3631 07b8 01661794 		.word	-1810405887
 3632 07bc 5C13D43F 		.word	1070863196
 3633 07c0 634968E7 		.word	-412595869
 3634 07c4 40D7EE3F 		.word	1072617280
 3635 07c8 77F6B162 		.word	1655830135
 3636 07cc D211D13F 		.word	1070666194
 3637 07d0 77F6B162 		.word	1655830135
 3638 07d4 D211D1BF 		.word	-1076817454
 3639 07d8 634968E7 		.word	-412595869
 3640 07dc 40D7EE3F 		.word	1072617280
 3641 07e0 BA9AF8DB 		.word	-604464454
 3642 07e4 A48BDF3F 		.word	1071614884
 3643 07e8 2A956FAC 		.word	-1401973462
 3644 07ec C0D7EB3F 		.word	1072420800
 3645 07f0 2A956FAC 		.word	-1401973462
 3646 07f4 C0D7EBBF 		.word	-1075062848
 3647 07f8 BA9AF8DB 		.word	-604464454
 3648 07fc A48BDF3F 		.word	1071614884
 3649 0800 FB639249 		.word	1234330619
 3650 0804 223AE93F 		.word	1072249378
 3651 0808 B9502029 		.word	689983673
 3652 080c FAAFE33F 		.word	1071886330
 3653 0810 B9502029 		.word	689983673
 3654 0814 FAAFE3BF 		.word	-1075597318
 3655 0818 FB639249 		.word	1234330619
 3656 081c 223AE93F 		.word	1072249378
 3657 0820 0E73A956 		.word	1453945614
 3658 0824 4E56BF3F 		.word	1069504078
 3659 0828 D39FE170 		.word	1893834707
 3660 082c 64C2EF3F 		.word	1072677476
 3661 0830 D39FE170 		.word	1893834707
 3662 0834 64C2EFBF 		.word	-1074806172
 3663 0838 0E73A956 		.word	1453945614
 3664 083c 4E56BF3F 		.word	1069504078
 3665 0840 A94B71FA 		.word	-93238359
 3666 0844 6487EF3F 		.word	1072662372
 3667 0848 C63F8B44 		.word	1149976518
 3668 084c 14E2C53F 		.word	1069933076
 3669 0850 C63F8B44 		.word	1149976518
 3670 0854 14E2C5BF 		.word	-1077550572
 3671 0858 A94B71FA 		.word	-93238359
 3672 085c 6487EF3F 		.word	1072662372
 3673 0860 DF12DD4C 		.word	1289556703
 3674 0864 056DE23F 		.word	1071803653
 3675 0868 822746A0 		.word	-1606015102
 3676 086c A729EA3F 		.word	1072310695
 3677 0870 822746A0 		.word	-1606015102
 3678 0874 A729EABF 		.word	-1075172953
 3679 0878 DF12DD4C 		.word	1289556703
 3680 087c 056DE23F 		.word	1071803653
 3681 0880 00021558 		.word	1477771776
 3682 0884 0A09EB3F 		.word	1072367882
 3683 0888 234B1B54 		.word	1411074851
 3684 088c B31EE13F 		.word	1071718067
 3685 0890 234B1B54 		.word	1411074851
 3686 0894 B31EE1BF 		.word	-1075765581
 3687 0898 00021558 		.word	1477771776
 3688 089c 0A09EB3F 		.word	1072367882
 3689 08a0 634F7E6A 		.word	1786662755
 3690 08a4 820BCC3F 		.word	1070336898
 3691 08a8 89E564AC 		.word	-1402673783
 3692 08ac F338EF3F 		.word	1072642291
 3693 08b0 89E564AC 		.word	-1402673783
 3694 08b4 F338EFBF 		.word	-1074841357
 3695 08b8 634F7E6A 		.word	1786662755
 3696 08bc 820BCC3F 		.word	1070336898
 3697 08c0 3CC2CCB6 		.word	-1228094916
 3698 08c4 13DBED3F 		.word	1072552723
 3699 08c8 9F45FA30 		.word	821708191
 3700 08cc 8508D73F 		.word	1071057029
 3701 08d0 9F45FA30 		.word	821708191
 3702 08d4 8508D7BF 		.word	-1076426619
 3703 08d8 3CC2CCB6 		.word	-1228094916
 3704 08dc 13DBED3F 		.word	1072552723
 3705 08e0 8AEDA843 		.word	1135144330
 3706 08e4 79EFD93F 		.word	1071247225
 3707 08e8 3AC94DD1 		.word	-783431366
 3708 08ec 3441ED3F 		.word	1072513332
 3709 08f0 3AC94DD1 		.word	-783431366
 3710 08f4 3441EDBF 		.word	-1074970316
 3711 08f8 8AEDA843 		.word	1135144330
 3712 08fc 79EFD93F 		.word	1071247225
 3713 0900 96FFEF37 		.word	938475414
 3714 0904 082DE73F 		.word	1072114952
 3715 0908 DF2C1D55 		.word	1427975391
 3716 090c B710E63F 		.word	1072042167
 3717 0910 DF2C1D55 		.word	1427975391
 3718 0914 B710E6BF 		.word	-1075441481
 3719 0918 96FFEF37 		.word	938475414
 3720 091c 082DE73F 		.word	1072114952
 3721 0920 7E66A3F7 		.word	-140286338
 3722 0924 5521993F 		.word	1067000149
 3723 0928 0DCD8460 		.word	1619315981
 3724 092c 88FDEF3F 		.word	1072692616
 3725 0930 0DCD8460 		.word	1619315981
 3726 0934 88FDEFBF 		.word	-1074791032
 3727 0938 7E66A3F7 		.word	-140286338
 3728 093c 5521993F 		.word	1067000149
 3729 0940 DB929B16 		.word	379294427
 3730 0944 62FFEF3F 		.word	1072693090
 3731 0948 84C7DEFC 		.word	-52508796
 3732 094c D121893F 		.word	1065951697
 3733 0950 84C7DEFC 		.word	-52508796
 3734 0954 D12189BF 		.word	-1081531951
 3735 0958 DB929B16 		.word	379294427
 3736 095c 62FFEF3F 		.word	1072693090
 3737 0960 3D78F025 		.word	636516413
 3738 0964 1959E63F 		.word	1072060697
 3739 0968 AFA8EA54 		.word	1424664751
 3740 096c 44E7E63F 		.word	1072097092
 3741 0970 AFA8EA54 		.word	1424664751
 3742 0974 44E7E6BF 		.word	-1075386556
 3743 0978 3D78F025 		.word	636516413
 3744 097c 1959E63F 		.word	1072060697
 3745 0980 8BE6C973 		.word	1942611595
 3746 0984 6169ED3F 		.word	1072523617
 3747 0988 D793BC63 		.word	1673302999
 3748 098c 2A37D93F 		.word	1071200042
 3749 0990 D793BC63 		.word	1673302999
 3750 0994 2A37D9BF 		.word	-1076283606
 3751 0998 8BE6C973 		.word	1942611595
 3752 099c 6169ED3F 		.word	1072523617
 3753 09a0 E7CC1D31 		.word	824036583
 3754 09a4 A9C3D73F 		.word	1071104937
 3755 09a8 9BA03862 		.word	1647878299
 3756 09ac 52B6ED3F 		.word	1072543314
 3757 09b0 9BA03862 		.word	1647878299
 3758 09b4 52B6EDBF 		.word	-1074940334
 3759 09b8 E7CC1D31 		.word	824036583
 3760 09bc A9C3D73F 		.word	1071104937
 3761 09c0 2D2F0B3B 		.word	990588717
 3762 09c4 604EEF3F 		.word	1072647776
 3763 09c8 5104B025 		.word	632292433
 3764 09cc A082CA3F 		.word	1070236320
 3765 09d0 5104B025 		.word	632292433
 3766 09d4 A082CABF 		.word	-1077247328
 3767 09d8 2D2F0B3B 		.word	990588717
 3768 09dc 604EEF3F 		.word	1072647776
 3769 09e0 49DBDE63 		.word	1675549513
 3770 09e4 4D73E13F 		.word	1071739725
 3771 09e8 11D5219E 		.word	-1641949935
 3772 09ec BCD2EA3F 		.word	1072353980
 3773 09f0 11D5219E 		.word	-1641949935
 3774 09f4 BCD2EABF 		.word	-1075129668
 3775 09f8 49DBDE63 		.word	1675549513
 3776 09fc 4D73E13F 		.word	1071739725
 3777 0a00 E2FA021B 		.word	453180130
 3778 0a04 0963EA3F 		.word	1072325385
 3779 0a08 59EB3399 		.word	-1724650663
 3780 0a0c 791AE23F 		.word	1071782521
 3781 0a10 59EB3399 		.word	-1724650663
 3782 0a14 791AE2BF 		.word	-1075701127
 3783 0a18 E2FA021B 		.word	453180130
 3784 0a1c 0963EA3F 		.word	1072325385
 3785 0a20 31BF50DE 		.word	-565133519
 3786 0a24 D96DC73F 		.word	1070034393
 3787 0a28 7720A1A3 		.word	-1549721481
 3788 0a2c 9975EF3F 		.word	1072657817
 3789 0a30 7720A1A3 		.word	-1549721481
 3790 0a34 9975EFBF 		.word	-1074825831
 3791 0a38 31BF50DE 		.word	-565133519
 3792 0a3c D96DC73F 		.word	1070034393
 3793 0a40 7BA66DFD 		.word	-43145605
 3794 0a44 15CEEF3F 		.word	1072680469
 3795 0a48 D5C29EC7 		.word	-945896747
 3796 0a4c 8537BC3F 		.word	1069299589
 3797 0a50 D5C29EC7 		.word	-945896747
 3798 0a54 8537BCBF 		.word	-1078184059
 3799 0a58 7BA66DFD 		.word	-43145605
 3800 0a5c 15CEEF3F 		.word	1072680469
 3801 0a60 D4564553 		.word	1397053140
 3802 0a64 D9FEE33F 		.word	1071906521
 3803 0a68 0D94EFA3 		.word	-1544580083
 3804 0a6c CCFBE83F 		.word	1072233420
 3805 0a70 0D94EFA3 		.word	-1544580083
 3806 0a74 CCFBE8BF 		.word	-1075250228
 3807 0a78 D4564553 		.word	1397053140
 3808 0a7c D9FEE33F 		.word	1071906521
 3809 0a80 49557226 		.word	645027145
 3810 0a84 C408EC3F 		.word	1072433348
 3811 0a88 D678EF52 		.word	1391425750
 3812 0a8c 19DCDE3F 		.word	1071569945
 3813 0a90 D678EF52 		.word	1391425750
 3814 0a94 19DCDEBF 		.word	-1075913703
 3815 0a98 49557226 		.word	645027145
 3816 0a9c C408EC3F 		.word	1072433348
 3817 0aa0 3EDB4C3F 		.word	1062001470
 3818 0aa4 44D3D13F 		.word	1070715716
 3819 0aa8 740BDFC8 		.word	-924906636
 3820 0aac D8BBEE3F 		.word	1072610264
 3821 0ab0 740BDFC8 		.word	-924906636
 3822 0ab4 D8BBEEBF 		.word	-1074873384
 3823 0ab8 3EDB4C3F 		.word	1062001470
 3824 0abc 44D3D13F 		.word	1070715716
 3825 0ac0 0DD14CAB 		.word	-1421029107
 3826 0ac4 7B81EE3F 		.word	1072595323
 3827 0ac8 5281E1C2 		.word	-1025408686
 3828 0acc 1054D33F 		.word	1070814224
 3829 0ad0 5281E1C2 		.word	-1025408686
 3830 0ad4 1054D3BF 		.word	-1076669424
 3831 0ad8 0DD14CAB 		.word	-1421029107
 3832 0adc 7B81EE3F 		.word	1072595323
 3833 0ae0 89E3865B 		.word	1535566729
 3834 0ae4 7779DD3F 		.word	1071479159
 3835 0ae8 9B738834 		.word	881357723
 3836 0aec 8B67EC3F 		.word	1072457611
 3837 0af0 9B738834 		.word	881357723
 3838 0af4 8B67ECBF 		.word	-1075026037
 3839 0af8 89E3865B 		.word	1535566729
 3840 0afc 7779DD3F 		.word	1071479159
 3841 0b00 BF2EBA0F 		.word	263859903
 3842 0b04 407CE83F 		.word	1072200768
 3843 0b08 39099B9B 		.word	-1684338375
 3844 0b0c 449AE43F 		.word	1071946308
 3845 0b10 39099B9B 		.word	-1684338375
 3846 0b14 449AE4BF 		.word	-1075537340
 3847 0b18 BF2EBA0F 		.word	263859903
 3848 0b1c 407CE83F 		.word	1072200768
 3849 0b20 19A49A0A 		.word	177906713
 3850 0b24 D0F6B53F 		.word	1068889808
 3851 0b28 095BBDFC 		.word	-54699255
 3852 0b2c CAE1EF3F 		.word	1072685514
 3853 0b30 095BBDFC 		.word	-54699255
 3854 0b34 CAE1EFBF 		.word	-1074798134
 3855 0b38 19A49A0A 		.word	177906713
 3856 0b3c D0F6B53F 		.word	1068889808
 3857 0b40 AD718E65 		.word	1703834029
 3858 0b44 95F0EF3F 		.word	1072689301
 3859 0b48 E020F879 		.word	2046304480
 3860 0b4c 6E65AF3F 		.word	1068459374
 3861 0b50 E020F879 		.word	2046304480
 3862 0b54 6E65AFBF 		.word	-1079024274
 3863 0b58 AD718E65 		.word	1703834029
 3864 0b5c 95F0EF3F 		.word	1072689301
 3865 0b60 9655A392 		.word	-1834789482
 3866 0b64 8232E53F 		.word	1071985282
 3867 0b68 711757E3 		.word	-480831631
 3868 0b6c ECF8E73F 		.word	1072167148
 3869 0b70 711757E3 		.word	-480831631
 3870 0b74 ECF8E7BF 		.word	-1075316500
 3871 0b78 9655A392 		.word	-1834789482
 3872 0b7c 8232E53F 		.word	1071985282
 3873 0b80 5CFCFCF3 		.word	-201524132
 3874 0b84 F0C1EC3F 		.word	1072480752
 3875 0b88 E71E01D8 		.word	-671015193
 3876 0b8c 4912DC3F 		.word	1071387209
 3877 0b90 E71E01D8 		.word	-671015193
 3878 0b94 4912DCBF 		.word	-1076096439
 3879 0b98 5CFCFCF3 		.word	-201524132
 3880 0b9c F0C1EC3F 		.word	1072480752
 3881 0ba0 6AE77842 		.word	1115219818
 3882 0ba4 E2D1D43F 		.word	1070911970
 3883 0ba8 7EC12B4B 		.word	1261158782
 3884 0bac 6A42EE3F 		.word	1072579178
 3885 0bb0 7EC12B4B 		.word	1261158782
 3886 0bb4 6A42EEBF 		.word	-1074904470
 3887 0bb8 6AE77842 		.word	1115219818
 3888 0bbc E2D1D43F 		.word	1070911970
 3889 0bc0 C273E4A3 		.word	-1545309246
 3890 0bc4 78F1EE3F 		.word	1072623992
 3891 0bc8 AEFD370E 		.word	238550446
 3892 0bcc B84FD03F 		.word	1070616504
 3893 0bd0 AEFD370E 		.word	238550446
 3894 0bd4 B84FD0BF 		.word	-1076867144
 3895 0bd8 C273E4A3 		.word	-1545309246
 3896 0bdc 78F1EE3F 		.word	1072623992
 3897 0be0 B73E4C87 		.word	-2025046345
 3898 0be4 FC1CE03F 		.word	1071652092
 3899 0be8 D2903567 		.word	1731563730
 3900 0bec AAA5EB3F 		.word	1072407978
 3901 0bf0 D2903567 		.word	1731563730
 3902 0bf4 AAA5EBBF 		.word	-1075075670
 3903 0bf8 B73E4C87 		.word	-2025046345
 3904 0bfc FC1CE03F 		.word	1071652092
 3905 0c00 42D7C7F4 		.word	-188229822
 3906 0c04 7E77E93F 		.word	1072265086
 3907 0c08 F35906B1 		.word	-1324983821
 3908 0c0c 5860E33F 		.word	1071865944
 3909 0c10 F35906B1 		.word	-1324983821
 3910 0c14 5860E3BF 		.word	-1075617704
 3911 0c18 42D7C7F4 		.word	-188229822
 3912 0c1c 7E77E93F 		.word	1072265086
 3913 0c20 77F5DACE 		.word	-824511113
 3914 0c24 F039C13F 		.word	1069627888
 3915 0c28 41D79571 		.word	1905645377
 3916 0c2c 79B5EF3F 		.word	1072674169
 3917 0c30 41D79571 		.word	1905645377
 3918 0c34 79B5EFBF 		.word	-1074809479
 3919 0c38 77F5DACE 		.word	-824511113
 3920 0c3c F039C13F 		.word	1069627888
 3921 0c40 9B09C924 		.word	617154971
 3922 0c44 F997EF3F 		.word	1072666617
 3923 0c48 5A3E29B1 		.word	-1322697126
 3924 0c4c 7655C43F 		.word	1069831542
 3925 0c50 5A3E29B1 		.word	-1322697126
 3926 0c54 7655C4BF 		.word	-1077652106
 3927 0c58 9B09C924 		.word	617154971
 3928 0c5c F997EF3F 		.word	1072666617
 3929 0c60 EAF3FA25 		.word	637203434
 3930 0c64 DBBEE23F 		.word	1071824603
 3931 0c68 94AF29EF 		.word	-282480748
 3932 0c6c 43EFE93F 		.word	1072295747
 3933 0c70 94AF29EF 		.word	-282480748
 3934 0c74 43EFE9BF 		.word	-1075187901
 3935 0c78 EAF3FA25 		.word	637203434
 3936 0c7c DBBEE23F 		.word	1071824603
 3937 0c80 1257F53E 		.word	1056266002
 3938 0c84 4D3EEB3F 		.word	1072381517
 3939 0c88 8F895D4D 		.word	1297975695
 3940 0c8c 70C9E03F 		.word	1071696240
 3941 0c90 8F895D4D 		.word	1297975695
 3942 0c94 70C9E0BF 		.word	-1075787408
 3943 0c98 1257F53E 		.word	1056266002
 3944 0c9c 4D3EEB3F 		.word	1072381517
 3945 0ca0 114345E5 		.word	-448445679
 3946 0ca4 4F93CD3F 		.word	1070437199
 3947 0ca8 DA3A76F7 		.word	-143246630
 3948 0cac 5222EF3F 		.word	1072636498
 3949 0cb0 DA3A76F7 		.word	-143246630
 3950 0cb4 5222EFBF 		.word	-1074847150
 3951 0cb8 114345E5 		.word	-448445679
 3952 0cbc 4F93CD3F 		.word	1070437199
 3953 0cc0 2BBE2D62 		.word	1647164971
 3954 0cc4 AEFEED3F 		.word	1072561838
 3955 0cc8 C6273FDD 		.word	-583063610
 3956 0ccc 7D4CD63F 		.word	1071008893
 3957 0cd0 C6273FDD 		.word	-583063610
 3958 0cd4 7D4CD6BF 		.word	-1076474755
 3959 0cd8 2BBE2D62 		.word	1647164971
 3960 0cdc AEFEED3F 		.word	1072561838
 3961 0ce0 CA3F6D2B 		.word	728580042
 3962 0ce4 C8A6DA3F 		.word	1071294152
 3963 0ce8 DC353E74 		.word	1950234076
 3964 0cec E717ED3F 		.word	1072502759
 3965 0cf0 DC353E74 		.word	1950234076
 3966 0cf4 E717EDBF 		.word	-1074980889
 3967 0cf8 CA3F6D2B 		.word	728580042
 3968 0cfc C8A6DA3F 		.word	1071294152
 3969 0d00 6172035F 		.word	1594061409
 3970 0d04 E771E73F 		.word	1072132583
 3971 0d08 8C0165BE 		.word	-1100676724
 3972 0d0c 7BC7E53F 		.word	1072023419
 3973 0d10 8C0165BE 		.word	-1100676724
 3974 0d14 7BC7E5BF 		.word	-1075460229
 3975 0d18 6172035F 		.word	1594061409
 3976 0d1c E771E73F 		.word	1072132583
 3977 0d20 CD559475 		.word	1972655565
 3978 0d24 65D8A23F 		.word	1067636837
 3979 0d28 5DF7FEEF 		.word	-268503203
 3980 0d2c 72FAEF3F 		.word	1072691826
 3981 0d30 5DF7FEEF 		.word	-268503203
 3982 0d34 72FAEFBF 		.word	-1074791822
 3983 0d38 CD559475 		.word	1972655565
 3984 0d3c 65D8A23F 		.word	1067636837
 3985 0d40 5DF7FEEF 		.word	-268503203
 3986 0d44 72FAEF3F 		.word	1072691826
 3987 0d48 CD559475 		.word	1972655565
 3988 0d4c 65D8A23F 		.word	1067636837
 3989 0d50 CD559475 		.word	1972655565
 3990 0d54 65D8A2BF 		.word	-1079846811
 3991 0d58 5DF7FEEF 		.word	-268503203
 3992 0d5c 72FAEF3F 		.word	1072691826
 3993 0d60 8C0165BE 		.word	-1100676724
 3994 0d64 7BC7E53F 		.word	1072023419
 3995 0d68 6172035F 		.word	1594061409
 3996 0d6c E771E73F 		.word	1072132583
 3997 0d70 6172035F 		.word	1594061409
 3998 0d74 E771E7BF 		.word	-1075351065
 3999 0d78 8C0165BE 		.word	-1100676724
 4000 0d7c 7BC7E53F 		.word	1072023419
 4001 0d80 DC353E74 		.word	1950234076
 4002 0d84 E717ED3F 		.word	1072502759
 4003 0d88 CA3F6D2B 		.word	728580042
 4004 0d8c C8A6DA3F 		.word	1071294152
 4005 0d90 CA3F6D2B 		.word	728580042
 4006 0d94 C8A6DABF 		.word	-1076189496
 4007 0d98 DC353E74 		.word	1950234076
 4008 0d9c E717ED3F 		.word	1072502759
 4009 0da0 C6273FDD 		.word	-583063610
 4010 0da4 7D4CD63F 		.word	1071008893
 4011 0da8 2BBE2D62 		.word	1647164971
 4012 0dac AEFEED3F 		.word	1072561838
 4013 0db0 2BBE2D62 		.word	1647164971
 4014 0db4 AEFEEDBF 		.word	-1074921810
 4015 0db8 C6273FDD 		.word	-583063610
 4016 0dbc 7D4CD63F 		.word	1071008893
 4017 0dc0 DA3A76F7 		.word	-143246630
 4018 0dc4 5222EF3F 		.word	1072636498
 4019 0dc8 114345E5 		.word	-448445679
 4020 0dcc 4F93CD3F 		.word	1070437199
 4021 0dd0 114345E5 		.word	-448445679
 4022 0dd4 4F93CDBF 		.word	-1077046449
 4023 0dd8 DA3A76F7 		.word	-143246630
 4024 0ddc 5222EF3F 		.word	1072636498
 4025 0de0 8F895D4D 		.word	1297975695
 4026 0de4 70C9E03F 		.word	1071696240
 4027 0de8 1257F53E 		.word	1056266002
 4028 0dec 4D3EEB3F 		.word	1072381517
 4029 0df0 1257F53E 		.word	1056266002
 4030 0df4 4D3EEBBF 		.word	-1075102131
 4031 0df8 8F895D4D 		.word	1297975695
 4032 0dfc 70C9E03F 		.word	1071696240
 4033 0e00 94AF29EF 		.word	-282480748
 4034 0e04 43EFE93F 		.word	1072295747
 4035 0e08 EAF3FA25 		.word	637203434
 4036 0e0c DBBEE23F 		.word	1071824603
 4037 0e10 EAF3FA25 		.word	637203434
 4038 0e14 DBBEE2BF 		.word	-1075659045
 4039 0e18 94AF29EF 		.word	-282480748
 4040 0e1c 43EFE93F 		.word	1072295747
 4041 0e20 5A3E29B1 		.word	-1322697126
 4042 0e24 7655C43F 		.word	1069831542
 4043 0e28 9B09C924 		.word	617154971
 4044 0e2c F997EF3F 		.word	1072666617
 4045 0e30 9B09C924 		.word	617154971
 4046 0e34 F997EFBF 		.word	-1074817031
 4047 0e38 5A3E29B1 		.word	-1322697126
 4048 0e3c 7655C43F 		.word	1069831542
 4049 0e40 41D79571 		.word	1905645377
 4050 0e44 79B5EF3F 		.word	1072674169
 4051 0e48 77F5DACE 		.word	-824511113
 4052 0e4c F039C13F 		.word	1069627888
 4053 0e50 77F5DACE 		.word	-824511113
 4054 0e54 F039C1BF 		.word	-1077855760
 4055 0e58 41D79571 		.word	1905645377
 4056 0e5c 79B5EF3F 		.word	1072674169
 4057 0e60 F35906B1 		.word	-1324983821
 4058 0e64 5860E33F 		.word	1071865944
 4059 0e68 42D7C7F4 		.word	-188229822
 4060 0e6c 7E77E93F 		.word	1072265086
 4061 0e70 42D7C7F4 		.word	-188229822
 4062 0e74 7E77E9BF 		.word	-1075218562
 4063 0e78 F35906B1 		.word	-1324983821
 4064 0e7c 5860E33F 		.word	1071865944
 4065 0e80 D2903567 		.word	1731563730
 4066 0e84 AAA5EB3F 		.word	1072407978
 4067 0e88 B73E4C87 		.word	-2025046345
 4068 0e8c FC1CE03F 		.word	1071652092
 4069 0e90 B73E4C87 		.word	-2025046345
 4070 0e94 FC1CE0BF 		.word	-1075831556
 4071 0e98 D2903567 		.word	1731563730
 4072 0e9c AAA5EB3F 		.word	1072407978
 4073 0ea0 AEFD370E 		.word	238550446
 4074 0ea4 B84FD03F 		.word	1070616504
 4075 0ea8 C273E4A3 		.word	-1545309246
 4076 0eac 78F1EE3F 		.word	1072623992
 4077 0eb0 C273E4A3 		.word	-1545309246
 4078 0eb4 78F1EEBF 		.word	-1074859656
 4079 0eb8 AEFD370E 		.word	238550446
 4080 0ebc B84FD03F 		.word	1070616504
 4081 0ec0 7EC12B4B 		.word	1261158782
 4082 0ec4 6A42EE3F 		.word	1072579178
 4083 0ec8 6AE77842 		.word	1115219818
 4084 0ecc E2D1D43F 		.word	1070911970
 4085 0ed0 6AE77842 		.word	1115219818
 4086 0ed4 E2D1D4BF 		.word	-1076571678
 4087 0ed8 7EC12B4B 		.word	1261158782
 4088 0edc 6A42EE3F 		.word	1072579178
 4089 0ee0 E71E01D8 		.word	-671015193
 4090 0ee4 4912DC3F 		.word	1071387209
 4091 0ee8 5CFCFCF3 		.word	-201524132
 4092 0eec F0C1EC3F 		.word	1072480752
 4093 0ef0 5CFCFCF3 		.word	-201524132
 4094 0ef4 F0C1ECBF 		.word	-1075002896
 4095 0ef8 E71E01D8 		.word	-671015193
 4096 0efc 4912DC3F 		.word	1071387209
 4097 0f00 711757E3 		.word	-480831631
 4098 0f04 ECF8E73F 		.word	1072167148
 4099 0f08 9655A392 		.word	-1834789482
 4100 0f0c 8232E53F 		.word	1071985282
 4101 0f10 9655A392 		.word	-1834789482
 4102 0f14 8232E5BF 		.word	-1075498366
 4103 0f18 711757E3 		.word	-480831631
 4104 0f1c ECF8E73F 		.word	1072167148
 4105 0f20 E020F879 		.word	2046304480
 4106 0f24 6E65AF3F 		.word	1068459374
 4107 0f28 AD718E65 		.word	1703834029
 4108 0f2c 95F0EF3F 		.word	1072689301
 4109 0f30 AD718E65 		.word	1703834029
 4110 0f34 95F0EFBF 		.word	-1074794347
 4111 0f38 E020F879 		.word	2046304480
 4112 0f3c 6E65AF3F 		.word	1068459374
 4113 0f40 095BBDFC 		.word	-54699255
 4114 0f44 CAE1EF3F 		.word	1072685514
 4115 0f48 19A49A0A 		.word	177906713
 4116 0f4c D0F6B53F 		.word	1068889808
 4117 0f50 19A49A0A 		.word	177906713
 4118 0f54 D0F6B5BF 		.word	-1078593840
 4119 0f58 095BBDFC 		.word	-54699255
 4120 0f5c CAE1EF3F 		.word	1072685514
 4121 0f60 39099B9B 		.word	-1684338375
 4122 0f64 449AE43F 		.word	1071946308
 4123 0f68 BF2EBA0F 		.word	263859903
 4124 0f6c 407CE83F 		.word	1072200768
 4125 0f70 BF2EBA0F 		.word	263859903
 4126 0f74 407CE8BF 		.word	-1075282880
 4127 0f78 39099B9B 		.word	-1684338375
 4128 0f7c 449AE43F 		.word	1071946308
 4129 0f80 9B738834 		.word	881357723
 4130 0f84 8B67EC3F 		.word	1072457611
 4131 0f88 89E3865B 		.word	1535566729
 4132 0f8c 7779DD3F 		.word	1071479159
 4133 0f90 89E3865B 		.word	1535566729
 4134 0f94 7779DDBF 		.word	-1076004489
 4135 0f98 9B738834 		.word	881357723
 4136 0f9c 8B67EC3F 		.word	1072457611
 4137 0fa0 5281E1C2 		.word	-1025408686
 4138 0fa4 1054D33F 		.word	1070814224
 4139 0fa8 0DD14CAB 		.word	-1421029107
 4140 0fac 7B81EE3F 		.word	1072595323
 4141 0fb0 0DD14CAB 		.word	-1421029107
 4142 0fb4 7B81EEBF 		.word	-1074888325
 4143 0fb8 5281E1C2 		.word	-1025408686
 4144 0fbc 1054D33F 		.word	1070814224
 4145 0fc0 740BDFC8 		.word	-924906636
 4146 0fc4 D8BBEE3F 		.word	1072610264
 4147 0fc8 3EDB4C3F 		.word	1062001470
 4148 0fcc 44D3D13F 		.word	1070715716
 4149 0fd0 3EDB4C3F 		.word	1062001470
 4150 0fd4 44D3D1BF 		.word	-1076767932
 4151 0fd8 740BDFC8 		.word	-924906636
 4152 0fdc D8BBEE3F 		.word	1072610264
 4153 0fe0 D678EF52 		.word	1391425750
 4154 0fe4 19DCDE3F 		.word	1071569945
 4155 0fe8 49557226 		.word	645027145
 4156 0fec C408EC3F 		.word	1072433348
 4157 0ff0 49557226 		.word	645027145
 4158 0ff4 C408ECBF 		.word	-1075050300
 4159 0ff8 D678EF52 		.word	1391425750
 4160 0ffc 19DCDE3F 		.word	1071569945
 4161 1000 0D94EFA3 		.word	-1544580083
 4162 1004 CCFBE83F 		.word	1072233420
 4163 1008 D4564553 		.word	1397053140
 4164 100c D9FEE33F 		.word	1071906521
 4165 1010 D4564553 		.word	1397053140
 4166 1014 D9FEE3BF 		.word	-1075577127
 4167 1018 0D94EFA3 		.word	-1544580083
 4168 101c CCFBE83F 		.word	1072233420
 4169 1020 D5C29EC7 		.word	-945896747
 4170 1024 8537BC3F 		.word	1069299589
 4171 1028 7BA66DFD 		.word	-43145605
 4172 102c 15CEEF3F 		.word	1072680469
 4173 1030 7BA66DFD 		.word	-43145605
 4174 1034 15CEEFBF 		.word	-1074803179
 4175 1038 D5C29EC7 		.word	-945896747
 4176 103c 8537BC3F 		.word	1069299589
 4177 1040 7720A1A3 		.word	-1549721481
 4178 1044 9975EF3F 		.word	1072657817
 4179 1048 31BF50DE 		.word	-565133519
 4180 104c D96DC73F 		.word	1070034393
 4181 1050 31BF50DE 		.word	-565133519
 4182 1054 D96DC7BF 		.word	-1077449255
 4183 1058 7720A1A3 		.word	-1549721481
 4184 105c 9975EF3F 		.word	1072657817
 4185 1060 59EB3399 		.word	-1724650663
 4186 1064 791AE23F 		.word	1071782521
 4187 1068 E2FA021B 		.word	453180130
 4188 106c 0963EA3F 		.word	1072325385
 4189 1070 E2FA021B 		.word	453180130
 4190 1074 0963EABF 		.word	-1075158263
 4191 1078 59EB3399 		.word	-1724650663
 4192 107c 791AE23F 		.word	1071782521
 4193 1080 11D5219E 		.word	-1641949935
 4194 1084 BCD2EA3F 		.word	1072353980
 4195 1088 49DBDE63 		.word	1675549513
 4196 108c 4D73E13F 		.word	1071739725
 4197 1090 49DBDE63 		.word	1675549513
 4198 1094 4D73E1BF 		.word	-1075743923
 4199 1098 11D5219E 		.word	-1641949935
 4200 109c BCD2EA3F 		.word	1072353980
 4201 10a0 5104B025 		.word	632292433
 4202 10a4 A082CA3F 		.word	1070236320
 4203 10a8 2D2F0B3B 		.word	990588717
 4204 10ac 604EEF3F 		.word	1072647776
 4205 10b0 2D2F0B3B 		.word	990588717
 4206 10b4 604EEFBF 		.word	-1074835872
 4207 10b8 5104B025 		.word	632292433
 4208 10bc A082CA3F 		.word	1070236320
 4209 10c0 9BA03862 		.word	1647878299
 4210 10c4 52B6ED3F 		.word	1072543314
 4211 10c8 E7CC1D31 		.word	824036583
 4212 10cc A9C3D73F 		.word	1071104937
 4213 10d0 E7CC1D31 		.word	824036583
 4214 10d4 A9C3D7BF 		.word	-1076378711
 4215 10d8 9BA03862 		.word	1647878299
 4216 10dc 52B6ED3F 		.word	1072543314
 4217 10e0 D793BC63 		.word	1673302999
 4218 10e4 2A37D93F 		.word	1071200042
 4219 10e8 8BE6C973 		.word	1942611595
 4220 10ec 6169ED3F 		.word	1072523617
 4221 10f0 8BE6C973 		.word	1942611595
 4222 10f4 6169EDBF 		.word	-1074960031
 4223 10f8 D793BC63 		.word	1673302999
 4224 10fc 2A37D93F 		.word	1071200042
 4225 1100 AFA8EA54 		.word	1424664751
 4226 1104 44E7E63F 		.word	1072097092
 4227 1108 3D78F025 		.word	636516413
 4228 110c 1959E63F 		.word	1072060697
 4229 1110 3D78F025 		.word	636516413
 4230 1114 1959E6BF 		.word	-1075422951
 4231 1118 AFA8EA54 		.word	1424664751
 4232 111c 44E7E63F 		.word	1072097092
 4233 1120 84C7DEFC 		.word	-52508796
 4234 1124 D121893F 		.word	1065951697
 4235 1128 DB929B16 		.word	379294427
 4236 112c 62FFEF3F 		.word	1072693090
 4237 1130 DB929B16 		.word	379294427
 4238 1134 62FFEFBF 		.word	-1074790558
 4239 1138 84C7DEFC 		.word	-52508796
 4240 113c D121893F 		.word	1065951697
 4241 1140 928A8E85 		.word	-2054255982
 4242 1144 D8FFEF3F 		.word	1072693208
 4243 1148 710067FE 		.word	-26804111
 4244 114c F021793F 		.word	1064903152
 4245 1150 710067FE 		.word	-26804111
 4246 1154 F02179BF 		.word	-1082580496
 4247 1158 928A8E85 		.word	-2054255982
 4248 115c D8FFEF3F 		.word	1072693208
 4249 1160 10AF9184 		.word	-2070827248
 4250 1164 F77CE63F 		.word	1072069879
 4251 1168 7582C173 		.word	1942061685
 4252 116c 0DC4E63F 		.word	1072088077
 4253 1170 7582C173 		.word	1942061685
 4254 1174 0DC4E6BF 		.word	-1075395571
 4255 1178 10AF9184 		.word	-2070827248
 4256 117c F77CE63F 		.word	1072069879
 4257 1180 F9ECB802 		.word	45673721
 4258 1184 0B7DED3F 		.word	1072528651
 4259 1188 B0A4C82E 		.word	784901296
 4260 118c A5DAD83F 		.word	1071176357
 4261 1190 B0A4C82E 		.word	784901296
 4262 1194 A5DAD8BF 		.word	-1076307291
 4263 1198 F9ECB802 		.word	45673721
 4264 119c 0B7DED3F 		.word	1072528651
 4265 11a0 C4AA4EB0 		.word	-1337021756
 4266 11a4 E320D83F 		.word	1071128803
 4267 11a8 888966A9 		.word	-1452897912
 4268 11ac 83A3ED3F 		.word	1072538499
 4269 11b0 888966A9 		.word	-1452897912
 4270 11b4 83A3EDBF 		.word	-1074945149
 4271 11b8 C4AA4EB0 		.word	-1337021756
 4272 11bc E320D83F 		.word	1071128803
 4273 11c0 849E78B1 		.word	-1317495164
 4274 11c4 A258EF3F 		.word	1072650402
 4275 11c8 6643DCF2 		.word	-220445850
 4276 11cc CBBDC93F 		.word	1070185931
 4277 11d0 6643DCF2 		.word	-220445850
 4278 11d4 CBBDC9BF 		.word	-1077297717
 4279 11d8 849E78B1 		.word	-1317495164
 4280 11dc A258EF3F 		.word	1072650402
 4281 11e0 B8B9F209 		.word	166902200
 4282 11e4 5A9DE13F 		.word	1071750490
 4283 11e8 D4C01659 		.word	1494663380
 4284 11ec 32B7EA3F 		.word	1072346930
 4285 11f0 D4C01659 		.word	1494663380
 4286 11f4 32B7EABF 		.word	-1075136718
 4287 11f8 B8B9F209 		.word	166902200
 4288 11fc 5A9DE13F 		.word	1071750490
 4289 1200 9DE69F52 		.word	1386210973
 4290 1204 587FEA3F 		.word	1072332632
 4291 1208 1B86BC8B 		.word	-1950579173
 4292 120c F0F0E13F 		.word	1071771888
 4293 1210 1B86BC8B 		.word	-1950579173
 4294 1214 F0F0E1BF 		.word	-1075711760
 4295 1218 9DE69F52 		.word	1386210973
 4296 121c 587FEA3F 		.word	1072332632
 4297 1220 C6649CE8 		.word	-392403770
 4298 1224 6633C83F 		.word	1070084966
 4299 1228 B7BBF57D 		.word	2113256375
 4300 122c 3F6CEF3F 		.word	1072655423
 4301 1230 B7BBF57D 		.word	2113256375
 4302 1234 3F6CEFBF 		.word	-1074828225
 4303 1238 C6649CE8 		.word	-392403770
 4304 123c 6633C83F 		.word	1070084966
 4305 1240 840B2214 		.word	337775492
 4306 1244 79D3EF3F 		.word	1072681849
 4307 1248 035C4924 		.word	608787459
 4308 124c B7A7BA3F 		.word	1069197239
 4309 1250 035C4924 		.word	608787459
 4310 1254 B7A7BABF 		.word	-1078286409
 4311 1258 840B2214 		.word	337775492
 4312 125c 79D3EF3F 		.word	1072681849
 4313 1260 B16B8E17 		.word	395209649
 4314 1264 FF25E43F 		.word	1071916543
 4315 1268 CC981633 		.word	857118924
 4316 126c 45DCE83F 		.word	1072225349
 4317 1270 CC981633 		.word	857118924
 4318 1274 45DCE8BF 		.word	-1075258299
 4319 1278 B16B8E17 		.word	395209649
 4320 127c FF25E43F 		.word	1071916543
 4321 1280 B071A93F 		.word	1068069296
 4322 1284 DE20EC3F 		.word	1072439518
 4323 1288 1451F8EA 		.word	-352825068
 4324 128c E083DE3F 		.word	1071547360
 4325 1290 1451F8EA 		.word	-352825068
 4326 1294 E083DEBF 		.word	-1075936288
 4327 1298 B071A93F 		.word	1068069296
 4328 129c DE20EC3F 		.word	1072439518
 4329 12a0 71BBC3AB 		.word	-1413235855
 4330 12a4 BB33D23F 		.word	1070740411
 4331 12a8 8EA8E7E8 		.word	-387471218
 4332 12ac B2ADEE3F 		.word	1072606642
 4333 12b0 8EA8E7E8 		.word	-387471218
 4334 12b4 B2ADEEBF 		.word	-1074877006
 4335 12b8 71BBC3AB 		.word	-1413235855
 4336 12bc BB33D23F 		.word	1070740411
 4337 12c0 F2F71D36 		.word	907933682
 4338 12c4 8490EE3F 		.word	1072599172
 4339 12c8 8703ECDA 		.word	-622066809
 4340 12cc 22F4D23F 		.word	1070789666
 4341 12d0 8703ECDA 		.word	-622066809
 4342 12d4 22F4D2BF 		.word	-1076693982
 4343 12d8 F2F71D36 		.word	907933682
 4344 12dc 8490EE3F 		.word	1072599172
 4345 12e0 58CC8114 		.word	344050776
 4346 12e4 8FD2DD3F 		.word	1071501967
 4347 12e8 07692B01 		.word	19622151
 4348 12ec 4250EC3F 		.word	1072451650
 4349 12f0 07692B01 		.word	19622151
 4350 12f4 4250ECBF 		.word	-1075031998
 4351 12f8 58CC8114 		.word	344050776
 4352 12fc 8FD2DD3F 		.word	1071501967
 4353 1300 AAD44D9A 		.word	-1706175318
 4354 1304 7E9CE83F 		.word	1072209022
 4355 1308 4773981B 		.word	462975815
 4356 130c B573E43F 		.word	1071936437
 4357 1310 4773981B 		.word	462975815
 4358 1314 B573E4BF 		.word	-1075547211
 4359 1318 AAD44D9A 		.word	-1706175318
 4360 131c 7E9CE83F 		.word	1072209022
 4361 1320 215B5D6A 		.word	1784503073
 4362 1324 5887B73F 		.word	1068992344
 4363 1328 56F4F19F 		.word	-1611533226
 4364 132c 53DDEF3F 		.word	1072684371
 4365 1330 56F4F19F 		.word	-1611533226
 4366 1334 53DDEFBF 		.word	-1074799277
 4367 1338 215B5D6A 		.word	1784503073
 4368 133c 5887B73F 		.word	1068992344
 4369 1340 5C578D0F 		.word	260921180
 4370 1344 83F3EF3F 		.word	1072690051
 4371 1348 E3D7C012 		.word	314628067
 4372 134c 8D42AC3F 		.word	1068253837
 4373 1350 E3D7C012 		.word	314628067
 4374 1354 8D42ACBF 		.word	-1079229811
 4375 1358 5C578D0F 		.word	260921180
 4376 135c 83F3EF3F 		.word	1072690051
 4377 1360 37519738 		.word	949440823
 4378 1364 1058E53F 		.word	1071994896
 4379 1368 B23DC36C 		.word	1824734642
 4380 136c 83D7E73F 		.word	1072158595
 4381 1370 B23DC36C 		.word	1824734642
 4382 1374 83D7E7BF 		.word	-1075325053
 4383 1378 37519738 		.word	949440823
 4384 137c 1058E53F 		.word	1071994896
 4385 1380 F6328B89 		.word	-1987366154
 4386 1384 D9D7EC3F 		.word	1072486361
 4387 1388 01BD0423 		.word	587513089
 4388 138c CFB7DB3F 		.word	1071364047
 4389 1390 01BD0423 		.word	587513089
 4390 1394 CFB7DBBF 		.word	-1076119601
 4391 1398 F6328B89 		.word	-1987366154
 4392 139c D9D7EC3F 		.word	1072486361
 4393 13a0 243CAF80 		.word	-2135999452
 4394 13a4 D830D53F 		.word	1070936280
 4395 13a8 25CE70E8 		.word	-395260379
 4396 13ac EA31EE3F 		.word	1072574954
 4397 13b0 25CE70E8 		.word	-395260379
 4398 13b4 EA31EEBF 		.word	-1074908694
 4399 13b8 243CAF80 		.word	-2135999452
 4400 13bc D830D53F 		.word	1070936280
 4401 13c0 EC950B0C 		.word	202085868
 4402 13c4 22FEEE3F 		.word	1072627234
 4403 13c8 F9EDDF1A 		.word	450883065
 4404 13cc DCDCCF3F 		.word	1070587100
 4405 13d0 F9EDDF1A 		.word	450883065
 4406 13d4 DCDCCFBF 		.word	-1076896548
 4407 13d8 EC950B0C 		.word	202085868
 4408 13dc 22FEEE3F 		.word	1072627234
 4409 13e0 1A22AE26 		.word	648946202
 4410 13e4 5648E03F 		.word	1071663190
 4411 13e8 E90475D2 		.word	-764082967
 4412 13ec 388CEB3F 		.word	1072401464
 4413 13f0 E90475D2 		.word	-764082967
 4414 13f4 388CEBBF 		.word	-1075082184
 4415 13f8 1A22AE26 		.word	648946202
 4416 13fc 5648E03F 		.word	1071663190
 4417 1400 220DD82E 		.word	785911074
 4418 1404 CF95E93F 		.word	1072272847
 4419 1408 578E0C0D 		.word	218926679
 4420 140c 4038E33F 		.word	1071855680
 4421 1410 578E0C0D 		.word	218926679
 4422 1414 4038E3BF 		.word	-1075627968
 4423 1418 220DD82E 		.word	785911074
 4424 141c CF95E93F 		.word	1072272847
 4425 1420 CF7BECD4 		.word	-722699313
 4426 1424 1601C23F 		.word	1069678870
 4427 1428 BBCF468E 		.word	-1907961925
 4428 142c 8EAEEF3F 		.word	1072672398
 4429 1430 BBCF468E 		.word	-1907961925
 4430 1434 8EAEEFBF 		.word	-1074811250
 4431 1438 CF7BECD4 		.word	-722699313
 4432 143c 1601C23F 		.word	1069678870
 4433 1440 C8B2AD55 		.word	1437446856
 4434 1444 CE9FEF3F 		.word	1072668622
 4435 1448 148DCDB0 		.word	-1328706284
 4436 144c DB8EC33F 		.word	1069780699
 4437 1450 148DCDB0 		.word	-1328706284
 4438 1454 DB8EC3BF 		.word	-1077702949
 4439 1458 C8B2AD55 		.word	1437446856
 4440 145c CE9FEF3F 		.word	1072668622
 4441 1460 17EAE8E3 		.word	-471274985
 4442 1464 80E7E23F 		.word	1071835008
 4443 1468 D580EAF5 		.word	-169180971
 4444 146c B1D1E93F 		.word	1072288177
 4445 1470 D580EAF5 		.word	-169180971
 4446 1474 B1D1E9BF 		.word	-1075195471
 4447 1478 17EAE8E3 		.word	-471274985
 4448 147c 80E7E23F 		.word	1071835008
 4449 1480 051492FE 		.word	-23981051
 4450 1484 8958EB3F 		.word	1072388233
 4451 1488 E1C51774 		.word	1947715041
 4452 148c 909EE03F 		.word	1071685264
 4453 1490 E1C51774 		.word	1947715041
 4454 1494 909EE0BF 		.word	-1075798384
 4455 1498 051492FE 		.word	-23981051
 4456 149c 8958EB3F 		.word	1072388233
 4457 14a0 1B1A101E 		.word	504371739
 4458 14a4 CA56CE3F 		.word	1070487242
 4459 14a8 5D20F753 		.word	1408704605
 4460 14ac 8F16EF3F 		.word	1072633487
 4461 14b0 5D20F753 		.word	1408704605
 4462 14b4 8F16EFBF 		.word	-1074850161
 4463 14b8 1B1A101E 		.word	504371739
 4464 14bc CA56CE3F 		.word	1070487242
 4465 14c0 AC8029CA 		.word	-903249748
 4466 14c4 0C10EE3F 		.word	1072566284
 4467 14c8 93A69E37 		.word	933144211
 4468 14cc 27EED53F 		.word	1070984743
 4469 14d0 93A69E37 		.word	933144211
 4470 14d4 27EED5BF 		.word	-1076498905
 4471 14d8 AC8029CA 		.word	-903249748
 4472 14dc 0C10EE3F 		.word	1072566284
 4473 14e0 09407F6C 		.word	1820278793
 4474 14e4 0D02DB3F 		.word	1071317517
 4475 14e8 92BDB2FE 		.word	-21840494
 4476 14ec D402ED3F 		.word	1072497364
 4477 14f0 92BDB2FE 		.word	-21840494
 4478 14f4 D402EDBF 		.word	-1074986284
 4479 14f8 09407F6C 		.word	1820278793
 4480 14fc 0D02DB3F 		.word	1071317517
 4481 1500 E5554F57 		.word	1464817125
 4482 1504 0094E73F 		.word	1072141312
 4483 1508 50725D2A 		.word	710767184
 4484 150c 8DA2E53F 		.word	1072013965
 4485 1510 50725D2A 		.word	710767184
 4486 1514 8DA2E5BF 		.word	-1075469683
 4487 1518 E5554F57 		.word	1464817125
 4488 151c 0094E73F 		.word	1072141312
 4489 1520 43CD90D2 		.word	-762262205
 4490 1524 00FCA53F 		.word	1067842560
 4491 1528 DF81DBDA 		.word	-623148577
 4492 152c 71F8EF3F 		.word	1072691313
 4493 1530 DF81DBDA 		.word	-623148577
 4494 1534 71F8EFBF 		.word	-1074792335
 4495 1538 43CD90D2 		.word	-762262205
 4496 153c 00FCA53F 		.word	1067842560
 4497 1540 F8D3F11D 		.word	502387704
 4498 1544 25FCEF3F 		.word	1072692261
 4499 1548 01CFD131 		.word	835833601
 4500 154c 37699F3F 		.word	1067411767
 4501 1550 01CFD131 		.word	835833601
 4502 1554 37699FBF 		.word	-1080071881
 4503 1558 F8D3F11D 		.word	502387704
 4504 155c 25FCEF3F 		.word	1072692261
 4505 1560 74708395 		.word	-1786548108
 4506 1564 34ECE53F 		.word	1072032820
 4507 1568 8DD2A88D 		.word	-1918315891
 4508 156c 944FE73F 		.word	1072123796
 4509 1570 8DD2A88D 		.word	-1918315891
 4510 1574 944FE7BF 		.word	-1075359852
 4511 1578 74708395 		.word	-1786548108
 4512 157c 34ECE53F 		.word	1072032820
 4513 1580 9FEFE020 		.word	551612319
 4514 1584 B22CED3F 		.word	1072508082
 4515 1588 E5A1DE27 		.word	668901861
 4516 158c 414BDA3F 		.word	1071270721
 4517 1590 E5A1DE27 		.word	668901861
 4518 1594 414BDABF 		.word	-1076212927
 4519 1598 9FEFE020 		.word	551612319
 4520 159c B22CED3F 		.word	1072508082
 4521 15a0 177EC77D 		.word	2110225943
 4522 15a4 9DAAD63F 		.word	1071032989
 4523 15a8 DA47DEF7 		.word	-136427558
 4524 15ac 05EDED3F 		.word	1072557317
 4525 15b0 DA47DEF7 		.word	-136427558
 4526 15b4 05EDEDBF 		.word	-1074926331
 4527 15b8 177EC77D 		.word	2110225943
 4528 15bc 9DAAD63F 		.word	1071032989
 4529 15c0 9D9A08C9 		.word	-922183011
 4530 15c4 C92DEF3F 		.word	1072639433
 4531 15c8 86B212B3 		.word	-1290620282
 4532 15cc 8CCFCC3F 		.word	1070387084
 4533 15d0 86B212B3 		.word	-1290620282
 4534 15d4 8CCFCCBF 		.word	-1077096564
 4535 15d8 9D9A08C9 		.word	-922183011
 4536 15dc C92DEF3F 		.word	1072639433
 4537 15e0 7E8E2ABB 		.word	-1154838914
 4538 15e4 26F4E03F 		.word	1071707174
 4539 15e8 B4130047 		.word	1191187380
 4540 15ec CD23EB3F 		.word	1072374733
 4541 15f0 B4130047 		.word	1191187380
 4542 15f4 CD23EBBF 		.word	-1075108915
 4543 15f8 7E8E2ABB 		.word	-1154838914
 4544 15fc 26F4E03F 		.word	1071707174
 4545 1600 37F9BAEA 		.word	-356845257
 4546 1604 950CEA3F 		.word	1072303253
 4547 1608 A89C6227 		.word	660774056
 4548 160c 0796E23F 		.word	1071814151
 4549 1610 A89C6227 		.word	660774056
 4550 1614 0796E2BF 		.word	-1075669497
 4551 1618 37F9BAEA 		.word	-356845257
 4552 161c 950CEA3F 		.word	1072303253
 4553 1620 F2C59785 		.word	-2053650958
 4554 1624 DF1BC53F 		.word	1069882335
 4555 1628 DB41AEFF 		.word	-5357093
 4556 162c D58FEF3F 		.word	1072664533
 4557 1630 DB41AEFF 		.word	-5357093
 4558 1634 D58FEFBF 		.word	-1074819115
 4559 1638 F2C59785 		.word	-2053650958
 4560 163c DF1BC53F 		.word	1069882335
 4561 1640 8641E417 		.word	400834950
 4562 1644 16BCEF3F 		.word	1072675862
 4563 1648 1D83BA47 		.word	1203405597
 4564 164c A072C03F 		.word	1069576864
 4565 1650 1D83BA47 		.word	1203405597
 4566 1654 A072C0BF 		.word	-1077906784
 4567 1658 8641E417 		.word	400834950
 4568 165c 16BCEF3F 		.word	1072675862
 4569 1660 22EBDF85 		.word	-2048922846
 4570 1664 4188E33F 		.word	1071876161
 4571 1668 D76D8EE4 		.word	-460427817
 4572 166c EF58E93F 		.word	1072257263
 4573 1670 D76D8EE4 		.word	-460427817
 4574 1674 EF58E9BF 		.word	-1075226385
 4575 1678 22EBDF85 		.word	-2048922846
 4576 167c 4188E33F 		.word	1071876161
 4577 1680 EA8093C4 		.word	-996966166
 4578 1684 D7BEEB3F 		.word	1072414423
 4579 1688 1012E74B 		.word	1273434640
 4580 168c F6E2DF3F 		.word	1071637238
 4581 1690 1012E74B 		.word	1273434640
 4582 1694 F6E2DFBF 		.word	-1075846410
 4583 1698 EA8093C4 		.word	-996966166
 4584 169c D7BEEB3F 		.word	1072414423
 4585 16a0 90DBDBCF 		.word	-807674992
 4586 16a4 D9B0D03F 		.word	1070641369
 4587 16a8 BC9D5AE2 		.word	-497377860
 4588 16ac 82E4EE3F 		.word	1072620674
 4589 16b0 BC9D5AE2 		.word	-497377860
 4590 16b4 82E4EEBF 		.word	-1074862974
 4591 16b8 90DBDBCF 		.word	-807674992
 4592 16bc D9B0D03F 		.word	1070641369
 4593 16c0 FC9F7204 		.word	74620924
 4594 16c4 9F52EE3F 		.word	1072583327
 4595 16c8 541057A5 		.word	-1521020844
 4596 16cc B872D43F 		.word	1070887608
 4597 16d0 541057A5 		.word	-1521020844
 4598 16d4 B872D4BF 		.word	-1076596040
 4599 16d8 FC9F7204 		.word	74620924
 4600 16dc 9F52EE3F 		.word	1072583327
 4601 16e0 0B009749 		.word	1234632715
 4602 16e4 7F6CDC3F 		.word	1071410303
 4603 16e8 00B9A069 		.word	1772140800
 4604 16ec C1ABEC3F 		.word	1072475073
 4605 16f0 00B9A069 		.word	1772140800
 4606 16f4 C1ABECBF 		.word	-1075008575
 4607 16f8 0B009749 		.word	1234632715
 4608 16fc 7F6CDC3F 		.word	1071410303
 4609 1700 CC7AB533 		.word	867531468
 4610 1704 1B1AE83F 		.word	1072175643
 4611 1708 9BA0599F 		.word	-1621516133
 4612 170c C00CE53F 		.word	1071975616
 4613 1710 9BA0599F 		.word	-1621516133
 4614 1714 C00CE5BF 		.word	-1075508032
 4615 1718 CC7AB533 		.word	867531468
 4616 171c 1B1AE83F 		.word	1072175643
 4617 1720 B309D734 		.word	886507955
 4618 1724 0144B13F 		.word	1068581889
 4619 1728 C473B6EC 		.word	-323587132
 4620 172c 58EDEF3F 		.word	1072688472
 4621 1730 C473B6EC 		.word	-323587132
 4622 1734 58EDEFBF 		.word	-1074795176
 4623 1738 B309D734 		.word	886507955
 4624 173c 0144B13F 		.word	1068581889
 4625 1740 40392EAF 		.word	-1355925184
 4626 1744 F3E5EF3F 		.word	1072686579
 4627 1748 96202779 		.word	2032607382
 4628 174c 1166B43F 		.word	1068787217
 4629 1750 96202779 		.word	2032607382
 4630 1754 1166B4BF 		.word	-1078696431
 4631 1758 40392EAF 		.word	-1355925184
 4632 175c F3E5EF3F 		.word	1072686579
 4633 1760 0400EC45 		.word	1173094404
 4634 1764 A1C0E43F 		.word	1071956129
 4635 1768 CC58E91A 		.word	451500236
 4636 176c C55BE83F 		.word	1072192453
 4637 1770 CC58E91A 		.word	451500236
 4638 1774 C55BE8BF 		.word	-1075291195
 4639 1778 0400EC45 		.word	1173094404
 4640 177c A1C0E43F 		.word	1071956129
 4641 1780 F33C2352 		.word	1378041075
 4642 1784 8E7EEC3F 		.word	1072463502
 4643 1788 5BDBE9E8 		.word	-387327141
 4644 178c 1620DD3F 		.word	1071456278
 4645 1790 5BDBE9E8 		.word	-387327141
 4646 1794 1620DDBF 		.word	-1076027370
 4647 1798 F33C2352 		.word	1378041075
 4648 179c 8E7EEC3F 		.word	1072463502
 4649 17a0 B71404FA 		.word	-100395849
 4650 17a4 CEB3D33F 		.word	1070838734
 4651 17a8 44976ADB 		.word	-613771452
 4652 17ac 2772EE3F 		.word	1072591399
 4653 17b0 44976ADB 		.word	-613771452
 4654 17b4 2772EEBF 		.word	-1074892249
 4655 17b8 B71404FA 		.word	-100395849
 4656 17bc CEB3D33F 		.word	1070838734
 4657 17c0 84BFC3D3 		.word	-742146172
 4658 17c4 B2C9EE3F 		.word	1072613810
 4659 17c8 775176D7 		.word	-680111753
 4660 17cc A072D13F 		.word	1070690976
 4661 17d0 775176D7 		.word	-680111753
 4662 17d4 A072D1BF 		.word	-1076792672
 4663 17d8 84BFC3D3 		.word	-742146172
 4664 17dc B2C9EE3F 		.word	1072613810
 4665 17e0 67D03F96 		.word	-1774202777
 4666 17e4 0534DF3F 		.word	1071592453
 4667 17e8 DD7753E1 		.word	-514623523
 4668 17ec 64F0EB3F 		.word	1072427108
 4669 17f0 DD7753E1 		.word	-514623523
 4670 17f4 64F0EBBF 		.word	-1075056540
 4671 17f8 67D03F96 		.word	-1774202777
 4672 17fc 0534DF3F 		.word	1071592453
 4673 1800 A29DD46F 		.word	1876204962
 4674 1804 161BE93F 		.word	1072241430
 4675 1808 4483C538 		.word	952468292
 4676 180c 82D7E33F 		.word	1071896450
 4677 1810 4483C538 		.word	952468292
 4678 1814 82D7E3BF 		.word	-1075587198
 4679 1818 A29DD46F 		.word	1876204962
 4680 181c 161BE93F 		.word	1072241430
 4681 1820 C99FAECB 		.word	-877748279
 4682 1824 0EC7BD3F 		.word	1069401870
 4683 1828 21B7FE6C 		.word	1828632353
 4684 182c 64C8EF3F 		.word	1072679012
 4685 1830 21B7FE6C 		.word	1828632353
 4686 1834 64C8EFBF 		.word	-1074804636
 4687 1838 C99FAECB 		.word	-877748279
 4688 183c 0EC7BD3F 		.word	1069401870
 4689 1840 6E3DE629 		.word	702954862
 4690 1844 A67EEF3F 		.word	1072660134
 4691 1848 B24AF604 		.word	83249842
 4692 184c 13A8C63F 		.word	1069983763
 4693 1850 B24AF604 		.word	83249842
 4694 1854 13A8C6BF 		.word	-1077499885
 4695 1858 6E3DE629 		.word	702954862
 4696 185c A67EEF3F 		.word	1072660134
 4697 1860 1FAC98FB 		.word	-73880545
 4698 1864 D543E23F 		.word	1071793109
 4699 1868 C89A11C8 		.word	-938370360
 4700 186c 7846EA3F 		.word	1072318072
 4701 1870 C89A11C8 		.word	-938370360
 4702 1874 7846EABF 		.word	-1075165576
 4703 1878 1FAC98FB 		.word	-73880545
 4704 187c D543E23F 		.word	1071793109
 4705 1880 74143CB4 		.word	-1271131020
 4706 1884 04EEEA3F 		.word	1072360964
 4707 1888 EB6C33AF 		.word	-1355584277
 4708 188c 1549E13F 		.word	1071728917
 4709 1890 EB6C33AF 		.word	-1355584277
 4710 1894 1549E1BF 		.word	-1075754731
 4711 1898 74143CB4 		.word	-1271131020
 4712 189c 04EEEA3F 		.word	1072360964
 4713 18a0 22673DEF 		.word	-281188574
 4714 18a4 3247CB3F 		.word	1070286642
 4715 18a8 DD92FF85 		.word	-2046848291
 4716 18ac D043EF3F 		.word	1072645072
 4717 18b0 DD92FF85 		.word	-2046848291
 4718 18b4 D043EFBF 		.word	-1074838576
 4719 18b8 22673DEF 		.word	-281188574
 4720 18bc 3247CB3F 		.word	1070286642
 4721 18c0 600241CB 		.word	-884932000
 4722 18c4 D7C8ED3F 		.word	1072548055
 4723 18c8 F618240F 		.word	254023926
 4724 18cc 3466D73F 		.word	1071081012
 4725 18d0 F618240F 		.word	254023926
 4726 18d4 3466D7BF 		.word	-1076402636
 4727 18d8 600241CB 		.word	-884932000
 4728 18dc D7C8ED3F 		.word	1072548055
 4729 18e0 FFBD4161 		.word	1631698431
 4730 18e4 7193D93F 		.word	1071223665
 4731 18e8 B13EE952 		.word	1391017649
 4732 18ec 6F55ED3F 		.word	1072518511
 4733 18f0 B13EE952 		.word	1391017649
 4734 18f4 6F55EDBF 		.word	-1074965137
 4735 18f8 FFBD4161 		.word	1631698431
 4736 18fc 7193D93F 		.word	1071223665
 4737 1900 7A6D17B3 		.word	-1290310278
 4738 1904 420AE73F 		.word	1072106050
 4739 1908 E91B1CA3 		.word	-1558438935
 4740 190c 0335E63F 		.word	1072051459
 4741 1910 E91B1CA3 		.word	-1558438935
 4742 1914 0335E6BF 		.word	-1075432189
 4743 1918 7A6D17B3 		.word	-1290310278
 4744 191c 420AE73F 		.word	1072106050
 4745 1920 FD0EE3BB 		.word	-1142747395
 4746 1924 36D9923F 		.word	1066588470
 4747 1928 A1514BB4 		.word	-1270132319
 4748 192c 9CFEEF3F 		.word	1072692892
 4749 1930 A1514BB4 		.word	-1270132319
 4750 1934 9CFEEFBF 		.word	-1074790756
 4751 1938 FD0EE3BB 		.word	-1142747395
 4752 193c 36D9923F 		.word	1066588470
 4753 1940 A1514BB4 		.word	-1270132319
 4754 1944 9CFEEF3F 		.word	1072692892
 4755 1948 FD0EE3BB 		.word	-1142747395
 4756 194c 36D9923F 		.word	1066588470
 4757 1950 FD0EE3BB 		.word	-1142747395
 4758 1954 36D992BF 		.word	-1080895178
 4759 1958 A1514BB4 		.word	-1270132319
 4760 195c 9CFEEF3F 		.word	1072692892
 4761 1960 E91B1CA3 		.word	-1558438935
 4762 1964 0335E63F 		.word	1072051459
 4763 1968 7A6D17B3 		.word	-1290310278
 4764 196c 420AE73F 		.word	1072106050
 4765 1970 7A6D17B3 		.word	-1290310278
 4766 1974 420AE7BF 		.word	-1075377598
 4767 1978 E91B1CA3 		.word	-1558438935
 4768 197c 0335E63F 		.word	1072051459
 4769 1980 B13EE952 		.word	1391017649
 4770 1984 6F55ED3F 		.word	1072518511
 4771 1988 FFBD4161 		.word	1631698431
 4772 198c 7193D93F 		.word	1071223665
 4773 1990 FFBD4161 		.word	1631698431
 4774 1994 7193D9BF 		.word	-1076259983
 4775 1998 B13EE952 		.word	1391017649
 4776 199c 6F55ED3F 		.word	1072518511
 4777 19a0 F618240F 		.word	254023926
 4778 19a4 3466D73F 		.word	1071081012
 4779 19a8 600241CB 		.word	-884932000
 4780 19ac D7C8ED3F 		.word	1072548055
 4781 19b0 600241CB 		.word	-884932000
 4782 19b4 D7C8EDBF 		.word	-1074935593
 4783 19b8 F618240F 		.word	254023926
 4784 19bc 3466D73F 		.word	1071081012
 4785 19c0 DD92FF85 		.word	-2046848291
 4786 19c4 D043EF3F 		.word	1072645072
 4787 19c8 22673DEF 		.word	-281188574
 4788 19cc 3247CB3F 		.word	1070286642
 4789 19d0 22673DEF 		.word	-281188574
 4790 19d4 3247CBBF 		.word	-1077197006
 4791 19d8 DD92FF85 		.word	-2046848291
 4792 19dc D043EF3F 		.word	1072645072
 4793 19e0 EB6C33AF 		.word	-1355584277
 4794 19e4 1549E13F 		.word	1071728917
 4795 19e8 74143CB4 		.word	-1271131020
 4796 19ec 04EEEA3F 		.word	1072360964
 4797 19f0 74143CB4 		.word	-1271131020
 4798 19f4 04EEEABF 		.word	-1075122684
 4799 19f8 EB6C33AF 		.word	-1355584277
 4800 19fc 1549E13F 		.word	1071728917
 4801 1a00 C89A11C8 		.word	-938370360
 4802 1a04 7846EA3F 		.word	1072318072
 4803 1a08 1FAC98FB 		.word	-73880545
 4804 1a0c D543E23F 		.word	1071793109
 4805 1a10 1FAC98FB 		.word	-73880545
 4806 1a14 D543E2BF 		.word	-1075690539
 4807 1a18 C89A11C8 		.word	-938370360
 4808 1a1c 7846EA3F 		.word	1072318072
 4809 1a20 B24AF604 		.word	83249842
 4810 1a24 13A8C63F 		.word	1069983763
 4811 1a28 6E3DE629 		.word	702954862
 4812 1a2c A67EEF3F 		.word	1072660134
 4813 1a30 6E3DE629 		.word	702954862
 4814 1a34 A67EEFBF 		.word	-1074823514
 4815 1a38 B24AF604 		.word	83249842
 4816 1a3c 13A8C63F 		.word	1069983763
 4817 1a40 21B7FE6C 		.word	1828632353
 4818 1a44 64C8EF3F 		.word	1072679012
 4819 1a48 C99FAECB 		.word	-877748279
 4820 1a4c 0EC7BD3F 		.word	1069401870
 4821 1a50 C99FAECB 		.word	-877748279
 4822 1a54 0EC7BDBF 		.word	-1078081778
 4823 1a58 21B7FE6C 		.word	1828632353
 4824 1a5c 64C8EF3F 		.word	1072679012
 4825 1a60 4483C538 		.word	952468292
 4826 1a64 82D7E33F 		.word	1071896450
 4827 1a68 A29DD46F 		.word	1876204962
 4828 1a6c 161BE93F 		.word	1072241430
 4829 1a70 A29DD46F 		.word	1876204962
 4830 1a74 161BE9BF 		.word	-1075242218
 4831 1a78 4483C538 		.word	952468292
 4832 1a7c 82D7E33F 		.word	1071896450
 4833 1a80 DD7753E1 		.word	-514623523
 4834 1a84 64F0EB3F 		.word	1072427108
 4835 1a88 67D03F96 		.word	-1774202777
 4836 1a8c 0534DF3F 		.word	1071592453
 4837 1a90 67D03F96 		.word	-1774202777
 4838 1a94 0534DFBF 		.word	-1075891195
 4839 1a98 DD7753E1 		.word	-514623523
 4840 1a9c 64F0EB3F 		.word	1072427108
 4841 1aa0 775176D7 		.word	-680111753
 4842 1aa4 A072D13F 		.word	1070690976
 4843 1aa8 84BFC3D3 		.word	-742146172
 4844 1aac B2C9EE3F 		.word	1072613810
 4845 1ab0 84BFC3D3 		.word	-742146172
 4846 1ab4 B2C9EEBF 		.word	-1074869838
 4847 1ab8 775176D7 		.word	-680111753
 4848 1abc A072D13F 		.word	1070690976
 4849 1ac0 44976ADB 		.word	-613771452
 4850 1ac4 2772EE3F 		.word	1072591399
 4851 1ac8 B71404FA 		.word	-100395849
 4852 1acc CEB3D33F 		.word	1070838734
 4853 1ad0 B71404FA 		.word	-100395849
 4854 1ad4 CEB3D3BF 		.word	-1076644914
 4855 1ad8 44976ADB 		.word	-613771452
 4856 1adc 2772EE3F 		.word	1072591399
 4857 1ae0 5BDBE9E8 		.word	-387327141
 4858 1ae4 1620DD3F 		.word	1071456278
 4859 1ae8 F33C2352 		.word	1378041075
 4860 1aec 8E7EEC3F 		.word	1072463502
 4861 1af0 F33C2352 		.word	1378041075
 4862 1af4 8E7EECBF 		.word	-1075020146
 4863 1af8 5BDBE9E8 		.word	-387327141
 4864 1afc 1620DD3F 		.word	1071456278
 4865 1b00 CC58E91A 		.word	451500236
 4866 1b04 C55BE83F 		.word	1072192453
 4867 1b08 0400EC45 		.word	1173094404
 4868 1b0c A1C0E43F 		.word	1071956129
 4869 1b10 0400EC45 		.word	1173094404
 4870 1b14 A1C0E4BF 		.word	-1075527519
 4871 1b18 CC58E91A 		.word	451500236
 4872 1b1c C55BE83F 		.word	1072192453
 4873 1b20 96202779 		.word	2032607382
 4874 1b24 1166B43F 		.word	1068787217
 4875 1b28 40392EAF 		.word	-1355925184
 4876 1b2c F3E5EF3F 		.word	1072686579
 4877 1b30 40392EAF 		.word	-1355925184
 4878 1b34 F3E5EFBF 		.word	-1074797069
 4879 1b38 96202779 		.word	2032607382
 4880 1b3c 1166B43F 		.word	1068787217
 4881 1b40 C473B6EC 		.word	-323587132
 4882 1b44 58EDEF3F 		.word	1072688472
 4883 1b48 B309D734 		.word	886507955
 4884 1b4c 0144B13F 		.word	1068581889
 4885 1b50 B309D734 		.word	886507955
 4886 1b54 0144B1BF 		.word	-1078901759
 4887 1b58 C473B6EC 		.word	-323587132
 4888 1b5c 58EDEF3F 		.word	1072688472
 4889 1b60 9BA0599F 		.word	-1621516133
 4890 1b64 C00CE53F 		.word	1071975616
 4891 1b68 CC7AB533 		.word	867531468
 4892 1b6c 1B1AE83F 		.word	1072175643
 4893 1b70 CC7AB533 		.word	867531468
 4894 1b74 1B1AE8BF 		.word	-1075308005
 4895 1b78 9BA0599F 		.word	-1621516133
 4896 1b7c C00CE53F 		.word	1071975616
 4897 1b80 00B9A069 		.word	1772140800
 4898 1b84 C1ABEC3F 		.word	1072475073
 4899 1b88 0B009749 		.word	1234632715
 4900 1b8c 7F6CDC3F 		.word	1071410303
 4901 1b90 0B009749 		.word	1234632715
 4902 1b94 7F6CDCBF 		.word	-1076073345
 4903 1b98 00B9A069 		.word	1772140800
 4904 1b9c C1ABEC3F 		.word	1072475073
 4905 1ba0 541057A5 		.word	-1521020844
 4906 1ba4 B872D43F 		.word	1070887608
 4907 1ba8 FC9F7204 		.word	74620924
 4908 1bac 9F52EE3F 		.word	1072583327
 4909 1bb0 FC9F7204 		.word	74620924
 4910 1bb4 9F52EEBF 		.word	-1074900321
 4911 1bb8 541057A5 		.word	-1521020844
 4912 1bbc B872D43F 		.word	1070887608
 4913 1bc0 BC9D5AE2 		.word	-497377860
 4914 1bc4 82E4EE3F 		.word	1072620674
 4915 1bc8 90DBDBCF 		.word	-807674992
 4916 1bcc D9B0D03F 		.word	1070641369
 4917 1bd0 90DBDBCF 		.word	-807674992
 4918 1bd4 D9B0D0BF 		.word	-1076842279
 4919 1bd8 BC9D5AE2 		.word	-497377860
 4920 1bdc 82E4EE3F 		.word	1072620674
 4921 1be0 1012E74B 		.word	1273434640
 4922 1be4 F6E2DF3F 		.word	1071637238
 4923 1be8 EA8093C4 		.word	-996966166
 4924 1bec D7BEEB3F 		.word	1072414423
 4925 1bf0 EA8093C4 		.word	-996966166
 4926 1bf4 D7BEEBBF 		.word	-1075069225
 4927 1bf8 1012E74B 		.word	1273434640
 4928 1bfc F6E2DF3F 		.word	1071637238
 4929 1c00 D76D8EE4 		.word	-460427817
 4930 1c04 EF58E93F 		.word	1072257263
 4931 1c08 22EBDF85 		.word	-2048922846
 4932 1c0c 4188E33F 		.word	1071876161
 4933 1c10 22EBDF85 		.word	-2048922846
 4934 1c14 4188E3BF 		.word	-1075607487
 4935 1c18 D76D8EE4 		.word	-460427817
 4936 1c1c EF58E93F 		.word	1072257263
 4937 1c20 1D83BA47 		.word	1203405597
 4938 1c24 A072C03F 		.word	1069576864
 4939 1c28 8641E417 		.word	400834950
 4940 1c2c 16BCEF3F 		.word	1072675862
 4941 1c30 8641E417 		.word	400834950
 4942 1c34 16BCEFBF 		.word	-1074807786
 4943 1c38 1D83BA47 		.word	1203405597
 4944 1c3c A072C03F 		.word	1069576864
 4945 1c40 DB41AEFF 		.word	-5357093
 4946 1c44 D58FEF3F 		.word	1072664533
 4947 1c48 F2C59785 		.word	-2053650958
 4948 1c4c DF1BC53F 		.word	1069882335
 4949 1c50 F2C59785 		.word	-2053650958
 4950 1c54 DF1BC5BF 		.word	-1077601313
 4951 1c58 DB41AEFF 		.word	-5357093
 4952 1c5c D58FEF3F 		.word	1072664533
 4953 1c60 A89C6227 		.word	660774056
 4954 1c64 0796E23F 		.word	1071814151
 4955 1c68 37F9BAEA 		.word	-356845257
 4956 1c6c 950CEA3F 		.word	1072303253
 4957 1c70 37F9BAEA 		.word	-356845257
 4958 1c74 950CEABF 		.word	-1075180395
 4959 1c78 A89C6227 		.word	660774056
 4960 1c7c 0796E23F 		.word	1071814151
 4961 1c80 B4130047 		.word	1191187380
 4962 1c84 CD23EB3F 		.word	1072374733
 4963 1c88 7E8E2ABB 		.word	-1154838914
 4964 1c8c 26F4E03F 		.word	1071707174
 4965 1c90 7E8E2ABB 		.word	-1154838914
 4966 1c94 26F4E0BF 		.word	-1075776474
 4967 1c98 B4130047 		.word	1191187380
 4968 1c9c CD23EB3F 		.word	1072374733
 4969 1ca0 86B212B3 		.word	-1290620282
 4970 1ca4 8CCFCC3F 		.word	1070387084
 4971 1ca8 9D9A08C9 		.word	-922183011
 4972 1cac C92DEF3F 		.word	1072639433
 4973 1cb0 9D9A08C9 		.word	-922183011
 4974 1cb4 C92DEFBF 		.word	-1074844215
 4975 1cb8 86B212B3 		.word	-1290620282
 4976 1cbc 8CCFCC3F 		.word	1070387084
 4977 1cc0 DA47DEF7 		.word	-136427558
 4978 1cc4 05EDED3F 		.word	1072557317
 4979 1cc8 177EC77D 		.word	2110225943
 4980 1ccc 9DAAD63F 		.word	1071032989
 4981 1cd0 177EC77D 		.word	2110225943
 4982 1cd4 9DAAD6BF 		.word	-1076450659
 4983 1cd8 DA47DEF7 		.word	-136427558
 4984 1cdc 05EDED3F 		.word	1072557317
 4985 1ce0 E5A1DE27 		.word	668901861
 4986 1ce4 414BDA3F 		.word	1071270721
 4987 1ce8 9FEFE020 		.word	551612319
 4988 1cec B22CED3F 		.word	1072508082
 4989 1cf0 9FEFE020 		.word	551612319
 4990 1cf4 B22CEDBF 		.word	-1074975566
 4991 1cf8 E5A1DE27 		.word	668901861
 4992 1cfc 414BDA3F 		.word	1071270721
 4993 1d00 8DD2A88D 		.word	-1918315891
 4994 1d04 944FE73F 		.word	1072123796
 4995 1d08 74708395 		.word	-1786548108
 4996 1d0c 34ECE53F 		.word	1072032820
 4997 1d10 74708395 		.word	-1786548108
 4998 1d14 34ECE5BF 		.word	-1075450828
 4999 1d18 8DD2A88D 		.word	-1918315891
 5000 1d1c 944FE73F 		.word	1072123796
 5001 1d20 01CFD131 		.word	835833601
 5002 1d24 37699F3F 		.word	1067411767
 5003 1d28 F8D3F11D 		.word	502387704
 5004 1d2c 25FCEF3F 		.word	1072692261
 5005 1d30 F8D3F11D 		.word	502387704
 5006 1d34 25FCEFBF 		.word	-1074791387
 5007 1d38 01CFD131 		.word	835833601
 5008 1d3c 37699F3F 		.word	1067411767
 5009 1d40 DF81DBDA 		.word	-623148577
 5010 1d44 71F8EF3F 		.word	1072691313
 5011 1d48 43CD90D2 		.word	-762262205
 5012 1d4c 00FCA53F 		.word	1067842560
 5013 1d50 43CD90D2 		.word	-762262205
 5014 1d54 00FCA5BF 		.word	-1079641088
 5015 1d58 DF81DBDA 		.word	-623148577
 5016 1d5c 71F8EF3F 		.word	1072691313
 5017 1d60 50725D2A 		.word	710767184
 5018 1d64 8DA2E53F 		.word	1072013965
 5019 1d68 E5554F57 		.word	1464817125
 5020 1d6c 0094E73F 		.word	1072141312
 5021 1d70 E5554F57 		.word	1464817125
 5022 1d74 0094E7BF 		.word	-1075342336
 5023 1d78 50725D2A 		.word	710767184
 5024 1d7c 8DA2E53F 		.word	1072013965
 5025 1d80 92BDB2FE 		.word	-21840494
 5026 1d84 D402ED3F 		.word	1072497364
 5027 1d88 09407F6C 		.word	1820278793
 5028 1d8c 0D02DB3F 		.word	1071317517
 5029 1d90 09407F6C 		.word	1820278793
 5030 1d94 0D02DBBF 		.word	-1076166131
 5031 1d98 92BDB2FE 		.word	-21840494
 5032 1d9c D402ED3F 		.word	1072497364
 5033 1da0 93A69E37 		.word	933144211
 5034 1da4 27EED53F 		.word	1070984743
 5035 1da8 AC8029CA 		.word	-903249748
 5036 1dac 0C10EE3F 		.word	1072566284
 5037 1db0 AC8029CA 		.word	-903249748
 5038 1db4 0C10EEBF 		.word	-1074917364
 5039 1db8 93A69E37 		.word	933144211
 5040 1dbc 27EED53F 		.word	1070984743
 5041 1dc0 5D20F753 		.word	1408704605
 5042 1dc4 8F16EF3F 		.word	1072633487
 5043 1dc8 1B1A101E 		.word	504371739
 5044 1dcc CA56CE3F 		.word	1070487242
 5045 1dd0 1B1A101E 		.word	504371739
 5046 1dd4 CA56CEBF 		.word	-1076996406
 5047 1dd8 5D20F753 		.word	1408704605
 5048 1ddc 8F16EF3F 		.word	1072633487
 5049 1de0 E1C51774 		.word	1947715041
 5050 1de4 909EE03F 		.word	1071685264
 5051 1de8 051492FE 		.word	-23981051
 5052 1dec 8958EB3F 		.word	1072388233
 5053 1df0 051492FE 		.word	-23981051
 5054 1df4 8958EBBF 		.word	-1075095415
 5055 1df8 E1C51774 		.word	1947715041
 5056 1dfc 909EE03F 		.word	1071685264
 5057 1e00 D580EAF5 		.word	-169180971
 5058 1e04 B1D1E93F 		.word	1072288177
 5059 1e08 17EAE8E3 		.word	-471274985
 5060 1e0c 80E7E23F 		.word	1071835008
 5061 1e10 17EAE8E3 		.word	-471274985
 5062 1e14 80E7E2BF 		.word	-1075648640
 5063 1e18 D580EAF5 		.word	-169180971
 5064 1e1c B1D1E93F 		.word	1072288177
 5065 1e20 148DCDB0 		.word	-1328706284
 5066 1e24 DB8EC33F 		.word	1069780699
 5067 1e28 C8B2AD55 		.word	1437446856
 5068 1e2c CE9FEF3F 		.word	1072668622
 5069 1e30 C8B2AD55 		.word	1437446856
 5070 1e34 CE9FEFBF 		.word	-1074815026
 5071 1e38 148DCDB0 		.word	-1328706284
 5072 1e3c DB8EC33F 		.word	1069780699
 5073 1e40 BBCF468E 		.word	-1907961925
 5074 1e44 8EAEEF3F 		.word	1072672398
 5075 1e48 CF7BECD4 		.word	-722699313
 5076 1e4c 1601C23F 		.word	1069678870
 5077 1e50 CF7BECD4 		.word	-722699313
 5078 1e54 1601C2BF 		.word	-1077804778
 5079 1e58 BBCF468E 		.word	-1907961925
 5080 1e5c 8EAEEF3F 		.word	1072672398
 5081 1e60 578E0C0D 		.word	218926679
 5082 1e64 4038E33F 		.word	1071855680
 5083 1e68 220DD82E 		.word	785911074
 5084 1e6c CF95E93F 		.word	1072272847
 5085 1e70 220DD82E 		.word	785911074
 5086 1e74 CF95E9BF 		.word	-1075210801
 5087 1e78 578E0C0D 		.word	218926679
 5088 1e7c 4038E33F 		.word	1071855680
 5089 1e80 E90475D2 		.word	-764082967
 5090 1e84 388CEB3F 		.word	1072401464
 5091 1e88 1A22AE26 		.word	648946202
 5092 1e8c 5648E03F 		.word	1071663190
 5093 1e90 1A22AE26 		.word	648946202
 5094 1e94 5648E0BF 		.word	-1075820458
 5095 1e98 E90475D2 		.word	-764082967
 5096 1e9c 388CEB3F 		.word	1072401464
 5097 1ea0 F9EDDF1A 		.word	450883065
 5098 1ea4 DCDCCF3F 		.word	1070587100
 5099 1ea8 EC950B0C 		.word	202085868
 5100 1eac 22FEEE3F 		.word	1072627234
 5101 1eb0 EC950B0C 		.word	202085868
 5102 1eb4 22FEEEBF 		.word	-1074856414
 5103 1eb8 F9EDDF1A 		.word	450883065
 5104 1ebc DCDCCF3F 		.word	1070587100
 5105 1ec0 25CE70E8 		.word	-395260379
 5106 1ec4 EA31EE3F 		.word	1072574954
 5107 1ec8 243CAF80 		.word	-2135999452
 5108 1ecc D830D53F 		.word	1070936280
 5109 1ed0 243CAF80 		.word	-2135999452
 5110 1ed4 D830D5BF 		.word	-1076547368
 5111 1ed8 25CE70E8 		.word	-395260379
 5112 1edc EA31EE3F 		.word	1072574954
 5113 1ee0 01BD0423 		.word	587513089
 5114 1ee4 CFB7DB3F 		.word	1071364047
 5115 1ee8 F6328B89 		.word	-1987366154
 5116 1eec D9D7EC3F 		.word	1072486361
 5117 1ef0 F6328B89 		.word	-1987366154
 5118 1ef4 D9D7ECBF 		.word	-1074997287
 5119 1ef8 01BD0423 		.word	587513089
 5120 1efc CFB7DB3F 		.word	1071364047
 5121 1f00 B23DC36C 		.word	1824734642
 5122 1f04 83D7E73F 		.word	1072158595
 5123 1f08 37519738 		.word	949440823
 5124 1f0c 1058E53F 		.word	1071994896
 5125 1f10 37519738 		.word	949440823
 5126 1f14 1058E5BF 		.word	-1075488752
 5127 1f18 B23DC36C 		.word	1824734642
 5128 1f1c 83D7E73F 		.word	1072158595
 5129 1f20 E3D7C012 		.word	314628067
 5130 1f24 8D42AC3F 		.word	1068253837
 5131 1f28 5C578D0F 		.word	260921180
 5132 1f2c 83F3EF3F 		.word	1072690051
 5133 1f30 5C578D0F 		.word	260921180
 5134 1f34 83F3EFBF 		.word	-1074793597
 5135 1f38 E3D7C012 		.word	314628067
 5136 1f3c 8D42AC3F 		.word	1068253837
 5137 1f40 56F4F19F 		.word	-1611533226
 5138 1f44 53DDEF3F 		.word	1072684371
 5139 1f48 215B5D6A 		.word	1784503073
 5140 1f4c 5887B73F 		.word	1068992344
 5141 1f50 215B5D6A 		.word	1784503073
 5142 1f54 5887B7BF 		.word	-1078491304
 5143 1f58 56F4F19F 		.word	-1611533226
 5144 1f5c 53DDEF3F 		.word	1072684371
 5145 1f60 4773981B 		.word	462975815
 5146 1f64 B573E43F 		.word	1071936437
 5147 1f68 AAD44D9A 		.word	-1706175318
 5148 1f6c 7E9CE83F 		.word	1072209022
 5149 1f70 AAD44D9A 		.word	-1706175318
 5150 1f74 7E9CE8BF 		.word	-1075274626
 5151 1f78 4773981B 		.word	462975815
 5152 1f7c B573E43F 		.word	1071936437
 5153 1f80 07692B01 		.word	19622151
 5154 1f84 4250EC3F 		.word	1072451650
 5155 1f88 58CC8114 		.word	344050776
 5156 1f8c 8FD2DD3F 		.word	1071501967
 5157 1f90 58CC8114 		.word	344050776
 5158 1f94 8FD2DDBF 		.word	-1075981681
 5159 1f98 07692B01 		.word	19622151
 5160 1f9c 4250EC3F 		.word	1072451650
 5161 1fa0 8703ECDA 		.word	-622066809
 5162 1fa4 22F4D23F 		.word	1070789666
 5163 1fa8 F2F71D36 		.word	907933682
 5164 1fac 8490EE3F 		.word	1072599172
 5165 1fb0 F2F71D36 		.word	907933682
 5166 1fb4 8490EEBF 		.word	-1074884476
 5167 1fb8 8703ECDA 		.word	-622066809
 5168 1fbc 22F4D23F 		.word	1070789666
 5169 1fc0 8EA8E7E8 		.word	-387471218
 5170 1fc4 B2ADEE3F 		.word	1072606642
 5171 1fc8 71BBC3AB 		.word	-1413235855
 5172 1fcc BB33D23F 		.word	1070740411
 5173 1fd0 71BBC3AB 		.word	-1413235855
 5174 1fd4 BB33D2BF 		.word	-1076743237
 5175 1fd8 8EA8E7E8 		.word	-387471218
 5176 1fdc B2ADEE3F 		.word	1072606642
 5177 1fe0 1451F8EA 		.word	-352825068
 5178 1fe4 E083DE3F 		.word	1071547360
 5179 1fe8 B071A93F 		.word	1068069296
 5180 1fec DE20EC3F 		.word	1072439518
 5181 1ff0 B071A93F 		.word	1068069296
 5182 1ff4 DE20ECBF 		.word	-1075044130
 5183 1ff8 1451F8EA 		.word	-352825068
 5184 1ffc E083DE3F 		.word	1071547360
 5185 2000 CC981633 		.word	857118924
 5186 2004 45DCE83F 		.word	1072225349
 5187 2008 B16B8E17 		.word	395209649
 5188 200c FF25E43F 		.word	1071916543
 5189 2010 B16B8E17 		.word	395209649
 5190 2014 FF25E4BF 		.word	-1075567105
 5191 2018 CC981633 		.word	857118924
 5192 201c 45DCE83F 		.word	1072225349
 5193 2020 035C4924 		.word	608787459
 5194 2024 B7A7BA3F 		.word	1069197239
 5195 2028 840B2214 		.word	337775492
 5196 202c 79D3EF3F 		.word	1072681849
 5197 2030 840B2214 		.word	337775492
 5198 2034 79D3EFBF 		.word	-1074801799
 5199 2038 035C4924 		.word	608787459
 5200 203c B7A7BA3F 		.word	1069197239
 5201 2040 B7BBF57D 		.word	2113256375
 5202 2044 3F6CEF3F 		.word	1072655423
 5203 2048 C6649CE8 		.word	-392403770
 5204 204c 6633C83F 		.word	1070084966
 5205 2050 C6649CE8 		.word	-392403770
 5206 2054 6633C8BF 		.word	-1077398682
 5207 2058 B7BBF57D 		.word	2113256375
 5208 205c 3F6CEF3F 		.word	1072655423
 5209 2060 1B86BC8B 		.word	-1950579173
 5210 2064 F0F0E13F 		.word	1071771888
 5211 2068 9DE69F52 		.word	1386210973
 5212 206c 587FEA3F 		.word	1072332632
 5213 2070 9DE69F52 		.word	1386210973
 5214 2074 587FEABF 		.word	-1075151016
 5215 2078 1B86BC8B 		.word	-1950579173
 5216 207c F0F0E13F 		.word	1071771888
 5217 2080 D4C01659 		.word	1494663380
 5218 2084 32B7EA3F 		.word	1072346930
 5219 2088 B8B9F209 		.word	166902200
 5220 208c 5A9DE13F 		.word	1071750490
 5221 2090 B8B9F209 		.word	166902200
 5222 2094 5A9DE1BF 		.word	-1075733158
 5223 2098 D4C01659 		.word	1494663380
 5224 209c 32B7EA3F 		.word	1072346930
 5225 20a0 6643DCF2 		.word	-220445850
 5226 20a4 CBBDC93F 		.word	1070185931
 5227 20a8 849E78B1 		.word	-1317495164
 5228 20ac A258EF3F 		.word	1072650402
 5229 20b0 849E78B1 		.word	-1317495164
 5230 20b4 A258EFBF 		.word	-1074833246
 5231 20b8 6643DCF2 		.word	-220445850
 5232 20bc CBBDC93F 		.word	1070185931
 5233 20c0 888966A9 		.word	-1452897912
 5234 20c4 83A3ED3F 		.word	1072538499
 5235 20c8 C4AA4EB0 		.word	-1337021756
 5236 20cc E320D83F 		.word	1071128803
 5237 20d0 C4AA4EB0 		.word	-1337021756
 5238 20d4 E320D8BF 		.word	-1076354845
 5239 20d8 888966A9 		.word	-1452897912
 5240 20dc 83A3ED3F 		.word	1072538499
 5241 20e0 B0A4C82E 		.word	784901296
 5242 20e4 A5DAD83F 		.word	1071176357
 5243 20e8 F9ECB802 		.word	45673721
 5244 20ec 0B7DED3F 		.word	1072528651
 5245 20f0 F9ECB802 		.word	45673721
 5246 20f4 0B7DEDBF 		.word	-1074954997
 5247 20f8 B0A4C82E 		.word	784901296
 5248 20fc A5DAD83F 		.word	1071176357
 5249 2100 7582C173 		.word	1942061685
 5250 2104 0DC4E63F 		.word	1072088077
 5251 2108 10AF9184 		.word	-2070827248
 5252 210c F77CE63F 		.word	1072069879
 5253 2110 10AF9184 		.word	-2070827248
 5254 2114 F77CE6BF 		.word	-1075413769
 5255 2118 7582C173 		.word	1942061685
 5256 211c 0DC4E63F 		.word	1072088077
 5257 2120 710067FE 		.word	-26804111
 5258 2124 F021793F 		.word	1064903152
 5259 2128 928A8E85 		.word	-2054255982
 5260 212c D8FFEF3F 		.word	1072693208
 5261 2130 928A8E85 		.word	-2054255982
 5262 2134 D8FFEFBF 		.word	-1074790440
 5263 2138 710067FE 		.word	-26804111
 5264 213c F021793F 		.word	1064903152
 5265 2140 021D6221 		.word	560078082
 5266 2144 F6FFEF3F 		.word	1072693238
 5267 2148 BAA4CCBE 		.word	-1093884742
 5268 214c F821693F 		.word	1063854584
 5269 2150 BAA4CCBE 		.word	-1093884742
 5270 2154 F82169BF 		.word	-1083629064
 5271 2158 021D6221 		.word	560078082
 5272 215c F6FFEF3F 		.word	1072693238
 5273 2160 719CA1EA 		.word	-358507407
 5274 2164 D18EE63F 		.word	1072074449
 5275 2168 9CE22FED 		.word	-315628900
 5276 216c 5CB2E63F 		.word	1072083548
 5277 2170 9CE22FED 		.word	-315628900
 5278 2174 5CB2E6BF 		.word	-1075400100
 5279 2178 719CA1EA 		.word	-358507407
 5280 217c D18EE63F 		.word	1072074449
 5281 2180 4FA44584 		.word	-2075810737
 5282 2184 C486ED3F 		.word	1072531140
 5283 2188 44EDD586 		.word	-2032800444
 5284 218c 4BACD83F 		.word	1071164491
 5285 2190 44EDD586 		.word	-2032800444
 5286 2194 4BACD8BF 		.word	-1076319157
 5287 2198 4FA44584 		.word	-2075810737
 5288 219c C486ED3F 		.word	1072531140
 5289 21a0 3F90F3AA 		.word	-1426878401
 5290 21a4 6A4FD83F 		.word	1071140714
 5291 21a8 463D8BDD 		.word	-578077370
 5292 21ac 009AED3F 		.word	1072536064
 5293 21b0 463D8BDD 		.word	-578077370
 5294 21b4 009AEDBF 		.word	-1074947584
 5295 21b8 3F90F3AA 		.word	-1426878401
 5296 21bc 6A4FD83F 		.word	1071140714
 5297 21c0 5D6843ED 		.word	-314349475
 5298 21c4 A65DEF3F 		.word	1072651686
 5299 21c8 FA2AB6E9 		.word	-373937414
 5300 21cc 495BC93F 		.word	1070160713
 5301 21d0 FA2AB6E9 		.word	-373937414
 5302 21d4 495BC9BF 		.word	-1077322935
 5303 21d8 5D6843ED 		.word	-314349475
 5304 21dc A65DEF3F 		.word	1072651686
 5305 21e0 BF731317 		.word	387150783
 5306 21e4 50B2E13F 		.word	1071755856
 5307 21e8 8EB92C7A 		.word	2049751438
 5308 21ec 54A9EA3F 		.word	1072343380
 5309 21f0 8EB92C7A 		.word	2049751438
 5310 21f4 54A9EABF 		.word	-1075140268
 5311 21f8 BF731317 		.word	387150783
 5312 21fc 50B2E13F 		.word	1071755856
 5313 2200 D25A546E 		.word	1851022034
 5314 2204 678DEA3F 		.word	1072336231
 5315 2208 7248DC64 		.word	1692158066
 5316 220c 1BDCE13F 		.word	1071766555
 5317 2210 7248DC64 		.word	1692158066
 5318 2214 1BDCE1BF 		.word	-1075717093
 5319 2218 D25A546E 		.word	1851022034
 5320 221c 678DEA3F 		.word	1072336231
 5321 2220 0418C427 		.word	667162628
 5322 2224 1796C83F 		.word	1070110231
 5323 2228 EE3C8856 		.word	1451769070
 5324 222c 7567EF3F 		.word	1072654197
 5325 2230 EE3C8856 		.word	1451769070
 5326 2234 7567EFBF 		.word	-1074829451
 5327 2238 0418C427 		.word	667162628
 5328 223c 1796C83F 		.word	1070110231
 5329 2240 9E5CA72D 		.word	765942942
 5330 2244 0DD6EF3F 		.word	1072682509
 5331 2248 5CA824EB 		.word	-349919140
 5332 224c B6DFB93F 		.word	1069146038
 5333 2250 5CA824EB 		.word	-349919140
 5334 2254 B6DFB9BF 		.word	-1078337610
 5335 2258 9E5CA72D 		.word	765942942
 5336 225c 0DD6EF3F 		.word	1072682509
 5337 2260 80432A5B 		.word	1529496448
 5338 2264 7F39E43F 		.word	1071921535
 5339 2268 55461875 		.word	1964525141
 5340 226c 6ACCE83F 		.word	1072221290
 5341 2270 55461875 		.word	1964525141
 5342 2274 6ACCE8BF 		.word	-1075262358
 5343 2278 80432A5B 		.word	1529496448
 5344 227c 7F39E43F 		.word	1071921535
 5345 2280 F1E33149 		.word	1228006385
 5346 2284 D12CEC3F 		.word	1072442577
 5347 2288 25D83C6D 		.word	1832704037
 5348 228c A857DE3F 		.word	1071536040
 5349 2290 25D83C6D 		.word	1832704037
 5350 2294 A857DEBF 		.word	-1075947608
 5351 2298 F1E33149 		.word	1228006385
 5352 229c D12CEC3F 		.word	1072442577
 5353 22a0 BA545599 		.word	-1722460998
 5354 22a4 E663D23F 		.word	1070752742
 5355 22a8 0058E693 		.word	-1813620736
 5356 22ac 83A6EE3F 		.word	1072604803
 5357 22b0 0058E693 		.word	-1813620736
 5358 22b4 83A6EEBF 		.word	-1074878845
 5359 22b8 BA545599 		.word	-1722460998
 5360 22bc E663D23F 		.word	1070752742
 5361 22c0 306B0136 		.word	906062640
 5362 22c4 EC97EE3F 		.word	1072601068
 5363 22c8 2045954E 		.word	1318405408
 5364 22cc 1AC4D23F 		.word	1070777370
 5365 22d0 2045954E 		.word	1318405408
 5366 22d4 1AC4D2BF 		.word	-1076706278
 5367 22d8 306B0136 		.word	906062640
 5368 22dc EC97EE3F 		.word	1072601068
 5369 22e0 DE41A966 		.word	1722368478
 5370 22e4 FFFEDD3F 		.word	1071513343
 5371 22e8 04C04131 		.word	826392580
 5372 22ec 8344EC3F 		.word	1072448643
 5373 22f0 04C04131 		.word	826392580
 5374 22f4 8344ECBF 		.word	-1075035005
 5375 22f8 DE41A966 		.word	1722368478
 5376 22fc FFFEDD3F 		.word	1071513343
 5377 2300 881DDE1E 		.word	517873032
 5378 2304 87ACE83F 		.word	1072213127
 5379 2308 A2322B69 		.word	1764438690
 5380 230c 5A60E43F 		.word	1071931482
 5381 2310 A2322B69 		.word	1764438690
 5382 2314 5A60E4BF 		.word	-1075552166
 5383 2318 881DDE1E 		.word	517873032
 5384 231c 87ACE83F 		.word	1072213127
 5385 2320 A130C112 		.word	314650785
 5386 2324 874FB83F 		.word	1069043591
 5387 2328 8C531475 		.word	1964266380
 5388 232c FADAEF3F 		.word	1072683770
 5389 2330 8C531475 		.word	1964266380
 5390 2334 FADAEFBF 		.word	-1074799878
 5391 2338 A130C112 		.word	314650785
 5392 233c 874FB83F 		.word	1069043591
 5393 2340 D3BEB154 		.word	1420934867
 5394 2344 DCF4EF3F 		.word	1072690396
 5395 2348 17835FBD 		.word	-1117813993
 5396 234c 01B1AA3F 		.word	1068151041
 5397 2350 17835FBD 		.word	-1117813993
 5398 2354 01B1AABF 		.word	-1079332607
 5399 2358 D3BEB154 		.word	1420934867
 5400 235c DCF4EF3F 		.word	1072690396
 5401 2360 9F649751 		.word	1368876191
 5402 2364 C36AE53F 		.word	1071999683
 5403 2368 33D3E29C 		.word	-1662856397
 5404 236c B8C6E73F 		.word	1072154296
 5405 2370 33D3E29C 		.word	-1662856397
 5406 2374 B8C6E7BF 		.word	-1075329352
 5407 2378 9F649751 		.word	1368876191
 5408 237c C36AE53F 		.word	1071999683
 5409 2380 60A09927 		.word	664379488
 5410 2384 B3E2EC3F 		.word	1072489139
 5411 2388 9356FD14 		.word	352147091
 5412 238c 788ADB3F 		.word	1071352440
 5413 2390 9356FD14 		.word	352147091
 5414 2394 788ADBBF 		.word	-1076131208
 5415 2398 60A09927 		.word	664379488
 5416 239c B3E2EC3F 		.word	1072489139
 5417 23a0 B467F412 		.word	318007220
 5418 23a4 4060D53F 		.word	1070948416
 5419 23a8 7A193944 		.word	1144592762
 5420 23ac 8F29EE3F 		.word	1072572815
 5421 23b0 7A193944 		.word	1144592762
 5422 23b4 8F29EEBF 		.word	-1074910833
 5423 23b8 B467F412 		.word	318007220
 5424 23bc 4060D53F 		.word	1070948416
 5425 23c0 8C73CF14 		.word	349139852
 5426 23c4 5A04EF3F 		.word	1072628826
 5427 23c8 0238BD80 		.word	-2135083006
 5428 23cc 747BCF3F 		.word	1070562164
 5429 23d0 0238BD80 		.word	-2135083006
 5430 23d4 747BCFBF 		.word	-1076921484
 5431 23d8 8C73CF14 		.word	349139852
 5432 23dc 5A04EF3F 		.word	1072628826
 5433 23e0 B7B831EC 		.word	-332285769
 5434 23e4 F35DE03F 		.word	1071668723
 5435 23e8 E992E786 		.word	-2031643927
 5436 23ec 667FEB3F 		.word	1072398182
 5437 23f0 E992E786 		.word	-2031643927
 5438 23f4 667FEBBF 		.word	-1075085466
 5439 23f8 B7B831EC 		.word	-332285769
 5440 23fc F35DE03F 		.word	1071668723
 5441 2400 B2062BA4 		.word	-1540684110
 5442 2404 DFA4E93F 		.word	1072276703
 5443 2408 1FA649EC 		.word	-330717665
 5444 240c 2124E33F 		.word	1071850529
 5445 2410 1FA649EC 		.word	-330717665
 5446 2414 2124E3BF 		.word	-1075633119
 5447 2418 B2062BA4 		.word	-1540684110
 5448 241c DFA4E93F 		.word	1072276703
 5449 2420 0934FD4D 		.word	1308439561
 5450 2424 9964C23F 		.word	1069704345
 5451 2428 DCFD0CCB 		.word	-888341028
 5452 242c FBAAEF3F 		.word	1072671483
 5453 2430 DCFD0CCB 		.word	-888341028
 5454 2434 FBAAEFBF 		.word	-1074812165
 5455 2438 0934FD4D 		.word	1308439561
 5456 243c 9964C23F 		.word	1069704345
 5457 2440 91177AAC 		.word	-1401284719
 5458 2444 9BA3EF3F 		.word	1072669595
 5459 2448 A71645F9 		.word	-112912729
 5460 244c 7B2BC33F 		.word	1069755259
 5461 2450 A71645F9 		.word	-112912729
 5462 2454 7B2BC3BF 		.word	-1077728389
 5463 2458 91177AAC 		.word	-1401284719
 5464 245c 9BA3EF3F 		.word	1072669595
 5465 2460 1510444B 		.word	1262751765
 5466 2464 C2FBE23F 		.word	1071840194
 5467 2468 C275F010 		.word	284194242
 5468 246c D1C2E93F 		.word	1072284369
 5469 2470 C275F010 		.word	284194242
 5470 2474 D1C2E9BF 		.word	-1075199279
 5471 2478 1510444B 		.word	1262751765
 5472 247c C2FBE23F 		.word	1071840194
 5473 2480 47BCFD14 		.word	352173127
 5474 2484 8F65EB3F 		.word	1072391567
 5475 2488 8CB03220 		.word	540192908
 5476 248c 1189E03F 		.word	1071679761
 5477 2490 8CB03220 		.word	540192908
 5478 2494 1189E0BF 		.word	-1075803887
 5479 2498 47BCFD14 		.word	352173127
 5480 249c 8F65EB3F 		.word	1072391567
 5481 24a0 48E32D46 		.word	1177412424
 5482 24a4 6BB8CE3F 		.word	1070512235
 5483 24a8 5F8F89BC 		.word	-1131835553
 5484 24ac 9010EF3F 		.word	1072631952
 5485 24b0 5F8F89BC 		.word	-1131835553
 5486 24b4 9010EFBF 		.word	-1074851696
 5487 24b8 48E32D46 		.word	1177412424
 5488 24bc 6BB8CE3F 		.word	1070512235
 5489 24c0 D966DC2F 		.word	802973401
 5490 24c4 A018EE3F 		.word	1072568480
 5491 24c8 B6B39D8B 		.word	-1952599114
 5492 24cc E7BED53F 		.word	1070972647
 5493 24d0 B6B39D8B 		.word	-1952599114
 5494 24d4 E7BED5BF 		.word	-1076511001
 5495 24d8 D966DC2F 		.word	802973401
 5496 24dc A018EE3F 		.word	1072568480
 5497 24e0 7219B31D 		.word	498276722
 5498 24e4 972FDB3F 		.word	1071329175
 5499 24e8 7B46CEE8 		.word	-389134725
 5500 24ec 30F8EC3F 		.word	1072494640
 5501 24f0 7B46CEE8 		.word	-389134725
 5502 24f4 30F8ECBF 		.word	-1074989008
 5503 24f8 7219B31D 		.word	498276722
 5504 24fc 972FDB3F 		.word	1071329175
 5505 2500 D297BF07 		.word	129996754
 5506 2504 F7A4E73F 		.word	1072145655
 5507 2508 DF23F7D5 		.word	-705223713
 5508 250c 0190E53F 		.word	1072009217
 5509 2510 DF23F7D5 		.word	-705223713
 5510 2514 0190E5BF 		.word	-1075474431
 5511 2518 D297BF07 		.word	129996754
 5512 251c F7A4E73F 		.word	1072145655
 5513 2520 864687A5 		.word	-1517861242
 5514 2524 BA8DA73F 		.word	1067945402
 5515 2528 64911BBB 		.word	-1155821212
 5516 252c 53F7EF3F 		.word	1072691027
 5517 2530 64911BBB 		.word	-1155821212
 5518 2534 53F7EFBF 		.word	-1074792621
 5519 2538 864687A5 		.word	-1517861242
 5520 253c BA8DA73F 		.word	1067945402
 5521 2540 79A6E29C 		.word	-1662867847
 5522 2544 E0FCEF3F 		.word	1072692448
 5523 2548 1D3BE54C 		.word	1290091293
 5524 254c 4F459C3F 		.word	1067205967
 5525 2550 1D3BE54C 		.word	1290091293
 5526 2554 4F459CBF 		.word	-1080277681
 5527 2558 79A6E29C 		.word	-1662867847
 5528 255c E0FCEF3F 		.word	1072692448
 5529 2560 106AE5BD 		.word	-1109038576
 5530 2564 7CFEE53F 		.word	1072037500
 5531 2568 4299078E 		.word	-1912104638
 5532 256c 553EE73F 		.word	1072119381
 5533 2570 4299078E 		.word	-1912104638
 5534 2574 553EE7BF 		.word	-1075364267
 5535 2578 106AE5BD 		.word	-1109038576
 5536 257c 7CFEE53F 		.word	1072037500
 5537 2580 DCFBCB7B 		.word	2076965852
 5538 2584 FC36ED3F 		.word	1072510716
 5539 2588 C00AB543 		.word	1135938240
 5540 258c 651DDA3F 		.word	1071258981
 5541 2590 C00AB543 		.word	1135938240
 5542 2594 651DDABF 		.word	-1076224667
 5543 2598 DCFBCB7B 		.word	2076965852
 5544 259c FC36ED3F 		.word	1072510716
 5545 25a0 B60C8A63 		.word	1669991606
 5546 25a4 98D9D63F 		.word	1071045016
 5547 25a8 818D6D0F 		.word	258837889
 5548 25ac 16E4ED3F 		.word	1072555030
 5549 25b0 818D6D0F 		.word	258837889
 5550 25b4 16E4EDBF 		.word	-1074928618
 5551 25b8 B60C8A63 		.word	1669991606
 5552 25bc 98D9D63F 		.word	1071045016
 5553 25c0 F0AE3A5A 		.word	1513795312
 5554 25c4 6833EF3F 		.word	1072640872
 5555 25c8 DD745D53 		.word	1398633693
 5556 25cc 906DCC3F 		.word	1070362000
 5557 25d0 DD745D53 		.word	1398633693
 5558 25d4 906DCCBF 		.word	-1077121648
 5559 25d8 F0AE3A5A 		.word	1513795312
 5560 25dc 6833EF3F 		.word	1072640872
 5561 25e0 57A9D048 		.word	1221634391
 5562 25e4 7209E13F 		.word	1071712626
 5563 25e8 F5A24C2A 		.word	709665525
 5564 25ec 7416EB3F 		.word	1072371316
 5565 25f0 F5A24C2A 		.word	709665525
 5566 25f4 7416EBBF 		.word	-1075112332
 5567 25f8 57A9D048 		.word	1221634391
 5568 25fc 7209E13F 		.word	1071712626
 5569 2600 5EA7C0D2 		.word	-759126178
 5570 2604 261BEA3F 		.word	1072306982
 5571 2608 BA3C4DEF 		.word	-280150854
 5572 260c 8B81E23F 		.word	1071808907
 5573 2610 BA3C4DEF 		.word	-280150854
 5574 2614 8B81E2BF 		.word	-1075674741
 5575 2618 5EA7C0D2 		.word	-759126178
 5576 261c 261BEA3F 		.word	1072306982
 5577 2620 DECB5486 		.word	-2041263138
 5578 2624 007FC53F 		.word	1069907712
 5579 2628 784BCB37 		.word	936070008
 5580 262c A78BEF3F 		.word	1072663463
 5581 2630 784BCB37 		.word	936070008
 5582 2634 A78BEFBF 		.word	-1074820185
 5583 2638 DECB5486 		.word	-2041263138
 5584 263c 007FC53F 		.word	1069907712
 5585 2640 888D0A0F 		.word	252349832
 5586 2644 47BFEF3F 		.word	1072676679
 5587 2648 5BB86FAD 		.word	-1385187237
 5588 264c E80EC03F 		.word	1069551336
 5589 2650 5BB86FAD 		.word	-1385187237
 5590 2654 E80EC0BF 		.word	-1077932312
 5591 2658 888D0A0F 		.word	252349832
 5592 265c 47BFEF3F 		.word	1072676679
 5593 2660 2930D6E3 		.word	-472502231
 5594 2664 239CE33F 		.word	1071881251
 5595 2668 6C4AACE3 		.word	-475248020
 5596 266c 9049E93F 		.word	1072253328
 5597 2670 6C4AACE3 		.word	-475248020
 5598 2674 9049E9BF 		.word	-1075230320
 5599 2678 2930D6E3 		.word	-472502231
 5600 267c 239CE33F 		.word	1071881251
 5601 2680 27230DCB 		.word	-888331481
 5602 2684 54CBEB3F 		.word	1072417620
 5603 2688 DED2245C 		.word	1545917150
 5604 268c 57B7DF3F 		.word	1071626071
 5605 2690 DED2245C 		.word	1545917150
 5606 2694 57B7DFBF 		.word	-1075857577
 5607 2698 27230DCB 		.word	-888331481
 5608 269c 54CBEB3F 		.word	1072417620
 5609 26a0 CE49174E 		.word	1310149070
 5610 26a4 5BE1D03F 		.word	1070653787
 5611 26a8 5186076A 		.word	1778878033
 5612 26ac EBDDEE3F 		.word	1072618987
 5613 26b0 5186076A 		.word	1778878033
 5614 26b4 EBDDEEBF 		.word	-1074864661
 5615 26b8 CE49174E 		.word	1310149070
 5616 26bc 5BE1D03F 		.word	1070653787
 5617 26c0 D3670455 		.word	1426352083
 5618 26c4 9D5AEE3F 		.word	1072585373
 5619 26c8 F03689DC 		.word	-594987280
 5620 26cc 1043D43F 		.word	1070875408
 5621 26d0 F03689DC 		.word	-594987280
 5622 26d4 1043D4BF 		.word	-1076608240
 5623 26d8 D3670455 		.word	1426352083
 5624 26dc 9D5AEE3F 		.word	1072585373
 5625 26e0 895386C3 		.word	-1014606967
 5626 26e4 7F99DC3F 		.word	1071421823
 5627 26e8 49C4B919 		.word	431604809
 5628 26ec 8FA0EC3F 		.word	1072472207
 5629 26f0 49C4B919 		.word	431604809
 5630 26f4 8FA0ECBF 		.word	-1075011441
 5631 26f8 895386C3 		.word	-1014606967
 5632 26fc 7F99DC3F 		.word	1071421823
 5633 2700 FF45F513 		.word	334841343
 5634 2704 9C2AE83F 		.word	1072179868
 5635 2708 86A4CC25 		.word	634168454
 5636 270c CCF9E43F 		.word	1071970764
 5637 2710 86A4CC25 		.word	634168454
 5638 2714 CCF9E4BF 		.word	-1075512884
 5639 2718 FF45F513 		.word	334841343
 5640 271c 9C2AE83F 		.word	1072179868
 5641 2720 4D44ED74 		.word	1961706573
 5642 2724 960CB23F 		.word	1068633238
 5643 2728 0F413025 		.word	623919375
 5644 272c 9DEBEF3F 		.word	1072688029
 5645 2730 0F413025 		.word	623919375
 5646 2734 9DEBEFBF 		.word	-1074795619
 5647 2738 4D44ED74 		.word	1961706573
 5648 273c 960CB23F 		.word	1068633238
 5649 2740 602D4885 		.word	-2058867360
 5650 2744 EAE7EF3F 		.word	1072687082
 5651 2748 99A2C512 		.word	314942105
 5652 274c 9F9DB33F 		.word	1068735903
 5653 2750 99A2C512 		.word	314942105
 5654 2754 9F9DB3BF 		.word	-1078747745
 5655 2758 602D4885 		.word	-2058867360
 5656 275c EAE7EF3F 		.word	1072687082
 5657 2760 7F9F586D 		.word	1834524543
 5658 2764 BCD3E43F 		.word	1071961020
 5659 2768 FA83AF11 		.word	296715258
 5660 276c 714BE83F 		.word	1072188273
 5661 2770 FA83AF11 		.word	296715258
 5662 2774 714BE8BF 		.word	-1075295375
 5663 2778 7F9F586D 		.word	1834524543
 5664 277c BCD3E43F 		.word	1071961020
 5665 2780 139C0287 		.word	-2029872109
 5666 2784 F589EC3F 		.word	1072466421
 5667 2788 21CDE1AE 		.word	-1360933599
 5668 278c 4BF3DC3F 		.word	1071444811
 5669 2790 21CDE1AE 		.word	-1360933599
 5670 2794 4BF3DCBF 		.word	-1076038837
 5671 2798 139C0287 		.word	-2029872109
 5672 279c F589EC3F 		.word	1072466421
 5673 27a0 71C26EE9 		.word	-378617231
 5674 27a4 9BE3D33F 		.word	1070850971
 5675 27a8 A7535DC5 		.word	-983739481
 5676 27ac 616AEE3F 		.word	1072589409
 5677 27b0 A7535DC5 		.word	-983739481
 5678 27b4 616AEEBF 		.word	-1074894239
 5679 27b8 71C26EE9 		.word	-378617231
 5680 27bc 9BE3D33F 		.word	1070850971
 5681 27c0 0990995E 		.word	1587122185
 5682 27c4 83D0EE3F 		.word	1072615555
 5683 27c8 7893C6EF 		.word	-272198792
 5684 27cc 3E42D13F 		.word	1070678590
 5685 27d0 7893C6EF 		.word	-272198792
 5686 27d4 3E42D1BF 		.word	-1076805058
 5687 27d8 0990995E 		.word	1587122185
 5688 27dc 83D0EE3F 		.word	1072615555
 5689 27e0 A3CD56E6 		.word	-430518877
 5690 27e4 DE5FDF3F 		.word	1071603678
 5691 27e8 C1541161 		.word	1628525761
 5692 27ec 1BE4EB3F 		.word	1072423963
 5693 27f0 C1541161 		.word	1628525761
 5694 27f4 1BE4EBBF 		.word	-1075059685
 5695 27f8 A3CD56E6 		.word	-430518877
 5696 27fc DE5FDF3F 		.word	1071603678
 5697 2800 15A8C51F 		.word	533047317
 5698 2804 A42AE93F 		.word	1072245412
 5699 2808 18C58149 		.word	1233241368
 5700 280c C4C3E33F 		.word	1071891396
 5701 2810 18C58149 		.word	1233241368
 5702 2814 C4C3E3BF 		.word	-1075592252
 5703 2818 15A8C51F 		.word	533047317
 5704 281c A42AE93F 		.word	1072245412
 5705 2820 3FAAE4FD 		.word	-35345857
 5706 2824 B78EBE3F 		.word	1069452983
 5707 2828 F69A7D3B 		.word	998087414
 5708 282c 6EC5EF3F 		.word	1072678254
 5709 2830 F69A7D3B 		.word	998087414
 5710 2834 6EC5EFBF 		.word	-1074805394
 5711 2838 3FAAE4FD 		.word	-35345857
 5712 283c B78EBE3F 		.word	1069452983
 5713 2840 0CC6404A 		.word	1245758988
 5714 2844 0F83EF3F 		.word	1072661263
 5715 2848 0D831D83 		.word	-2095217907
 5716 284c 1A45C63F 		.word	1069958426
 5717 2850 0D831D83 		.word	-2095217907
 5718 2854 1A45C6BF 		.word	-1077525222
 5719 2858 0CC6404A 		.word	1245758988
 5720 285c 0F83EF3F 		.word	1072661263
 5721 2860 1071BB4C 		.word	1287352592
 5722 2864 7358E23F 		.word	1071798387
 5723 2868 C63B594A 		.word	1247361990
 5724 286c 1838EA3F 		.word	1072314392
 5725 2870 C63B594A 		.word	1247361990
 5726 2874 1838EABF 		.word	-1075169256
 5727 2878 1071BB4C 		.word	1287352592
 5728 287c 7358E23F 		.word	1071798387
 5729 2880 B6579FD8 		.word	-660645962
 5730 2884 8FFBEA3F 		.word	1072364431
 5731 2888 4F25EECF 		.word	-806476465
 5732 288c E933E13F 		.word	1071723497
 5733 2890 4F25EECF 		.word	-806476465
 5734 2894 E933E1BF 		.word	-1075760151
 5735 2898 B6579FD8 		.word	-660645962
 5736 289c 8FFBEA3F 		.word	1072364431
 5737 28a0 AD5DF134 		.word	888233389
 5738 28a4 63A9CB3F 		.word	1070311779
 5739 28a8 65BC1BBC 		.word	-1139032987
 5740 28ac 6B3EEF3F 		.word	1072643691
 5741 28b0 65BC1BBC 		.word	-1139032987
 5742 28b4 6B3EEFBF 		.word	-1074839957
 5743 28b8 AD5DF134 		.word	888233389
 5744 28bc 63A9CB3F 		.word	1070311779
 5745 28c0 5A918AF3 		.word	-209022630
 5746 28c4 FED1ED3F 		.word	1072550398
 5747 28c8 921026C9 		.word	-920252270
 5748 28cc 6337D73F 		.word	1071069027
 5749 28d0 921026C9 		.word	-920252270
 5750 28d4 6337D7BF 		.word	-1076414621
 5751 28d8 5A918AF3 		.word	-209022630
 5752 28dc FED1ED3F 		.word	1072550398
 5753 28e0 F2F90D44 		.word	1141766642
 5754 28e4 7DC1D93F 		.word	1071235453
 5755 28e8 2475181B 		.word	454587684
 5756 28ec 5B4BED3F 		.word	1072515931
 5757 28f0 2475181B 		.word	454587684
 5758 28f4 5B4BEDBF 		.word	-1074967717
 5759 28f8 F2F90D44 		.word	1141766642
 5760 28fc 7DC1D93F 		.word	1071235453
 5761 2900 BF410E96 		.word	-1777450561
 5762 2904 AC1BE73F 		.word	1072110508
 5763 2908 FF22EC4F 		.word	1340875519
 5764 290c E422E63F 		.word	1072046820
 5765 2910 FF22EC4F 		.word	1340875519
 5766 2914 E422E6BF 		.word	-1075436828
 5767 2918 BF410E96 		.word	-1777450561
 5768 291c AC1BE73F 		.word	1072110508
 5769 2920 26B2FA21 		.word	570077734
 5770 2924 4DFD953F 		.word	1066794317
 5771 2928 77CB7068 		.word	1752222583
 5772 292c 1CFEEF3F 		.word	1072692764
 5773 2930 77CB7068 		.word	1752222583
 5774 2934 1CFEEFBF 		.word	-1074790884
 5775 2938 26B2FA21 		.word	570077734
 5776 293c 4DFD953F 		.word	1066794317
 5777 2940 D13BC543 		.word	1136999377
 5778 2944 09FFEF3F 		.word	1072693001
 5779 2948 CB97B96A 		.word	1790547915
 5780 294c 296A8F3F 		.word	1066363433
 5781 2950 CB97B96A 		.word	1790547915
 5782 2954 296A8FBF 		.word	-1081120215
 5783 2958 D13BC543 		.word	1136999377
 5784 295c 09FFEF3F 		.word	1072693001
 5785 2960 5B537F43 		.word	1132417883
 5786 2964 1547E63F 		.word	1072056085
 5787 2968 755BC999 		.word	-1714857099
 5788 296c CAF8E63F 		.word	1072101578
 5789 2970 755BC999 		.word	-1714857099
 5790 2974 CAF8E6BF 		.word	-1075382070
 5791 2978 5B537F43 		.word	1132417883
 5792 297c 1547E63F 		.word	1072056085
 5793 2980 7F8A8872 		.word	1921550975
 5794 2984 715FED3F 		.word	1072521073
 5795 2988 8F94ABB7 		.word	-1213492081
 5796 298c 5565D93F 		.word	1071211861
 5797 2990 8F94ABB7 		.word	-1213492081
 5798 2994 5565D9BF 		.word	-1076271787
 5799 2998 7F8A8872 		.word	1921550975
 5800 299c 715FED3F 		.word	1072521073
 5801 29a0 AEDF13E6 		.word	-434905170
 5802 29a4 F594D73F 		.word	1071092981
 5803 29a8 9A759543 		.word	1133868442
 5804 29ac 9EBFED3F 		.word	1072545694
 5805 29b0 9A759543 		.word	1133868442
 5806 29b4 9EBFEDBF 		.word	-1074937954
 5807 29b8 AEDF13E6 		.word	-434905170
 5808 29bc F594D73F 		.word	1071092981
 5809 29c0 B4ABBC06 		.word	113028020
 5810 29c4 2249EF3F 		.word	1072646434
 5811 29c8 ABB9F3D5 		.word	-705447509
 5812 29cc F1E4CA3F 		.word	1070261489
 5813 29d0 ABB9F3D5 		.word	-705447509
 5814 29d4 F1E4CABF 		.word	-1077222159
 5815 29d8 B4ABBC06 		.word	113028020
 5816 29dc 2249EF3F 		.word	1072646434
 5817 29e0 BCE2DBE4 		.word	-455351620
 5818 29e4 365EE13F 		.word	1071734326
 5819 29e8 EFEC45F3 		.word	-213521169
 5820 29ec 68E0EA3F 		.word	1072357480
 5821 29f0 EFEC45F3 		.word	-213521169
 5822 29f4 68E0EABF 		.word	-1075126168
 5823 29f8 BCE2DBE4 		.word	-455351620
 5824 29fc 365EE13F 		.word	1071734326
 5825 2a00 23F59010 		.word	277935395
 5826 2a04 C954EA3F 		.word	1072321737
 5827 2a08 E2132C66 		.word	1714164706
 5828 2a0c 2D2FE23F 		.word	1071787821
 5829 2a10 E2132C66 		.word	1714164706
 5830 2a14 2D2FE2BF 		.word	-1075695827
 5831 2a18 23F59010 		.word	277935395
 5832 2a1c C954EA3F 		.word	1072321737
 5833 2a20 FFC4088D 		.word	-1928805121
 5834 2a24 FD0AC73F 		.word	1070009085
 5835 2a28 2A321A9C 		.word	-1676004822
 5836 2a2c 297AEF3F 		.word	1072658985
 5837 2a30 2A321A9C 		.word	-1676004822
 5838 2a34 297AEFBF 		.word	-1074824663
 5839 2a38 FFC4088D 		.word	-1928805121
 5840 2a3c FD0AC73F 		.word	1070009085
 5841 2a40 54439103 		.word	59851604
 5842 2a44 47CBEF3F 		.word	1072679751
 5843 2a48 C17D303B 		.word	993033665
 5844 2a4c 53FFBC3F 		.word	1069350739
 5845 2a50 C17D303B 		.word	993033665
 5846 2a54 53FFBCBF 		.word	-1078132909
 5847 2a58 54439103 		.word	59851604
 5848 2a5c 47CBEF3F 		.word	1072679751
 5849 2a60 8006BEEA 		.word	-356645248
 5850 2a64 33EBE33F 		.word	1071901491
 5851 2a68 FE5E5743 		.word	1129799422
 5852 2a6c 790BE93F 		.word	1072237433
 5853 2a70 FE5E5743 		.word	1129799422
 5854 2a74 790BE9BF 		.word	-1075246215
 5855 2a78 8006BEEA 		.word	-356645248
 5856 2a7c 33EBE33F 		.word	1071901491
 5857 2a80 47B1A125 		.word	631353671
 5858 2a84 9DFCEB3F 		.word	1072430237
 5859 2a88 FEF7BF06 		.word	113244158
 5860 2a8c 1908DF3F 		.word	1071581209
 5861 2a90 FEF7BF06 		.word	113244158
 5862 2a94 1908DFBF 		.word	-1075902439
 5863 2a98 47B1A125 		.word	631353671
 5864 2a9c 9DFCEB3F 		.word	1072430237
 5865 2aa0 43F2E8FB 		.word	-68619709
 5866 2aa4 F7A2D13F 		.word	1070703351
 5867 2aa8 B2F61A4B 		.word	1260058290
 5868 2aac CFC2EE3F 		.word	1072612047
 5869 2ab0 B2F61A4B 		.word	1260058290
 5870 2ab4 CFC2EEBF 		.word	-1074871601
 5871 2ab8 43F2E8FB 		.word	-68619709
 5872 2abc F7A2D13F 		.word	1070703351
 5873 2ac0 5A16A529 		.word	698685018
 5874 2ac4 DB79EE3F 		.word	1072593371
 5875 2ac8 ABB653E3 		.word	-481053013
 5876 2acc F583D33F 		.word	1070826485
 5877 2ad0 ABB653E3 		.word	-481053013
 5878 2ad4 F583D3BF 		.word	-1076657163
 5879 2ad8 5A16A529 		.word	698685018
 5880 2adc DB79EE3F 		.word	1072593371
 5881 2ae0 9D60A82B 		.word	732455069
 5882 2ae4 D04CDD3F 		.word	1071467728
 5883 2ae8 D7AA9E89 		.word	-1986090281
 5884 2aec 1573EC3F 		.word	1072460565
 5885 2af0 D7AA9E89 		.word	-1986090281
 5886 2af4 1573ECBF 		.word	-1075023083
 5887 2af8 9D60A82B 		.word	732455069
 5888 2afc D04CDD3F 		.word	1071467728
 5889 2b00 95A19A1D 		.word	496673173
 5890 2b04 0A6CE83F 		.word	1072196618
 5891 2b08 F1226751 		.word	1365713649
 5892 2b0c 79ADE43F 		.word	1071951225
 5893 2b10 F1226751 		.word	1365713649
 5894 2b14 79ADE4BF 		.word	-1075532423
 5895 2b18 95A19A1D 		.word	496673173
 5896 2b1c 0A6CE83F 		.word	1072196618
 5897 2b20 0A4D4D4A 		.word	1246579978
 5898 2b24 772EB53F 		.word	1068838519
 5899 2b28 86D8E92B 		.word	736745606
 5900 2b2c E9E3EF3F 		.word	1072686057
 5901 2b30 86D8E92B 		.word	736745606
 5902 2b34 E9E3EFBF 		.word	-1074797591
 5903 2b38 0A4D4D4A 		.word	1246579978
 5904 2b3c 772EB53F 		.word	1068838519
 5905 2b40 91618202 		.word	42099089
 5906 2b44 01EFEF3F 		.word	1072688897
 5907 2b48 6430464E 		.word	1313222756
 5908 2b4c 617BB03F 		.word	1068530529
 5909 2b50 6430464E 		.word	1313222756
 5910 2b54 617BB0BF 		.word	-1078953119
 5911 2b58 91618202 		.word	42099089
 5912 2b5c 01EFEF3F 		.word	1072688897
 5913 2b60 A69AD91C 		.word	484022950
 5914 2b64 A81FE53F 		.word	1071980456
 5915 2b68 FA526E75 		.word	1970164474
 5916 2b6c 8B09E83F 		.word	1072171403
 5917 2b70 FA526E75 		.word	1970164474
 5918 2b74 8B09E8BF 		.word	-1075312245
 5919 2b78 A69AD91C 		.word	484022950
 5920 2b7c A81FE53F 		.word	1071980456
 5921 2b80 99DA000A 		.word	167828121
 5922 2b84 E2B6EC3F 		.word	1072477922
 5923 2b88 29312647 		.word	1193685289
 5924 2b8c 6D3FDC3F 		.word	1071398765
 5925 2b90 29312647 		.word	1193685289
 5926 2b94 6D3FDCBF 		.word	-1076084883
 5927 2b98 99DA000A 		.word	167828121
 5928 2b9c E2B6EC3F 		.word	1072477922
 5929 2ba0 F3821BD1 		.word	-786726157
 5930 2ba4 53A2D43F 		.word	1070899795
 5931 2ba8 5ECE81FF 		.word	-8270242
 5932 2bac 8D4AEE3F 		.word	1072581261
 5933 2bb0 5ECE81FF 		.word	-8270242
 5934 2bb4 8D4AEEBF 		.word	-1074902387
 5935 2bb8 F3821BD1 		.word	-786726157
 5936 2bbc 53A2D43F 		.word	1070899795
 5937 2bc0 44A5504C 		.word	1280353604
 5938 2bc4 07EBEE3F 		.word	1072622343
 5939 2bc8 1E66EB05 		.word	99313182
 5940 2bcc 4E80D03F 		.word	1070628942
 5941 2bd0 1E66EB05 		.word	99313182
 5942 2bd4 4E80D0BF 		.word	-1076854706
 5943 2bd8 44A5504C 		.word	1280353604
 5944 2bdc 07EBEE3F 		.word	1072622343
 5945 2be0 E1822BC8 		.word	-936672543
 5946 2be4 4007E03F 		.word	1071646528
 5947 2be8 0DC4B6A0 		.word	-1598634995
 5948 2bec 49B2EB3F 		.word	1072411209
 5949 2bf0 0DC4B6A0 		.word	-1598634995
 5950 2bf4 49B2EBBF 		.word	-1075072439
 5951 2bf8 E1822BC8 		.word	-936672543
 5952 2bfc 4007E03F 		.word	1071646528
 5953 2c00 E17FBD42 		.word	1119715297
 5954 2c04 3F68E93F 		.word	1072261183
 5955 2c08 8D7F811B 		.word	461471629
 5956 2c0c 5374E33F 		.word	1071871059
 5957 2c10 8D7F811B 		.word	461471629
 5958 2c14 5374E3BF 		.word	-1075612589
 5959 2c18 E17FBD42 		.word	1119715297
 5960 2c1c 3F68E93F 		.word	1072261183
 5961 2c20 8667B2BC 		.word	-1129158778
 5962 2c24 4DD6C03F 		.word	1069602381
 5963 2c28 B7AD668D 		.word	-1922650697
 5964 2c2c D1B8EF3F 		.word	1072675025
 5965 2c30 B7AD668D 		.word	-1922650697
 5966 2c34 D1B8EFBF 		.word	-1074808623
 5967 2c38 8667B2BC 		.word	-1129158778
 5968 2c3c 4DD6C03F 		.word	1069602381
 5969 2c40 08AC854F 		.word	1334160392
 5970 2c44 F193EF3F 		.word	1072665585
 5971 2c48 88FA797F 		.word	2138700424
 5972 2c4c B1B8C43F 		.word	1069856945
 5973 2c50 88FA797F 		.word	2138700424
 5974 2c54 B1B8C4BF 		.word	-1077626703
 5975 2c58 08AC854F 		.word	1334160392
 5976 2c5c F193EF3F 		.word	1072665585
 5977 2c60 58EB7AE8 		.word	-394597544
 5978 2c64 76AAE23F 		.word	1071819382
 5979 2c68 DE4931F1 		.word	-248428066
 5980 2c6c F4FDE93F 		.word	1072299508
 5981 2c70 DE4931F1 		.word	-248428066
 5982 2c74 F4FDE9BF 		.word	-1075184140
 5983 2c78 58EB7AE8 		.word	-394597544
 5984 2c7c 76AAE23F 		.word	1071819382
 5985 2c80 F37BF3A5 		.word	-1510769677
 5986 2c84 1531EB3F 		.word	1072378133
 5987 2c88 B6C44BB8 		.word	-1202993994
 5988 2c8c D0DEE03F 		.word	1071701712
 5989 2c90 B6C44BB8 		.word	-1202993994
 5990 2c94 D0DEE0BF 		.word	-1075781936
 5991 2c98 F37BF3A5 		.word	-1510769677
 5992 2c9c 1531EB3F 		.word	1072378133
 5993 2ca0 EEBD2C4D 		.word	1294777838
 5994 2ca4 7731CD3F 		.word	1070412151
 5995 2ca8 CE0946FC 		.word	-62518834
 5996 2cac 1728EF3F 		.word	1072637975
 5997 2cb0 CE0946FC 		.word	-62518834
 5998 2cb4 1728EFBF 		.word	-1074845673
 5999 2cb8 EEBD2C4D 		.word	1294777838
 6000 2cbc 7731CD3F 		.word	1070412151
 6001 2cc0 9CA59B6A 		.word	1788585372
 6002 2cc4 E3F5ED3F 		.word	1072559587
 6003 2cc8 CB63AD9C 		.word	-1666358325
 6004 2ccc 947BD63F 		.word	1071020948
 6005 2cd0 CB63AD9C 		.word	-1666358325
 6006 2cd4 947BD6BF 		.word	-1076462700
 6007 2cd8 9CA59B6A 		.word	1788585372
 6008 2cdc E3F5ED3F 		.word	1072559587
 6009 2ce0 1BF3DBD3 		.word	-740560101
 6010 2ce4 0C79DA3F 		.word	1071282444
 6011 2ce8 E1A4E5C6 		.word	-958028575
 6012 2cec 5522ED3F 		.word	1072505429
 6013 2cf0 E1A4E5C6 		.word	-958028575
 6014 2cf4 5522EDBF 		.word	-1074978219
 6015 2cf8 1BF3DBD3 		.word	-740560101
 6016 2cfc 0C79DA3F 		.word	1071282444
 6017 2d00 6447302C 		.word	741361508
 6018 2d04 C560E73F 		.word	1072128197
 6019 2d08 5C343EE7 		.word	-415353764
 6020 2d0c DED9E53F 		.word	1072028126
 6021 2d10 5C343EE7 		.word	-415353764
 6022 2d14 DED9E5BF 		.word	-1075455522
 6023 2d18 6447302C 		.word	741361508
 6024 2d1c C560E73F 		.word	1072128197
 6025 2d20 7FC142DB 		.word	-616382081
 6026 2d24 8546A13F 		.word	1067533957
 6027 2d28 AEFD25E4 		.word	-467272274
 6028 2d2c 55FBEF3F 		.word	1072692053
 6029 2d30 AEFD25E4 		.word	-467272274
 6030 2d34 55FBEFBF 		.word	-1074791595
 6031 2d38 7FC142DB 		.word	-616382081
 6032 2d3c 8546A13F 		.word	1067533957
 6033 2d40 14C00842 		.word	1107869716
 6034 2d44 7CF9EF3F 		.word	1072691580
 6035 2d48 7961F86F 		.word	1878548857
 6036 2d4c 396AA43F 		.word	1067739705
 6037 2d50 7961F86F 		.word	1878548857
 6038 2d54 396AA4BF 		.word	-1079743943
 6039 2d58 14C00842 		.word	1107869716
 6040 2d5c 7CF9EF3F 		.word	1072691580
 6041 2d60 48744F26 		.word	642741320
 6042 2d64 0BB5E53F 		.word	1072018699
 6043 2d68 5BB3901B 		.word	462467931
 6044 2d6c FB82E73F 		.word	1072136955
 6045 2d70 5BB3901B 		.word	462467931
 6046 2d74 FB82E7BF 		.word	-1075346693
 6047 2d78 48744F26 		.word	642741320
 6048 2d7c 0BB5E53F 		.word	1072018699
 6049 2d80 B9D2592F 		.word	794415801
 6050 2d84 670DED3F 		.word	1072500071
 6051 2d88 09DC5C12 		.word	308075529
 6052 2d8c 73D4DA3F 		.word	1071305843
 6053 2d90 09DC5C12 		.word	308075529
 6054 2d94 73D4DABF 		.word	-1076177805
 6055 2d98 B9D2592F 		.word	794415801
 6056 2d9c 670DED3F 		.word	1072500071
 6057 2da0 02C2885C 		.word	1552466434
 6058 2da4 591DD63F 		.word	1070996825
 6059 2da8 540F28D9 		.word	-651686060
 6060 2dac 6607EE3F 		.word	1072564070
 6061 2db0 540F28D9 		.word	-651686060
 6062 2db4 6607EEBF 		.word	-1074919578
 6063 2db8 02C2885C 		.word	1552466434
 6064 2dbc 591DD63F 		.word	1070996825
 6065 2dc0 084728BE 		.word	-1104656632
 6066 2dc4 7A1CEF3F 		.word	1072635002
 6067 2dc8 9A09013F 		.word	1057032602
 6068 2dcc 16F5CD3F 		.word	1070462230
 6069 2dd0 9A09013F 		.word	1057032602
 6070 2dd4 16F5CDBF 		.word	-1077021418
 6071 2dd8 084728BE 		.word	-1104656632
 6072 2ddc 7A1CEF3F 		.word	1072635002
 6073 2de0 EC858F87 		.word	-2020637204
 6074 2de4 05B4E03F 		.word	1071690757
 6075 2de8 2579DE09 		.word	165574949
 6076 2dec 744BEB3F 		.word	1072384884
 6077 2df0 2579DE09 		.word	165574949
 6078 2df4 744BEBBF 		.word	-1075098764
 6079 2df8 EC858F87 		.word	-2020637204
 6080 2dfc 05B4E03F 		.word	1071690757
 6081 2e00 7224B4ED 		.word	-306961294
 6082 2e04 82E0E93F 		.word	1072291970
 6083 2e08 B89B4ED3 		.word	-749823048
 6084 2e0c 33D3E23F 		.word	1071829811
 6085 2e10 B89B4ED3 		.word	-749823048
 6086 2e14 33D3E2BF 		.word	-1075653837
 6087 2e18 7224B4ED 		.word	-306961294
 6088 2e1c 82E0E93F 		.word	1072291970
 6089 2e20 9348DB57 		.word	1473988755
 6090 2e24 2FF2C33F 		.word	1069806127
 6091 2e28 29DEFB7C 		.word	2096881193
 6092 2e2c ED9BEF3F 		.word	1072667629
 6093 2e30 29DEFB7C 		.word	2096881193
 6094 2e34 ED9BEFBF 		.word	-1074816019
 6095 2e38 9348DB57 		.word	1473988755
 6096 2e3c 2FF2C33F 		.word	1069806127
 6097 2e40 4DD581C6 		.word	-964569779
 6098 2e44 0DB2EF3F 		.word	1072673293
 6099 2e48 E724BE40 		.word	1086203111
 6100 2e4c 899DC13F 		.word	1069653385
 6101 2e50 E724BE40 		.word	1086203111
 6102 2e54 899DC1BF 		.word	-1077830263
 6103 2e58 4DD581C6 		.word	-964569779
 6104 2e5c 0DB2EF3F 		.word	1072673293
 6105 2e60 E14DC152 		.word	1388400097
 6106 2e64 524CE33F 		.word	1071860818
 6107 2e68 947545F1 		.word	-247106156
 6108 2e6c AE86E93F 		.word	1072268974
 6109 2e70 947545F1 		.word	-247106156
 6110 2e74 AE86E9BF 		.word	-1075214674
 6111 2e78 E14DC152 		.word	1388400097
 6112 2e7c 524CE33F 		.word	1071860818
 6113 2e80 5E15D91F 		.word	534320478
 6114 2e84 FA98EB3F 		.word	1072404730
 6115 2e88 96BDED55 		.word	1441643926
 6116 2e8c AE32E03F 		.word	1071657646
 6117 2e90 96BDED55 		.word	1441643926
 6118 2e94 AE32E0BF 		.word	-1075826002
 6119 2e98 5E15D91F 		.word	534320478
 6120 2e9c FA98EB3F 		.word	1072404730
 6121 2ea0 D2FDB906 		.word	112852434
 6122 2ea4 181FD03F 		.word	1070604056
 6123 2ea8 C0A31CE5 		.word	-451107904
 6124 2eac D6F7EE3F 		.word	1072625622
 6125 2eb0 C0A31CE5 		.word	-451107904
 6126 2eb4 D6F7EEBF 		.word	-1074858026
 6127 2eb8 D2FDB906 		.word	112852434
 6128 2ebc 181FD03F 		.word	1070604056
 6129 2ec0 85CE75EC 		.word	-327823739
 6130 2ec4 333AEE3F 		.word	1072577075
 6131 2ec8 487019DC 		.word	-602312632
 6132 2ecc 6301D53F 		.word	1070924131
 6133 2ed0 487019DC 		.word	-602312632
 6134 2ed4 6301D5BF 		.word	-1076559517
 6135 2ed8 85CE75EC 		.word	-327823739
 6136 2edc 333AEE3F 		.word	1072577075
 6137 2ee0 D9C0FF17 		.word	402637017
 6138 2ee4 15E5DB3F 		.word	1071375637
 6139 2ee8 A0DEC220 		.word	549641888
 6140 2eec EECCEC3F 		.word	1072483566
 6141 2ef0 A0DEC220 		.word	549641888
 6142 2ef4 EECCECBF 		.word	-1075000082
 6143 2ef8 D9C0FF17 		.word	402637017
 6144 2efc 15E5DB3F 		.word	1071375637
 6145 2f00 8636B087 		.word	-2018494842
 6146 2f04 3FE8E73F 		.word	1072162879
 6147 2f08 FC9D15F5 		.word	-183132676
 6148 2f0c 4F45E53F 		.word	1071990095
 6149 2f10 FC9D15F5 		.word	-183132676
 6150 2f14 4F45E5BF 		.word	-1075493553
 6151 2f18 8636B087 		.word	-2018494842
 6152 2f1c 3FE8E73F 		.word	1072162879
 6153 2f20 C98E80F9 		.word	-109015351
 6154 2f24 06D4AD3F 		.word	1068356614
 6155 2f28 ED31E114 		.word	350302701
 6156 2f2c 16F2EF3F 		.word	1072689686
 6157 2f30 ED31E114 		.word	350302701
 6158 2f34 16F2EFBF 		.word	-1074793962
 6159 2f38 C98E80F9 		.word	-109015351
 6160 2f3c 06D4AD3F 		.word	1068356614
 6161 2f40 0733F722 		.word	586625799
 6162 2f44 99DFEF3F 		.word	1072684953
 6163 2f48 29B1793E 		.word	1048162601
 6164 2f4c 1BBFB63F 		.word	1068941083
 6165 2f50 29B1793E 		.word	1048162601
 6166 2f54 1BBFB6BF 		.word	-1078542565
 6167 2f58 0733F722 		.word	586625799
 6168 2f5c 99DFEF3F 		.word	1072684953
 6169 2f60 FF916030 		.word	811635199
 6170 2f64 0387E43F 		.word	1071941379
 6171 2f68 A11B48E7 		.word	-414704735
 6172 2f6c 668CE83F 		.word	1072204902
 6173 2f70 A11B48E7 		.word	-414704735
 6174 2f74 668CE8BF 		.word	-1075278746
 6175 2f78 FF916030 		.word	811635199
 6176 2f7c 0387E43F 		.word	1071941379
 6177 2f80 5AF8FE59 		.word	1509881946
 6178 2f84 EF5BEC3F 		.word	1072454639
 6179 2f88 D910FA5C 		.word	1559892185
 6180 2f8c 0CA6DD3F 		.word	1071490572
 6181 2f90 D910FA5C 		.word	1559892185
 6182 2f94 0CA6DDBF 		.word	-1075993076
 6183 2f98 5AF8FE59 		.word	1509881946
 6184 2f9c EF5BEC3F 		.word	1072454639
 6185 2fa0 AFBA38B6 		.word	-1237796177
 6186 2fa4 1F24D33F 		.word	1070801951
 6187 2fa8 2560AD5B 		.word	1538088997
 6188 2fac 0989EE3F 		.word	1072597257
 6189 2fb0 2560AD5B 		.word	1538088997
 6190 2fb4 0989EEBF 		.word	-1074886391
 6191 2fb8 AFBA38B6 		.word	-1237796177
 6192 2fbc 1F24D33F 		.word	1070801951
 6193 2fc0 11885B51 		.word	1364953105
 6194 2fc4 CFB4EE3F 		.word	1072608463
 6195 2fc8 BE27D783 		.word	-2083051586
 6196 2fcc 8503D23F 		.word	1070728069
 6197 2fd0 BE27D783 		.word	-2083051586
 6198 2fd4 8503D2BF 		.word	-1076755579
 6199 2fd8 11885B51 		.word	1364953105
 6200 2fdc CFB4EE3F 		.word	1072608463
 6201 2fe0 2056F295 		.word	-1779280352
 6202 2fe4 06B0DE3F 		.word	1071558662
 6203 2fe8 575E46DC 		.word	-599368105
 6204 2fec D914EC3F 		.word	1072436441
 6205 2ff0 575E46DC 		.word	-599368105
 6206 2ff4 D914ECBF 		.word	-1075047207
 6207 2ff8 2056F295 		.word	-1779280352
 6208 2ffc 06B0DE3F 		.word	1071558662
 6209 3000 496C489B 		.word	-1689752503
 6210 3004 10ECE83F 		.word	1072229392
 6211 3008 8C103D66 		.word	1715277964
 6212 300c 7212E43F 		.word	1071911538
 6213 3010 8C103D66 		.word	1715277964
 6214 3014 7212E4BF 		.word	-1075572110
 6215 3018 496C489B 		.word	-1689752503
 6216 301c 10ECE83F 		.word	1072229392
 6217 3020 4CF638EC 		.word	-331811252
 6218 3024 A66FBB3F 		.word	1069248422
 6219 3028 8760D858 		.word	1490575495
 6220 302c D1D0EF3F 		.word	1072681169
 6221 3030 8760D858 		.word	1490575495
 6222 3034 D1D0EFBF 		.word	-1074802479
 6223 3038 4CF638EC 		.word	-331811252
 6224 303c A66FBB3F 		.word	1069248422
 6225 3040 B77E4B43 		.word	1129021111
 6226 3044 F670EF3F 		.word	1072656630
 6227 3048 1CCBD2BB 		.word	-1143813348
 6228 304c A7D0C73F 		.word	1070059687
 6229 3050 1CCBD2BB 		.word	-1143813348
 6230 3054 A7D0C7BF 		.word	-1077423961
 6231 3058 B77E4B43 		.word	1129021111
 6232 305c F670EF3F 		.word	1072656630
 6233 3060 D66075A1 		.word	-1586143018
 6234 3064 BA05E23F 		.word	1071777210
 6235 3068 F5609DDE 		.word	-560111371
 6236 306c 3871EA3F 		.word	1072329016
 6237 3070 F5609DDE 		.word	-560111371
 6238 3074 3871EABF 		.word	-1075154632
 6239 3078 D66075A1 		.word	-1586143018
 6240 307c BA05E23F 		.word	1071777210
 6241 3080 C8FA3EBD 		.word	-1119946040
 6242 3084 FFC4EA3F 		.word	1072350463
 6243 3088 E5463A1F 		.word	523912933
 6244 308c 5988E13F 		.word	1071745113
 6245 3090 E5463A1F 		.word	523912933
 6246 3094 5988E1BF 		.word	-1075738535
 6247 3098 C8FA3EBD 		.word	-1119946040
 6248 309c FFC4EA3F 		.word	1072350463
 6249 30a0 DA31181B 		.word	454570458
 6250 30a4 3E20CA3F 		.word	1070211134
 6251 30a8 072DAF1F 		.word	531574023
 6252 30ac 8B53EF3F 		.word	1072649099
 6253 30b0 072DAF1F 		.word	531574023
 6254 30b4 8B53EFBF 		.word	-1074834549
 6255 30b8 DA31181B 		.word	454570458
 6256 30bc 3E20CA3F 		.word	1070211134
 6257 30c0 B98AE62C 		.word	753306297
 6258 30c4 F4ACED3F 		.word	1072540916
 6259 30c8 E44173D3 		.word	-747421212
 6260 30cc 4DF2D73F 		.word	1071116877
 6261 30d0 E44173D3 		.word	-747421212
 6262 30d4 4DF2D7BF 		.word	-1076366771
 6263 30d8 B98AE62C 		.word	753306297
 6264 30dc F4ACED3F 		.word	1072540916
 6265 30e0 D17BEF81 		.word	-2115011631
 6266 30e4 EF08D93F 		.word	1071188207
 6267 30e8 FF0D8C50 		.word	1351355903
 6268 30ec 3F73ED3F 		.word	1072526143
 6269 30f0 FF0D8C50 		.word	1351355903
 6270 30f4 3F73EDBF 		.word	-1074957505
 6271 30f8 D17BEF81 		.word	-2115011631
 6272 30fc EF08D93F 		.word	1071188207
 6273 3100 CDAF4AEF 		.word	-280318003
 6274 3104 AFD5E63F 		.word	1072092591
 6275 3108 86B3523F 		.word	1062384518
 6276 310c 0F6BE63F 		.word	1072065295
 6277 3110 86B3523F 		.word	1062384518
 6278 3114 0F6BE6BF 		.word	-1075418353
 6279 3118 CDAF4AEF 		.word	-280318003
 6280 311c AFD5E63F 		.word	1072092591
 6281 3120 0397500E 		.word	240162563
 6282 3124 6BD9823F 		.word	1065539947
 6283 3128 4F8C972C 		.word	748129359
 6284 312c A7FFEF3F 		.word	1072693159
 6285 3130 4F8C972C 		.word	748129359
 6286 3134 A7FFEFBF 		.word	-1074790489
 6287 3138 0397500E 		.word	240162563
 6288 313c 6BD9823F 		.word	1065539947
 6289 3140 4F8C972C 		.word	748129359
 6290 3144 A7FFEF3F 		.word	1072693159
 6291 3148 0397500E 		.word	240162563
 6292 314c 6BD9823F 		.word	1065539947
 6293 3150 0397500E 		.word	240162563
 6294 3154 6BD982BF 		.word	-1081943701
 6295 3158 4F8C972C 		.word	748129359
 6296 315c A7FFEF3F 		.word	1072693159
 6297 3160 86B3523F 		.word	1062384518
 6298 3164 0F6BE63F 		.word	1072065295
 6299 3168 CDAF4AEF 		.word	-280318003
 6300 316c AFD5E63F 		.word	1072092591
 6301 3170 CDAF4AEF 		.word	-280318003
 6302 3174 AFD5E6BF 		.word	-1075391057
 6303 3178 86B3523F 		.word	1062384518
 6304 317c 0F6BE63F 		.word	1072065295
 6305 3180 FF0D8C50 		.word	1351355903
 6306 3184 3F73ED3F 		.word	1072526143
 6307 3188 D17BEF81 		.word	-2115011631
 6308 318c EF08D93F 		.word	1071188207
 6309 3190 D17BEF81 		.word	-2115011631
 6310 3194 EF08D9BF 		.word	-1076295441
 6311 3198 FF0D8C50 		.word	1351355903
 6312 319c 3F73ED3F 		.word	1072526143
 6313 31a0 E44173D3 		.word	-747421212
 6314 31a4 4DF2D73F 		.word	1071116877
 6315 31a8 B98AE62C 		.word	753306297
 6316 31ac F4ACED3F 		.word	1072540916
 6317 31b0 B98AE62C 		.word	753306297
 6318 31b4 F4ACEDBF 		.word	-1074942732
 6319 31b8 E44173D3 		.word	-747421212
 6320 31bc 4DF2D73F 		.word	1071116877
 6321 31c0 072DAF1F 		.word	531574023
 6322 31c4 8B53EF3F 		.word	1072649099
 6323 31c8 DA31181B 		.word	454570458
 6324 31cc 3E20CA3F 		.word	1070211134
 6325 31d0 DA31181B 		.word	454570458
 6326 31d4 3E20CABF 		.word	-1077272514
 6327 31d8 072DAF1F 		.word	531574023
 6328 31dc 8B53EF3F 		.word	1072649099
 6329 31e0 E5463A1F 		.word	523912933
 6330 31e4 5988E13F 		.word	1071745113
 6331 31e8 C8FA3EBD 		.word	-1119946040
 6332 31ec FFC4EA3F 		.word	1072350463
 6333 31f0 C8FA3EBD 		.word	-1119946040
 6334 31f4 FFC4EABF 		.word	-1075133185
 6335 31f8 E5463A1F 		.word	523912933
 6336 31fc 5988E13F 		.word	1071745113
 6337 3200 F5609DDE 		.word	-560111371
 6338 3204 3871EA3F 		.word	1072329016
 6339 3208 D66075A1 		.word	-1586143018
 6340 320c BA05E23F 		.word	1071777210
 6341 3210 D66075A1 		.word	-1586143018
 6342 3214 BA05E2BF 		.word	-1075706438
 6343 3218 F5609DDE 		.word	-560111371
 6344 321c 3871EA3F 		.word	1072329016
 6345 3220 1CCBD2BB 		.word	-1143813348
 6346 3224 A7D0C73F 		.word	1070059687
 6347 3228 B77E4B43 		.word	1129021111
 6348 322c F670EF3F 		.word	1072656630
 6349 3230 B77E4B43 		.word	1129021111
 6350 3234 F670EFBF 		.word	-1074827018
 6351 3238 1CCBD2BB 		.word	-1143813348
 6352 323c A7D0C73F 		.word	1070059687
 6353 3240 8760D858 		.word	1490575495
 6354 3244 D1D0EF3F 		.word	1072681169
 6355 3248 4CF638EC 		.word	-331811252
 6356 324c A66FBB3F 		.word	1069248422
 6357 3250 4CF638EC 		.word	-331811252
 6358 3254 A66FBBBF 		.word	-1078235226
 6359 3258 8760D858 		.word	1490575495
 6360 325c D1D0EF3F 		.word	1072681169
 6361 3260 8C103D66 		.word	1715277964
 6362 3264 7212E43F 		.word	1071911538
 6363 3268 496C489B 		.word	-1689752503
 6364 326c 10ECE83F 		.word	1072229392
 6365 3270 496C489B 		.word	-1689752503
 6366 3274 10ECE8BF 		.word	-1075254256
 6367 3278 8C103D66 		.word	1715277964
 6368 327c 7212E43F 		.word	1071911538
 6369 3280 575E46DC 		.word	-599368105
 6370 3284 D914EC3F 		.word	1072436441
 6371 3288 2056F295 		.word	-1779280352
 6372 328c 06B0DE3F 		.word	1071558662
 6373 3290 2056F295 		.word	-1779280352
 6374 3294 06B0DEBF 		.word	-1075924986
 6375 3298 575E46DC 		.word	-599368105
 6376 329c D914EC3F 		.word	1072436441
 6377 32a0 BE27D783 		.word	-2083051586
 6378 32a4 8503D23F 		.word	1070728069
 6379 32a8 11885B51 		.word	1364953105
 6380 32ac CFB4EE3F 		.word	1072608463
 6381 32b0 11885B51 		.word	1364953105
 6382 32b4 CFB4EEBF 		.word	-1074875185
 6383 32b8 BE27D783 		.word	-2083051586
 6384 32bc 8503D23F 		.word	1070728069
 6385 32c0 2560AD5B 		.word	1538088997
 6386 32c4 0989EE3F 		.word	1072597257
 6387 32c8 AFBA38B6 		.word	-1237796177
 6388 32cc 1F24D33F 		.word	1070801951
 6389 32d0 AFBA38B6 		.word	-1237796177
 6390 32d4 1F24D3BF 		.word	-1076681697
 6391 32d8 2560AD5B 		.word	1538088997
 6392 32dc 0989EE3F 		.word	1072597257
 6393 32e0 D910FA5C 		.word	1559892185
 6394 32e4 0CA6DD3F 		.word	1071490572
 6395 32e8 5AF8FE59 		.word	1509881946
 6396 32ec EF5BEC3F 		.word	1072454639
 6397 32f0 5AF8FE59 		.word	1509881946
 6398 32f4 EF5BECBF 		.word	-1075029009
 6399 32f8 D910FA5C 		.word	1559892185
 6400 32fc 0CA6DD3F 		.word	1071490572
 6401 3300 A11B48E7 		.word	-414704735
 6402 3304 668CE83F 		.word	1072204902
 6403 3308 FF916030 		.word	811635199
 6404 330c 0387E43F 		.word	1071941379
 6405 3310 FF916030 		.word	811635199
 6406 3314 0387E4BF 		.word	-1075542269
 6407 3318 A11B48E7 		.word	-414704735
 6408 331c 668CE83F 		.word	1072204902
 6409 3320 29B1793E 		.word	1048162601
 6410 3324 1BBFB63F 		.word	1068941083
 6411 3328 0733F722 		.word	586625799
 6412 332c 99DFEF3F 		.word	1072684953
 6413 3330 0733F722 		.word	586625799
 6414 3334 99DFEFBF 		.word	-1074798695
 6415 3338 29B1793E 		.word	1048162601
 6416 333c 1BBFB63F 		.word	1068941083
 6417 3340 ED31E114 		.word	350302701
 6418 3344 16F2EF3F 		.word	1072689686
 6419 3348 C98E80F9 		.word	-109015351
 6420 334c 06D4AD3F 		.word	1068356614
 6421 3350 C98E80F9 		.word	-109015351
 6422 3354 06D4ADBF 		.word	-1079127034
 6423 3358 ED31E114 		.word	350302701
 6424 335c 16F2EF3F 		.word	1072689686
 6425 3360 FC9D15F5 		.word	-183132676
 6426 3364 4F45E53F 		.word	1071990095
 6427 3368 8636B087 		.word	-2018494842
 6428 336c 3FE8E73F 		.word	1072162879
 6429 3370 8636B087 		.word	-2018494842
 6430 3374 3FE8E7BF 		.word	-1075320769
 6431 3378 FC9D15F5 		.word	-183132676
 6432 337c 4F45E53F 		.word	1071990095
 6433 3380 A0DEC220 		.word	549641888
 6434 3384 EECCEC3F 		.word	1072483566
 6435 3388 D9C0FF17 		.word	402637017
 6436 338c 15E5DB3F 		.word	1071375637
 6437 3390 D9C0FF17 		.word	402637017
 6438 3394 15E5DBBF 		.word	-1076108011
 6439 3398 A0DEC220 		.word	549641888
 6440 339c EECCEC3F 		.word	1072483566
 6441 33a0 487019DC 		.word	-602312632
 6442 33a4 6301D53F 		.word	1070924131
 6443 33a8 85CE75EC 		.word	-327823739
 6444 33ac 333AEE3F 		.word	1072577075
 6445 33b0 85CE75EC 		.word	-327823739
 6446 33b4 333AEEBF 		.word	-1074906573
 6447 33b8 487019DC 		.word	-602312632
 6448 33bc 6301D53F 		.word	1070924131
 6449 33c0 C0A31CE5 		.word	-451107904
 6450 33c4 D6F7EE3F 		.word	1072625622
 6451 33c8 D2FDB906 		.word	112852434
 6452 33cc 181FD03F 		.word	1070604056
 6453 33d0 D2FDB906 		.word	112852434
 6454 33d4 181FD0BF 		.word	-1076879592
 6455 33d8 C0A31CE5 		.word	-451107904
 6456 33dc D6F7EE3F 		.word	1072625622
 6457 33e0 96BDED55 		.word	1441643926
 6458 33e4 AE32E03F 		.word	1071657646
 6459 33e8 5E15D91F 		.word	534320478
 6460 33ec FA98EB3F 		.word	1072404730
 6461 33f0 5E15D91F 		.word	534320478
 6462 33f4 FA98EBBF 		.word	-1075078918
 6463 33f8 96BDED55 		.word	1441643926
 6464 33fc AE32E03F 		.word	1071657646
 6465 3400 947545F1 		.word	-247106156
 6466 3404 AE86E93F 		.word	1072268974
 6467 3408 E14DC152 		.word	1388400097
 6468 340c 524CE33F 		.word	1071860818
 6469 3410 E14DC152 		.word	1388400097
 6470 3414 524CE3BF 		.word	-1075622830
 6471 3418 947545F1 		.word	-247106156
 6472 341c AE86E93F 		.word	1072268974
 6473 3420 E724BE40 		.word	1086203111
 6474 3424 899DC13F 		.word	1069653385
 6475 3428 4DD581C6 		.word	-964569779
 6476 342c 0DB2EF3F 		.word	1072673293
 6477 3430 4DD581C6 		.word	-964569779
 6478 3434 0DB2EFBF 		.word	-1074810355
 6479 3438 E724BE40 		.word	1086203111
 6480 343c 899DC13F 		.word	1069653385
 6481 3440 29DEFB7C 		.word	2096881193
 6482 3444 ED9BEF3F 		.word	1072667629
 6483 3448 9348DB57 		.word	1473988755
 6484 344c 2FF2C33F 		.word	1069806127
 6485 3450 9348DB57 		.word	1473988755
 6486 3454 2FF2C3BF 		.word	-1077677521
 6487 3458 29DEFB7C 		.word	2096881193
 6488 345c ED9BEF3F 		.word	1072667629
 6489 3460 B89B4ED3 		.word	-749823048
 6490 3464 33D3E23F 		.word	1071829811
 6491 3468 7224B4ED 		.word	-306961294
 6492 346c 82E0E93F 		.word	1072291970
 6493 3470 7224B4ED 		.word	-306961294
 6494 3474 82E0E9BF 		.word	-1075191678
 6495 3478 B89B4ED3 		.word	-749823048
 6496 347c 33D3E23F 		.word	1071829811
 6497 3480 2579DE09 		.word	165574949
 6498 3484 744BEB3F 		.word	1072384884
 6499 3488 EC858F87 		.word	-2020637204
 6500 348c 05B4E03F 		.word	1071690757
 6501 3490 EC858F87 		.word	-2020637204
 6502 3494 05B4E0BF 		.word	-1075792891
 6503 3498 2579DE09 		.word	165574949
 6504 349c 744BEB3F 		.word	1072384884
 6505 34a0 9A09013F 		.word	1057032602
 6506 34a4 16F5CD3F 		.word	1070462230
 6507 34a8 084728BE 		.word	-1104656632
 6508 34ac 7A1CEF3F 		.word	1072635002
 6509 34b0 084728BE 		.word	-1104656632
 6510 34b4 7A1CEFBF 		.word	-1074848646
 6511 34b8 9A09013F 		.word	1057032602
 6512 34bc 16F5CD3F 		.word	1070462230
 6513 34c0 540F28D9 		.word	-651686060
 6514 34c4 6607EE3F 		.word	1072564070
 6515 34c8 02C2885C 		.word	1552466434
 6516 34cc 591DD63F 		.word	1070996825
 6517 34d0 02C2885C 		.word	1552466434
 6518 34d4 591DD6BF 		.word	-1076486823
 6519 34d8 540F28D9 		.word	-651686060
 6520 34dc 6607EE3F 		.word	1072564070
 6521 34e0 09DC5C12 		.word	308075529
 6522 34e4 73D4DA3F 		.word	1071305843
 6523 34e8 B9D2592F 		.word	794415801
 6524 34ec 670DED3F 		.word	1072500071
 6525 34f0 B9D2592F 		.word	794415801
 6526 34f4 670DEDBF 		.word	-1074983577
 6527 34f8 09DC5C12 		.word	308075529
 6528 34fc 73D4DA3F 		.word	1071305843
 6529 3500 5BB3901B 		.word	462467931
 6530 3504 FB82E73F 		.word	1072136955
 6531 3508 48744F26 		.word	642741320
 6532 350c 0BB5E53F 		.word	1072018699
 6533 3510 48744F26 		.word	642741320
 6534 3514 0BB5E5BF 		.word	-1075464949
 6535 3518 5BB3901B 		.word	462467931
 6536 351c FB82E73F 		.word	1072136955
 6537 3520 7961F86F 		.word	1878548857
 6538 3524 396AA43F 		.word	1067739705
 6539 3528 14C00842 		.word	1107869716
 6540 352c 7CF9EF3F 		.word	1072691580
 6541 3530 14C00842 		.word	1107869716
 6542 3534 7CF9EFBF 		.word	-1074792068
 6543 3538 7961F86F 		.word	1878548857
 6544 353c 396AA43F 		.word	1067739705
 6545 3540 AEFD25E4 		.word	-467272274
 6546 3544 55FBEF3F 		.word	1072692053
 6547 3548 7FC142DB 		.word	-616382081
 6548 354c 8546A13F 		.word	1067533957
 6549 3550 7FC142DB 		.word	-616382081
 6550 3554 8546A1BF 		.word	-1079949691
 6551 3558 AEFD25E4 		.word	-467272274
 6552 355c 55FBEF3F 		.word	1072692053
 6553 3560 5C343EE7 		.word	-415353764
 6554 3564 DED9E53F 		.word	1072028126
 6555 3568 6447302C 		.word	741361508
 6556 356c C560E73F 		.word	1072128197
 6557 3570 6447302C 		.word	741361508
 6558 3574 C560E7BF 		.word	-1075355451
 6559 3578 5C343EE7 		.word	-415353764
 6560 357c DED9E53F 		.word	1072028126
 6561 3580 E1A4E5C6 		.word	-958028575
 6562 3584 5522ED3F 		.word	1072505429
 6563 3588 1BF3DBD3 		.word	-740560101
 6564 358c 0C79DA3F 		.word	1071282444
 6565 3590 1BF3DBD3 		.word	-740560101
 6566 3594 0C79DABF 		.word	-1076201204
 6567 3598 E1A4E5C6 		.word	-958028575
 6568 359c 5522ED3F 		.word	1072505429
 6569 35a0 CB63AD9C 		.word	-1666358325
 6570 35a4 947BD63F 		.word	1071020948
 6571 35a8 9CA59B6A 		.word	1788585372
 6572 35ac E3F5ED3F 		.word	1072559587
 6573 35b0 9CA59B6A 		.word	1788585372
 6574 35b4 E3F5EDBF 		.word	-1074924061
 6575 35b8 CB63AD9C 		.word	-1666358325
 6576 35bc 947BD63F 		.word	1071020948
 6577 35c0 CE0946FC 		.word	-62518834
 6578 35c4 1728EF3F 		.word	1072637975
 6579 35c8 EEBD2C4D 		.word	1294777838
 6580 35cc 7731CD3F 		.word	1070412151
 6581 35d0 EEBD2C4D 		.word	1294777838
 6582 35d4 7731CDBF 		.word	-1077071497
 6583 35d8 CE0946FC 		.word	-62518834
 6584 35dc 1728EF3F 		.word	1072637975
 6585 35e0 B6C44BB8 		.word	-1202993994
 6586 35e4 D0DEE03F 		.word	1071701712
 6587 35e8 F37BF3A5 		.word	-1510769677
 6588 35ec 1531EB3F 		.word	1072378133
 6589 35f0 F37BF3A5 		.word	-1510769677
 6590 35f4 1531EBBF 		.word	-1075105515
 6591 35f8 B6C44BB8 		.word	-1202993994
 6592 35fc D0DEE03F 		.word	1071701712
 6593 3600 DE4931F1 		.word	-248428066
 6594 3604 F4FDE93F 		.word	1072299508
 6595 3608 58EB7AE8 		.word	-394597544
 6596 360c 76AAE23F 		.word	1071819382
 6597 3610 58EB7AE8 		.word	-394597544
 6598 3614 76AAE2BF 		.word	-1075664266
 6599 3618 DE4931F1 		.word	-248428066
 6600 361c F4FDE93F 		.word	1072299508
 6601 3620 88FA797F 		.word	2138700424
 6602 3624 B1B8C43F 		.word	1069856945
 6603 3628 08AC854F 		.word	1334160392
 6604 362c F193EF3F 		.word	1072665585
 6605 3630 08AC854F 		.word	1334160392
 6606 3634 F193EFBF 		.word	-1074818063
 6607 3638 88FA797F 		.word	2138700424
 6608 363c B1B8C43F 		.word	1069856945
 6609 3640 B7AD668D 		.word	-1922650697
 6610 3644 D1B8EF3F 		.word	1072675025
 6611 3648 8667B2BC 		.word	-1129158778
 6612 364c 4DD6C03F 		.word	1069602381
 6613 3650 8667B2BC 		.word	-1129158778
 6614 3654 4DD6C0BF 		.word	-1077881267
 6615 3658 B7AD668D 		.word	-1922650697
 6616 365c D1B8EF3F 		.word	1072675025
 6617 3660 8D7F811B 		.word	461471629
 6618 3664 5374E33F 		.word	1071871059
 6619 3668 E17FBD42 		.word	1119715297
 6620 366c 3F68E93F 		.word	1072261183
 6621 3670 E17FBD42 		.word	1119715297
 6622 3674 3F68E9BF 		.word	-1075222465
 6623 3678 8D7F811B 		.word	461471629
 6624 367c 5374E33F 		.word	1071871059
 6625 3680 0DC4B6A0 		.word	-1598634995
 6626 3684 49B2EB3F 		.word	1072411209
 6627 3688 E1822BC8 		.word	-936672543
 6628 368c 4007E03F 		.word	1071646528
 6629 3690 E1822BC8 		.word	-936672543
 6630 3694 4007E0BF 		.word	-1075837120
 6631 3698 0DC4B6A0 		.word	-1598634995
 6632 369c 49B2EB3F 		.word	1072411209
 6633 36a0 1E66EB05 		.word	99313182
 6634 36a4 4E80D03F 		.word	1070628942
 6635 36a8 44A5504C 		.word	1280353604
 6636 36ac 07EBEE3F 		.word	1072622343
 6637 36b0 44A5504C 		.word	1280353604
 6638 36b4 07EBEEBF 		.word	-1074861305
 6639 36b8 1E66EB05 		.word	99313182
 6640 36bc 4E80D03F 		.word	1070628942
 6641 36c0 5ECE81FF 		.word	-8270242
 6642 36c4 8D4AEE3F 		.word	1072581261
 6643 36c8 F3821BD1 		.word	-786726157
 6644 36cc 53A2D43F 		.word	1070899795
 6645 36d0 F3821BD1 		.word	-786726157
 6646 36d4 53A2D4BF 		.word	-1076583853
 6647 36d8 5ECE81FF 		.word	-8270242
 6648 36dc 8D4AEE3F 		.word	1072581261
 6649 36e0 29312647 		.word	1193685289
 6650 36e4 6D3FDC3F 		.word	1071398765
 6651 36e8 99DA000A 		.word	167828121
 6652 36ec E2B6EC3F 		.word	1072477922
 6653 36f0 99DA000A 		.word	167828121
 6654 36f4 E2B6ECBF 		.word	-1075005726
 6655 36f8 29312647 		.word	1193685289
 6656 36fc 6D3FDC3F 		.word	1071398765
 6657 3700 FA526E75 		.word	1970164474
 6658 3704 8B09E83F 		.word	1072171403
 6659 3708 A69AD91C 		.word	484022950
 6660 370c A81FE53F 		.word	1071980456
 6661 3710 A69AD91C 		.word	484022950
 6662 3714 A81FE5BF 		.word	-1075503192
 6663 3718 FA526E75 		.word	1970164474
 6664 371c 8B09E83F 		.word	1072171403
 6665 3720 6430464E 		.word	1313222756
 6666 3724 617BB03F 		.word	1068530529
 6667 3728 91618202 		.word	42099089
 6668 372c 01EFEF3F 		.word	1072688897
 6669 3730 91618202 		.word	42099089
 6670 3734 01EFEFBF 		.word	-1074794751
 6671 3738 6430464E 		.word	1313222756
 6672 373c 617BB03F 		.word	1068530529
 6673 3740 86D8E92B 		.word	736745606
 6674 3744 E9E3EF3F 		.word	1072686057
 6675 3748 0A4D4D4A 		.word	1246579978
 6676 374c 772EB53F 		.word	1068838519
 6677 3750 0A4D4D4A 		.word	1246579978
 6678 3754 772EB5BF 		.word	-1078645129
 6679 3758 86D8E92B 		.word	736745606
 6680 375c E9E3EF3F 		.word	1072686057
 6681 3760 F1226751 		.word	1365713649
 6682 3764 79ADE43F 		.word	1071951225
 6683 3768 95A19A1D 		.word	496673173
 6684 376c 0A6CE83F 		.word	1072196618
 6685 3770 95A19A1D 		.word	496673173
 6686 3774 0A6CE8BF 		.word	-1075287030
 6687 3778 F1226751 		.word	1365713649
 6688 377c 79ADE43F 		.word	1071951225
 6689 3780 D7AA9E89 		.word	-1986090281
 6690 3784 1573EC3F 		.word	1072460565
 6691 3788 9D60A82B 		.word	732455069
 6692 378c D04CDD3F 		.word	1071467728
 6693 3790 9D60A82B 		.word	732455069
 6694 3794 D04CDDBF 		.word	-1076015920
 6695 3798 D7AA9E89 		.word	-1986090281
 6696 379c 1573EC3F 		.word	1072460565
 6697 37a0 ABB653E3 		.word	-481053013
 6698 37a4 F583D33F 		.word	1070826485
 6699 37a8 5A16A529 		.word	698685018
 6700 37ac DB79EE3F 		.word	1072593371
 6701 37b0 5A16A529 		.word	698685018
 6702 37b4 DB79EEBF 		.word	-1074890277
 6703 37b8 ABB653E3 		.word	-481053013
 6704 37bc F583D33F 		.word	1070826485
 6705 37c0 B2F61A4B 		.word	1260058290
 6706 37c4 CFC2EE3F 		.word	1072612047
 6707 37c8 43F2E8FB 		.word	-68619709
 6708 37cc F7A2D13F 		.word	1070703351
 6709 37d0 43F2E8FB 		.word	-68619709
 6710 37d4 F7A2D1BF 		.word	-1076780297
 6711 37d8 B2F61A4B 		.word	1260058290
 6712 37dc CFC2EE3F 		.word	1072612047
 6713 37e0 FEF7BF06 		.word	113244158
 6714 37e4 1908DF3F 		.word	1071581209
 6715 37e8 47B1A125 		.word	631353671
 6716 37ec 9DFCEB3F 		.word	1072430237
 6717 37f0 47B1A125 		.word	631353671
 6718 37f4 9DFCEBBF 		.word	-1075053411
 6719 37f8 FEF7BF06 		.word	113244158
 6720 37fc 1908DF3F 		.word	1071581209
 6721 3800 FE5E5743 		.word	1129799422
 6722 3804 790BE93F 		.word	1072237433
 6723 3808 8006BEEA 		.word	-356645248
 6724 380c 33EBE33F 		.word	1071901491
 6725 3810 8006BEEA 		.word	-356645248
 6726 3814 33EBE3BF 		.word	-1075582157
 6727 3818 FE5E5743 		.word	1129799422
 6728 381c 790BE93F 		.word	1072237433
 6729 3820 C17D303B 		.word	993033665
 6730 3824 53FFBC3F 		.word	1069350739
 6731 3828 54439103 		.word	59851604
 6732 382c 47CBEF3F 		.word	1072679751
 6733 3830 54439103 		.word	59851604
 6734 3834 47CBEFBF 		.word	-1074803897
 6735 3838 C17D303B 		.word	993033665
 6736 383c 53FFBC3F 		.word	1069350739
 6737 3840 2A321A9C 		.word	-1676004822
 6738 3844 297AEF3F 		.word	1072658985
 6739 3848 FFC4088D 		.word	-1928805121
 6740 384c FD0AC73F 		.word	1070009085
 6741 3850 FFC4088D 		.word	-1928805121
 6742 3854 FD0AC7BF 		.word	-1077474563
 6743 3858 2A321A9C 		.word	-1676004822
 6744 385c 297AEF3F 		.word	1072658985
 6745 3860 E2132C66 		.word	1714164706
 6746 3864 2D2FE23F 		.word	1071787821
 6747 3868 23F59010 		.word	277935395
 6748 386c C954EA3F 		.word	1072321737
 6749 3870 23F59010 		.word	277935395
 6750 3874 C954EABF 		.word	-1075161911
 6751 3878 E2132C66 		.word	1714164706
 6752 387c 2D2FE23F 		.word	1071787821
 6753 3880 EFEC45F3 		.word	-213521169
 6754 3884 68E0EA3F 		.word	1072357480
 6755 3888 BCE2DBE4 		.word	-455351620
 6756 388c 365EE13F 		.word	1071734326
 6757 3890 BCE2DBE4 		.word	-455351620
 6758 3894 365EE1BF 		.word	-1075749322
 6759 3898 EFEC45F3 		.word	-213521169
 6760 389c 68E0EA3F 		.word	1072357480
 6761 38a0 ABB9F3D5 		.word	-705447509
 6762 38a4 F1E4CA3F 		.word	1070261489
 6763 38a8 B4ABBC06 		.word	113028020
 6764 38ac 2249EF3F 		.word	1072646434
 6765 38b0 B4ABBC06 		.word	113028020
 6766 38b4 2249EFBF 		.word	-1074837214
 6767 38b8 ABB9F3D5 		.word	-705447509
 6768 38bc F1E4CA3F 		.word	1070261489
 6769 38c0 9A759543 		.word	1133868442
 6770 38c4 9EBFED3F 		.word	1072545694
 6771 38c8 AEDF13E6 		.word	-434905170
 6772 38cc F594D73F 		.word	1071092981
 6773 38d0 AEDF13E6 		.word	-434905170
 6774 38d4 F594D7BF 		.word	-1076390667
 6775 38d8 9A759543 		.word	1133868442
 6776 38dc 9EBFED3F 		.word	1072545694
 6777 38e0 8F94ABB7 		.word	-1213492081
 6778 38e4 5565D93F 		.word	1071211861
 6779 38e8 7F8A8872 		.word	1921550975
 6780 38ec 715FED3F 		.word	1072521073
 6781 38f0 7F8A8872 		.word	1921550975
 6782 38f4 715FEDBF 		.word	-1074962575
 6783 38f8 8F94ABB7 		.word	-1213492081
 6784 38fc 5565D93F 		.word	1071211861
 6785 3900 755BC999 		.word	-1714857099
 6786 3904 CAF8E63F 		.word	1072101578
 6787 3908 5B537F43 		.word	1132417883
 6788 390c 1547E63F 		.word	1072056085
 6789 3910 5B537F43 		.word	1132417883
 6790 3914 1547E6BF 		.word	-1075427563
 6791 3918 755BC999 		.word	-1714857099
 6792 391c CAF8E63F 		.word	1072101578
 6793 3920 CB97B96A 		.word	1790547915
 6794 3924 296A8F3F 		.word	1066363433
 6795 3928 D13BC543 		.word	1136999377
 6796 392c 09FFEF3F 		.word	1072693001
 6797 3930 D13BC543 		.word	1136999377
 6798 3934 09FFEFBF 		.word	-1074790647
 6799 3938 CB97B96A 		.word	1790547915
 6800 393c 296A8F3F 		.word	1066363433
 6801 3940 77CB7068 		.word	1752222583
 6802 3944 1CFEEF3F 		.word	1072692764
 6803 3948 26B2FA21 		.word	570077734
 6804 394c 4DFD953F 		.word	1066794317
 6805 3950 26B2FA21 		.word	570077734
 6806 3954 4DFD95BF 		.word	-1080689331
 6807 3958 77CB7068 		.word	1752222583
 6808 395c 1CFEEF3F 		.word	1072692764
 6809 3960 FF22EC4F 		.word	1340875519
 6810 3964 E422E63F 		.word	1072046820
 6811 3968 BF410E96 		.word	-1777450561
 6812 396c AC1BE73F 		.word	1072110508
 6813 3970 BF410E96 		.word	-1777450561
 6814 3974 AC1BE7BF 		.word	-1075373140
 6815 3978 FF22EC4F 		.word	1340875519
 6816 397c E422E63F 		.word	1072046820
 6817 3980 2475181B 		.word	454587684
 6818 3984 5B4BED3F 		.word	1072515931
 6819 3988 F2F90D44 		.word	1141766642
 6820 398c 7DC1D93F 		.word	1071235453
 6821 3990 F2F90D44 		.word	1141766642
 6822 3994 7DC1D9BF 		.word	-1076248195
 6823 3998 2475181B 		.word	454587684
 6824 399c 5B4BED3F 		.word	1072515931
 6825 39a0 921026C9 		.word	-920252270
 6826 39a4 6337D73F 		.word	1071069027
 6827 39a8 5A918AF3 		.word	-209022630
 6828 39ac FED1ED3F 		.word	1072550398
 6829 39b0 5A918AF3 		.word	-209022630
 6830 39b4 FED1EDBF 		.word	-1074933250
 6831 39b8 921026C9 		.word	-920252270
 6832 39bc 6337D73F 		.word	1071069027
 6833 39c0 65BC1BBC 		.word	-1139032987
 6834 39c4 6B3EEF3F 		.word	1072643691
 6835 39c8 AD5DF134 		.word	888233389
 6836 39cc 63A9CB3F 		.word	1070311779
 6837 39d0 AD5DF134 		.word	888233389
 6838 39d4 63A9CBBF 		.word	-1077171869
 6839 39d8 65BC1BBC 		.word	-1139032987
 6840 39dc 6B3EEF3F 		.word	1072643691
 6841 39e0 4F25EECF 		.word	-806476465
 6842 39e4 E933E13F 		.word	1071723497
 6843 39e8 B6579FD8 		.word	-660645962
 6844 39ec 8FFBEA3F 		.word	1072364431
 6845 39f0 B6579FD8 		.word	-660645962
 6846 39f4 8FFBEABF 		.word	-1075119217
 6847 39f8 4F25EECF 		.word	-806476465
 6848 39fc E933E13F 		.word	1071723497
 6849 3a00 C63B594A 		.word	1247361990
 6850 3a04 1838EA3F 		.word	1072314392
 6851 3a08 1071BB4C 		.word	1287352592
 6852 3a0c 7358E23F 		.word	1071798387
 6853 3a10 1071BB4C 		.word	1287352592
 6854 3a14 7358E2BF 		.word	-1075685261
 6855 3a18 C63B594A 		.word	1247361990
 6856 3a1c 1838EA3F 		.word	1072314392
 6857 3a20 0D831D83 		.word	-2095217907
 6858 3a24 1A45C63F 		.word	1069958426
 6859 3a28 0CC6404A 		.word	1245758988
 6860 3a2c 0F83EF3F 		.word	1072661263
 6861 3a30 0CC6404A 		.word	1245758988
 6862 3a34 0F83EFBF 		.word	-1074822385
 6863 3a38 0D831D83 		.word	-2095217907
 6864 3a3c 1A45C63F 		.word	1069958426
 6865 3a40 F69A7D3B 		.word	998087414
 6866 3a44 6EC5EF3F 		.word	1072678254
 6867 3a48 3FAAE4FD 		.word	-35345857
 6868 3a4c B78EBE3F 		.word	1069452983
 6869 3a50 3FAAE4FD 		.word	-35345857
 6870 3a54 B78EBEBF 		.word	-1078030665
 6871 3a58 F69A7D3B 		.word	998087414
 6872 3a5c 6EC5EF3F 		.word	1072678254
 6873 3a60 18C58149 		.word	1233241368
 6874 3a64 C4C3E33F 		.word	1071891396
 6875 3a68 15A8C51F 		.word	533047317
 6876 3a6c A42AE93F 		.word	1072245412
 6877 3a70 15A8C51F 		.word	533047317
 6878 3a74 A42AE9BF 		.word	-1075238236
 6879 3a78 18C58149 		.word	1233241368
 6880 3a7c C4C3E33F 		.word	1071891396
 6881 3a80 C1541161 		.word	1628525761
 6882 3a84 1BE4EB3F 		.word	1072423963
 6883 3a88 A3CD56E6 		.word	-430518877
 6884 3a8c DE5FDF3F 		.word	1071603678
 6885 3a90 A3CD56E6 		.word	-430518877
 6886 3a94 DE5FDFBF 		.word	-1075879970
 6887 3a98 C1541161 		.word	1628525761
 6888 3a9c 1BE4EB3F 		.word	1072423963
 6889 3aa0 7893C6EF 		.word	-272198792
 6890 3aa4 3E42D13F 		.word	1070678590
 6891 3aa8 0990995E 		.word	1587122185
 6892 3aac 83D0EE3F 		.word	1072615555
 6893 3ab0 0990995E 		.word	1587122185
 6894 3ab4 83D0EEBF 		.word	-1074868093
 6895 3ab8 7893C6EF 		.word	-272198792
 6896 3abc 3E42D13F 		.word	1070678590
 6897 3ac0 A7535DC5 		.word	-983739481
 6898 3ac4 616AEE3F 		.word	1072589409
 6899 3ac8 71C26EE9 		.word	-378617231
 6900 3acc 9BE3D33F 		.word	1070850971
 6901 3ad0 71C26EE9 		.word	-378617231
 6902 3ad4 9BE3D3BF 		.word	-1076632677
 6903 3ad8 A7535DC5 		.word	-983739481
 6904 3adc 616AEE3F 		.word	1072589409
 6905 3ae0 21CDE1AE 		.word	-1360933599
 6906 3ae4 4BF3DC3F 		.word	1071444811
 6907 3ae8 139C0287 		.word	-2029872109
 6908 3aec F589EC3F 		.word	1072466421
 6909 3af0 139C0287 		.word	-2029872109
 6910 3af4 F589ECBF 		.word	-1075017227
 6911 3af8 21CDE1AE 		.word	-1360933599
 6912 3afc 4BF3DC3F 		.word	1071444811
 6913 3b00 FA83AF11 		.word	296715258
 6914 3b04 714BE83F 		.word	1072188273
 6915 3b08 7F9F586D 		.word	1834524543
 6916 3b0c BCD3E43F 		.word	1071961020
 6917 3b10 7F9F586D 		.word	1834524543
 6918 3b14 BCD3E4BF 		.word	-1075522628
 6919 3b18 FA83AF11 		.word	296715258
 6920 3b1c 714BE83F 		.word	1072188273
 6921 3b20 99A2C512 		.word	314942105
 6922 3b24 9F9DB33F 		.word	1068735903
 6923 3b28 602D4885 		.word	-2058867360
 6924 3b2c EAE7EF3F 		.word	1072687082
 6925 3b30 602D4885 		.word	-2058867360
 6926 3b34 EAE7EFBF 		.word	-1074796566
 6927 3b38 99A2C512 		.word	314942105
 6928 3b3c 9F9DB33F 		.word	1068735903
 6929 3b40 0F413025 		.word	623919375
 6930 3b44 9DEBEF3F 		.word	1072688029
 6931 3b48 4D44ED74 		.word	1961706573
 6932 3b4c 960CB23F 		.word	1068633238
 6933 3b50 4D44ED74 		.word	1961706573
 6934 3b54 960CB2BF 		.word	-1078850410
 6935 3b58 0F413025 		.word	623919375
 6936 3b5c 9DEBEF3F 		.word	1072688029
 6937 3b60 86A4CC25 		.word	634168454
 6938 3b64 CCF9E43F 		.word	1071970764
 6939 3b68 FF45F513 		.word	334841343
 6940 3b6c 9C2AE83F 		.word	1072179868
 6941 3b70 FF45F513 		.word	334841343
 6942 3b74 9C2AE8BF 		.word	-1075303780
 6943 3b78 86A4CC25 		.word	634168454
 6944 3b7c CCF9E43F 		.word	1071970764
 6945 3b80 49C4B919 		.word	431604809
 6946 3b84 8FA0EC3F 		.word	1072472207
 6947 3b88 895386C3 		.word	-1014606967
 6948 3b8c 7F99DC3F 		.word	1071421823
 6949 3b90 895386C3 		.word	-1014606967
 6950 3b94 7F99DCBF 		.word	-1076061825
 6951 3b98 49C4B919 		.word	431604809
 6952 3b9c 8FA0EC3F 		.word	1072472207
 6953 3ba0 F03689DC 		.word	-594987280
 6954 3ba4 1043D43F 		.word	1070875408
 6955 3ba8 D3670455 		.word	1426352083
 6956 3bac 9D5AEE3F 		.word	1072585373
 6957 3bb0 D3670455 		.word	1426352083
 6958 3bb4 9D5AEEBF 		.word	-1074898275
 6959 3bb8 F03689DC 		.word	-594987280
 6960 3bbc 1043D43F 		.word	1070875408
 6961 3bc0 5186076A 		.word	1778878033
 6962 3bc4 EBDDEE3F 		.word	1072618987
 6963 3bc8 CE49174E 		.word	1310149070
 6964 3bcc 5BE1D03F 		.word	1070653787
 6965 3bd0 CE49174E 		.word	1310149070
 6966 3bd4 5BE1D0BF 		.word	-1076829861
 6967 3bd8 5186076A 		.word	1778878033
 6968 3bdc EBDDEE3F 		.word	1072618987
 6969 3be0 DED2245C 		.word	1545917150
 6970 3be4 57B7DF3F 		.word	1071626071
 6971 3be8 27230DCB 		.word	-888331481
 6972 3bec 54CBEB3F 		.word	1072417620
 6973 3bf0 27230DCB 		.word	-888331481
 6974 3bf4 54CBEBBF 		.word	-1075066028
 6975 3bf8 DED2245C 		.word	1545917150
 6976 3bfc 57B7DF3F 		.word	1071626071
 6977 3c00 6C4AACE3 		.word	-475248020
 6978 3c04 9049E93F 		.word	1072253328
 6979 3c08 2930D6E3 		.word	-472502231
 6980 3c0c 239CE33F 		.word	1071881251
 6981 3c10 2930D6E3 		.word	-472502231
 6982 3c14 239CE3BF 		.word	-1075602397
 6983 3c18 6C4AACE3 		.word	-475248020
 6984 3c1c 9049E93F 		.word	1072253328
 6985 3c20 5BB86FAD 		.word	-1385187237
 6986 3c24 E80EC03F 		.word	1069551336
 6987 3c28 888D0A0F 		.word	252349832
 6988 3c2c 47BFEF3F 		.word	1072676679
 6989 3c30 888D0A0F 		.word	252349832
 6990 3c34 47BFEFBF 		.word	-1074806969
 6991 3c38 5BB86FAD 		.word	-1385187237
 6992 3c3c E80EC03F 		.word	1069551336
 6993 3c40 784BCB37 		.word	936070008
 6994 3c44 A78BEF3F 		.word	1072663463
 6995 3c48 DECB5486 		.word	-2041263138
 6996 3c4c 007FC53F 		.word	1069907712
 6997 3c50 DECB5486 		.word	-2041263138
 6998 3c54 007FC5BF 		.word	-1077575936
 6999 3c58 784BCB37 		.word	936070008
 7000 3c5c A78BEF3F 		.word	1072663463
 7001 3c60 BA3C4DEF 		.word	-280150854
 7002 3c64 8B81E23F 		.word	1071808907
 7003 3c68 5EA7C0D2 		.word	-759126178
 7004 3c6c 261BEA3F 		.word	1072306982
 7005 3c70 5EA7C0D2 		.word	-759126178
 7006 3c74 261BEABF 		.word	-1075176666
 7007 3c78 BA3C4DEF 		.word	-280150854
 7008 3c7c 8B81E23F 		.word	1071808907
 7009 3c80 F5A24C2A 		.word	709665525
 7010 3c84 7416EB3F 		.word	1072371316
 7011 3c88 57A9D048 		.word	1221634391
 7012 3c8c 7209E13F 		.word	1071712626
 7013 3c90 57A9D048 		.word	1221634391
 7014 3c94 7209E1BF 		.word	-1075771022
 7015 3c98 F5A24C2A 		.word	709665525
 7016 3c9c 7416EB3F 		.word	1072371316
 7017 3ca0 DD745D53 		.word	1398633693
 7018 3ca4 906DCC3F 		.word	1070362000
 7019 3ca8 F0AE3A5A 		.word	1513795312
 7020 3cac 6833EF3F 		.word	1072640872
 7021 3cb0 F0AE3A5A 		.word	1513795312
 7022 3cb4 6833EFBF 		.word	-1074842776
 7023 3cb8 DD745D53 		.word	1398633693
 7024 3cbc 906DCC3F 		.word	1070362000
 7025 3cc0 818D6D0F 		.word	258837889
 7026 3cc4 16E4ED3F 		.word	1072555030
 7027 3cc8 B60C8A63 		.word	1669991606
 7028 3ccc 98D9D63F 		.word	1071045016
 7029 3cd0 B60C8A63 		.word	1669991606
 7030 3cd4 98D9D6BF 		.word	-1076438632
 7031 3cd8 818D6D0F 		.word	258837889
 7032 3cdc 16E4ED3F 		.word	1072555030
 7033 3ce0 C00AB543 		.word	1135938240
 7034 3ce4 651DDA3F 		.word	1071258981
 7035 3ce8 DCFBCB7B 		.word	2076965852
 7036 3cec FC36ED3F 		.word	1072510716
 7037 3cf0 DCFBCB7B 		.word	2076965852
 7038 3cf4 FC36EDBF 		.word	-1074972932
 7039 3cf8 C00AB543 		.word	1135938240
 7040 3cfc 651DDA3F 		.word	1071258981
 7041 3d00 4299078E 		.word	-1912104638
 7042 3d04 553EE73F 		.word	1072119381
 7043 3d08 106AE5BD 		.word	-1109038576
 7044 3d0c 7CFEE53F 		.word	1072037500
 7045 3d10 106AE5BD 		.word	-1109038576
 7046 3d14 7CFEE5BF 		.word	-1075446148
 7047 3d18 4299078E 		.word	-1912104638
 7048 3d1c 553EE73F 		.word	1072119381
 7049 3d20 1D3BE54C 		.word	1290091293
 7050 3d24 4F459C3F 		.word	1067205967
 7051 3d28 79A6E29C 		.word	-1662867847
 7052 3d2c E0FCEF3F 		.word	1072692448
 7053 3d30 79A6E29C 		.word	-1662867847
 7054 3d34 E0FCEFBF 		.word	-1074791200
 7055 3d38 1D3BE54C 		.word	1290091293
 7056 3d3c 4F459C3F 		.word	1067205967
 7057 3d40 64911BBB 		.word	-1155821212
 7058 3d44 53F7EF3F 		.word	1072691027
 7059 3d48 864687A5 		.word	-1517861242
 7060 3d4c BA8DA73F 		.word	1067945402
 7061 3d50 864687A5 		.word	-1517861242
 7062 3d54 BA8DA7BF 		.word	-1079538246
 7063 3d58 64911BBB 		.word	-1155821212
 7064 3d5c 53F7EF3F 		.word	1072691027
 7065 3d60 DF23F7D5 		.word	-705223713
 7066 3d64 0190E53F 		.word	1072009217
 7067 3d68 D297BF07 		.word	129996754
 7068 3d6c F7A4E73F 		.word	1072145655
 7069 3d70 D297BF07 		.word	129996754
 7070 3d74 F7A4E7BF 		.word	-1075337993
 7071 3d78 DF23F7D5 		.word	-705223713
 7072 3d7c 0190E53F 		.word	1072009217
 7073 3d80 7B46CEE8 		.word	-389134725
 7074 3d84 30F8EC3F 		.word	1072494640
 7075 3d88 7219B31D 		.word	498276722
 7076 3d8c 972FDB3F 		.word	1071329175
 7077 3d90 7219B31D 		.word	498276722
 7078 3d94 972FDBBF 		.word	-1076154473
 7079 3d98 7B46CEE8 		.word	-389134725
 7080 3d9c 30F8EC3F 		.word	1072494640
 7081 3da0 B6B39D8B 		.word	-1952599114
 7082 3da4 E7BED53F 		.word	1070972647
 7083 3da8 D966DC2F 		.word	802973401
 7084 3dac A018EE3F 		.word	1072568480
 7085 3db0 D966DC2F 		.word	802973401
 7086 3db4 A018EEBF 		.word	-1074915168
 7087 3db8 B6B39D8B 		.word	-1952599114
 7088 3dbc E7BED53F 		.word	1070972647
 7089 3dc0 5F8F89BC 		.word	-1131835553
 7090 3dc4 9010EF3F 		.word	1072631952
 7091 3dc8 48E32D46 		.word	1177412424
 7092 3dcc 6BB8CE3F 		.word	1070512235
 7093 3dd0 48E32D46 		.word	1177412424
 7094 3dd4 6BB8CEBF 		.word	-1076971413
 7095 3dd8 5F8F89BC 		.word	-1131835553
 7096 3ddc 9010EF3F 		.word	1072631952
 7097 3de0 8CB03220 		.word	540192908
 7098 3de4 1189E03F 		.word	1071679761
 7099 3de8 47BCFD14 		.word	352173127
 7100 3dec 8F65EB3F 		.word	1072391567
 7101 3df0 47BCFD14 		.word	352173127
 7102 3df4 8F65EBBF 		.word	-1075092081
 7103 3df8 8CB03220 		.word	540192908
 7104 3dfc 1189E03F 		.word	1071679761
 7105 3e00 C275F010 		.word	284194242
 7106 3e04 D1C2E93F 		.word	1072284369
 7107 3e08 1510444B 		.word	1262751765
 7108 3e0c C2FBE23F 		.word	1071840194
 7109 3e10 1510444B 		.word	1262751765
 7110 3e14 C2FBE2BF 		.word	-1075643454
 7111 3e18 C275F010 		.word	284194242
 7112 3e1c D1C2E93F 		.word	1072284369
 7113 3e20 A71645F9 		.word	-112912729
 7114 3e24 7B2BC33F 		.word	1069755259
 7115 3e28 91177AAC 		.word	-1401284719
 7116 3e2c 9BA3EF3F 		.word	1072669595
 7117 3e30 91177AAC 		.word	-1401284719
 7118 3e34 9BA3EFBF 		.word	-1074814053
 7119 3e38 A71645F9 		.word	-112912729
 7120 3e3c 7B2BC33F 		.word	1069755259
 7121 3e40 DCFD0CCB 		.word	-888341028
 7122 3e44 FBAAEF3F 		.word	1072671483
 7123 3e48 0934FD4D 		.word	1308439561
 7124 3e4c 9964C23F 		.word	1069704345
 7125 3e50 0934FD4D 		.word	1308439561
 7126 3e54 9964C2BF 		.word	-1077779303
 7127 3e58 DCFD0CCB 		.word	-888341028
 7128 3e5c FBAAEF3F 		.word	1072671483
 7129 3e60 1FA649EC 		.word	-330717665
 7130 3e64 2124E33F 		.word	1071850529
 7131 3e68 B2062BA4 		.word	-1540684110
 7132 3e6c DFA4E93F 		.word	1072276703
 7133 3e70 B2062BA4 		.word	-1540684110
 7134 3e74 DFA4E9BF 		.word	-1075206945
 7135 3e78 1FA649EC 		.word	-330717665
 7136 3e7c 2124E33F 		.word	1071850529
 7137 3e80 E992E786 		.word	-2031643927
 7138 3e84 667FEB3F 		.word	1072398182
 7139 3e88 B7B831EC 		.word	-332285769
 7140 3e8c F35DE03F 		.word	1071668723
 7141 3e90 B7B831EC 		.word	-332285769
 7142 3e94 F35DE0BF 		.word	-1075814925
 7143 3e98 E992E786 		.word	-2031643927
 7144 3e9c 667FEB3F 		.word	1072398182
 7145 3ea0 0238BD80 		.word	-2135083006
 7146 3ea4 747BCF3F 		.word	1070562164
 7147 3ea8 8C73CF14 		.word	349139852
 7148 3eac 5A04EF3F 		.word	1072628826
 7149 3eb0 8C73CF14 		.word	349139852
 7150 3eb4 5A04EFBF 		.word	-1074854822
 7151 3eb8 0238BD80 		.word	-2135083006
 7152 3ebc 747BCF3F 		.word	1070562164
 7153 3ec0 7A193944 		.word	1144592762
 7154 3ec4 8F29EE3F 		.word	1072572815
 7155 3ec8 B467F412 		.word	318007220
 7156 3ecc 4060D53F 		.word	1070948416
 7157 3ed0 B467F412 		.word	318007220
 7158 3ed4 4060D5BF 		.word	-1076535232
 7159 3ed8 7A193944 		.word	1144592762
 7160 3edc 8F29EE3F 		.word	1072572815
 7161 3ee0 9356FD14 		.word	352147091
 7162 3ee4 788ADB3F 		.word	1071352440
 7163 3ee8 60A09927 		.word	664379488
 7164 3eec B3E2EC3F 		.word	1072489139
 7165 3ef0 60A09927 		.word	664379488
 7166 3ef4 B3E2ECBF 		.word	-1074994509
 7167 3ef8 9356FD14 		.word	352147091
 7168 3efc 788ADB3F 		.word	1071352440
 7169 3f00 33D3E29C 		.word	-1662856397
 7170 3f04 B8C6E73F 		.word	1072154296
 7171 3f08 9F649751 		.word	1368876191
 7172 3f0c C36AE53F 		.word	1071999683
 7173 3f10 9F649751 		.word	1368876191
 7174 3f14 C36AE5BF 		.word	-1075483965
 7175 3f18 33D3E29C 		.word	-1662856397
 7176 3f1c B8C6E73F 		.word	1072154296
 7177 3f20 17835FBD 		.word	-1117813993
 7178 3f24 01B1AA3F 		.word	1068151041
 7179 3f28 D3BEB154 		.word	1420934867
 7180 3f2c DCF4EF3F 		.word	1072690396
 7181 3f30 D3BEB154 		.word	1420934867
 7182 3f34 DCF4EFBF 		.word	-1074793252
 7183 3f38 17835FBD 		.word	-1117813993
 7184 3f3c 01B1AA3F 		.word	1068151041
 7185 3f40 8C531475 		.word	1964266380
 7186 3f44 FADAEF3F 		.word	1072683770
 7187 3f48 A130C112 		.word	314650785
 7188 3f4c 874FB83F 		.word	1069043591
 7189 3f50 A130C112 		.word	314650785
 7190 3f54 874FB8BF 		.word	-1078440057
 7191 3f58 8C531475 		.word	1964266380
 7192 3f5c FADAEF3F 		.word	1072683770
 7193 3f60 A2322B69 		.word	1764438690
 7194 3f64 5A60E43F 		.word	1071931482
 7195 3f68 881DDE1E 		.word	517873032
 7196 3f6c 87ACE83F 		.word	1072213127
 7197 3f70 881DDE1E 		.word	517873032
 7198 3f74 87ACE8BF 		.word	-1075270521
 7199 3f78 A2322B69 		.word	1764438690
 7200 3f7c 5A60E43F 		.word	1071931482
 7201 3f80 04C04131 		.word	826392580
 7202 3f84 8344EC3F 		.word	1072448643
 7203 3f88 DE41A966 		.word	1722368478
 7204 3f8c FFFEDD3F 		.word	1071513343
 7205 3f90 DE41A966 		.word	1722368478
 7206 3f94 FFFEDDBF 		.word	-1075970305
 7207 3f98 04C04131 		.word	826392580
 7208 3f9c 8344EC3F 		.word	1072448643
 7209 3fa0 2045954E 		.word	1318405408
 7210 3fa4 1AC4D23F 		.word	1070777370
 7211 3fa8 306B0136 		.word	906062640
 7212 3fac EC97EE3F 		.word	1072601068
 7213 3fb0 306B0136 		.word	906062640
 7214 3fb4 EC97EEBF 		.word	-1074882580
 7215 3fb8 2045954E 		.word	1318405408
 7216 3fbc 1AC4D23F 		.word	1070777370
 7217 3fc0 0058E693 		.word	-1813620736
 7218 3fc4 83A6EE3F 		.word	1072604803
 7219 3fc8 BA545599 		.word	-1722460998
 7220 3fcc E663D23F 		.word	1070752742
 7221 3fd0 BA545599 		.word	-1722460998
 7222 3fd4 E663D2BF 		.word	-1076730906
 7223 3fd8 0058E693 		.word	-1813620736
 7224 3fdc 83A6EE3F 		.word	1072604803
 7225 3fe0 25D83C6D 		.word	1832704037
 7226 3fe4 A857DE3F 		.word	1071536040
 7227 3fe8 F1E33149 		.word	1228006385
 7228 3fec D12CEC3F 		.word	1072442577
 7229 3ff0 F1E33149 		.word	1228006385
 7230 3ff4 D12CECBF 		.word	-1075041071
 7231 3ff8 25D83C6D 		.word	1832704037
 7232 3ffc A857DE3F 		.word	1071536040
 7233 4000 55461875 		.word	1964525141
 7234 4004 6ACCE83F 		.word	1072221290
 7235 4008 80432A5B 		.word	1529496448
 7236 400c 7F39E43F 		.word	1071921535
 7237 4010 80432A5B 		.word	1529496448
 7238 4014 7F39E4BF 		.word	-1075562113
 7239 4018 55461875 		.word	1964525141
 7240 401c 6ACCE83F 		.word	1072221290
 7241 4020 5CA824EB 		.word	-349919140
 7242 4024 B6DFB93F 		.word	1069146038
 7243 4028 9E5CA72D 		.word	765942942
 7244 402c 0DD6EF3F 		.word	1072682509
 7245 4030 9E5CA72D 		.word	765942942
 7246 4034 0DD6EFBF 		.word	-1074801139
 7247 4038 5CA824EB 		.word	-349919140
 7248 403c B6DFB93F 		.word	1069146038
 7249 4040 EE3C8856 		.word	1451769070
 7250 4044 7567EF3F 		.word	1072654197
 7251 4048 0418C427 		.word	667162628
 7252 404c 1796C83F 		.word	1070110231
 7253 4050 0418C427 		.word	667162628
 7254 4054 1796C8BF 		.word	-1077373417
 7255 4058 EE3C8856 		.word	1451769070
 7256 405c 7567EF3F 		.word	1072654197
 7257 4060 7248DC64 		.word	1692158066
 7258 4064 1BDCE13F 		.word	1071766555
 7259 4068 D25A546E 		.word	1851022034
 7260 406c 678DEA3F 		.word	1072336231
 7261 4070 D25A546E 		.word	1851022034
 7262 4074 678DEABF 		.word	-1075147417
 7263 4078 7248DC64 		.word	1692158066
 7264 407c 1BDCE13F 		.word	1071766555
 7265 4080 8EB92C7A 		.word	2049751438
 7266 4084 54A9EA3F 		.word	1072343380
 7267 4088 BF731317 		.word	387150783
 7268 408c 50B2E13F 		.word	1071755856
 7269 4090 BF731317 		.word	387150783
 7270 4094 50B2E1BF 		.word	-1075727792
 7271 4098 8EB92C7A 		.word	2049751438
 7272 409c 54A9EA3F 		.word	1072343380
 7273 40a0 FA2AB6E9 		.word	-373937414
 7274 40a4 495BC93F 		.word	1070160713
 7275 40a8 5D6843ED 		.word	-314349475
 7276 40ac A65DEF3F 		.word	1072651686
 7277 40b0 5D6843ED 		.word	-314349475
 7278 40b4 A65DEFBF 		.word	-1074831962
 7279 40b8 FA2AB6E9 		.word	-373937414
 7280 40bc 495BC93F 		.word	1070160713
 7281 40c0 463D8BDD 		.word	-578077370
 7282 40c4 009AED3F 		.word	1072536064
 7283 40c8 3F90F3AA 		.word	-1426878401
 7284 40cc 6A4FD83F 		.word	1071140714
 7285 40d0 3F90F3AA 		.word	-1426878401
 7286 40d4 6A4FD8BF 		.word	-1076342934
 7287 40d8 463D8BDD 		.word	-578077370
 7288 40dc 009AED3F 		.word	1072536064
 7289 40e0 44EDD586 		.word	-2032800444
 7290 40e4 4BACD83F 		.word	1071164491
 7291 40e8 4FA44584 		.word	-2075810737
 7292 40ec C486ED3F 		.word	1072531140
 7293 40f0 4FA44584 		.word	-2075810737
 7294 40f4 C486EDBF 		.word	-1074952508
 7295 40f8 44EDD586 		.word	-2032800444
 7296 40fc 4BACD83F 		.word	1071164491
 7297 4100 9CE22FED 		.word	-315628900
 7298 4104 5CB2E63F 		.word	1072083548
 7299 4108 719CA1EA 		.word	-358507407
 7300 410c D18EE63F 		.word	1072074449
 7301 4110 719CA1EA 		.word	-358507407
 7302 4114 D18EE6BF 		.word	-1075409199
 7303 4118 9CE22FED 		.word	-315628900
 7304 411c 5CB2E63F 		.word	1072083548
 7305 4120 BAA4CCBE 		.word	-1093884742
 7306 4124 F821693F 		.word	1063854584
 7307 4128 021D6221 		.word	560078082
 7308 412c F6FFEF3F 		.word	1072693238
 7309 4130 021D6221 		.word	560078082
 7310 4134 F6FFEFBF 		.word	-1074790410
 7311 4138 BAA4CCBE 		.word	-1093884742
 7312 413c F821693F 		.word	1063854584
 7313              		.global	falcon_inner_fpr_p2_tab
 7314              		.align	3
 7317              	falcon_inner_fpr_p2_tab:
 7318 4140 00000000 		.word	0
 7319 4144 00000040 		.word	1073741824
 7320 4148 00000000 		.word	0
 7321 414c 0000F03F 		.word	1072693248
 7322 4150 00000000 		.word	0
 7323 4154 0000E03F 		.word	1071644672
 7324 4158 00000000 		.word	0
 7325 415c 0000D03F 		.word	1070596096
 7326 4160 00000000 		.word	0
 7327 4164 0000C03F 		.word	1069547520
 7328 4168 00000000 		.word	0
 7329 416c 0000B03F 		.word	1068498944
 7330 4170 00000000 		.word	0
 7331 4174 0000A03F 		.word	1067450368
 7332 4178 00000000 		.word	0
 7333 417c 0000903F 		.word	1066401792
 7334 4180 00000000 		.word	0
 7335 4184 0000803F 		.word	1065353216
 7336 4188 00000000 		.word	0
 7337 418c 0000703F 		.word	1064304640
 7338 4190 00000000 		.word	0
 7339 4194 0000603F 		.word	1063256064
 7340              		.align	3
 7343              	C.0:
 7344 4198 A3831174 		.word	1947304867
 7345 419c 04000000 		.word	4
 7346 41a0 06FC8C54 		.word	1418525702
 7347 41a4 36000000 		.word	54
 7348 41a8 0A14BFDC 		.word	-591457270
 7349 41ac 4F020000 		.word	591
 7350 41b0 45E09D93 		.word	-1818369979
 7351 41b4 1D170000 		.word	5917
 7352 41b8 846F8FF5 		.word	-175149180
 7353 41bc 0CD00000 		.word	53260
 7354 41c0 E396F71C 		.word	485988067
 7355 41c4 68800600 		.word	426088
 7356 41c8 EA0F5B30 		.word	811274218
 7357 41cc D8822D00 		.word	2982616
 7358 41d0 D06F060E 		.word	235302864
 7359 41d4 11111101 		.word	17895697
 7360 41d8 000F0755 		.word	1426525952
 7361 41dc 55555505 		.word	89478485
 7362 41e0 00FF8155 		.word	1434582784
 7363 41e4 55555515 		.word	357913941
 7364 41e8 00B40200 		.word	177152
 7365 41ec 00000040 		.word	1073741824
 7366 41f0 0048FFFF 		.word	-47104
 7367 41f4 FFFFFF7F 		.word	2147483647
 7368 41f8 00000000 		.word	0
 7369 41fc 00000080 		.word	-2147483648
 7370              		.text
 7371              	.Letext0:
 7372              		.file 3 "c:\\users\\user\\chipwhisperer5_64\\cw\\home\\portable\\armgcc\\gcc-arm-none-eabi-10-2020
 7373              		.file 4 "c:\\users\\user\\chipwhisperer5_64\\cw\\home\\portable\\armgcc\\gcc-arm-none-eabi-10-2020
DEFINED SYMBOLS
                            *ABS*:00000000 fpr.c
C:\Users\user\AppData\Local\Temp\ccB4cx0U.s:16     .text.fpr_ursh:00000000 $t
C:\Users\user\AppData\Local\Temp\ccB4cx0U.s:23     .text.fpr_ursh:00000000 fpr_ursh
C:\Users\user\AppData\Local\Temp\ccB4cx0U.s:127    .text.fpr_ulsh:00000000 $t
C:\Users\user\AppData\Local\Temp\ccB4cx0U.s:133    .text.fpr_ulsh:00000000 fpr_ulsh
C:\Users\user\AppData\Local\Temp\ccB4cx0U.s:236    .text.FPR:00000000 $t
C:\Users\user\AppData\Local\Temp\ccB4cx0U.s:242    .text.FPR:00000000 FPR
C:\Users\user\AppData\Local\Temp\ccB4cx0U.s:408    .rodata:00000000 $d
C:\Users\user\AppData\Local\Temp\ccB4cx0U.s:411    .rodata:00000000 fpr_q
C:\Users\user\AppData\Local\Temp\ccB4cx0U.s:417    .rodata:00000008 fpr_inverse_of_q
C:\Users\user\AppData\Local\Temp\ccB4cx0U.s:423    .rodata:00000010 fpr_inv_2sqrsigma0
C:\Users\user\AppData\Local\Temp\ccB4cx0U.s:429    .rodata:00000018 fpr_inv_sigma
C:\Users\user\AppData\Local\Temp\ccB4cx0U.s:455    .rodata:00000070 fpr_sigma_min
C:\Users\user\AppData\Local\Temp\ccB4cx0U.s:481    .rodata:000000c8 fpr_log2
C:\Users\user\AppData\Local\Temp\ccB4cx0U.s:487    .rodata:000000d0 fpr_inv_log2
C:\Users\user\AppData\Local\Temp\ccB4cx0U.s:493    .rodata:000000d8 fpr_bnorm_max
C:\Users\user\AppData\Local\Temp\ccB4cx0U.s:499    .rodata:000000e0 fpr_zero
C:\Users\user\AppData\Local\Temp\ccB4cx0U.s:504    .rodata:000000e8 fpr_one
C:\Users\user\AppData\Local\Temp\ccB4cx0U.s:510    .rodata:000000f0 fpr_two
C:\Users\user\AppData\Local\Temp\ccB4cx0U.s:516    .rodata:000000f8 fpr_onehalf
C:\Users\user\AppData\Local\Temp\ccB4cx0U.s:522    .rodata:00000100 fpr_invsqrt2
C:\Users\user\AppData\Local\Temp\ccB4cx0U.s:528    .rodata:00000108 fpr_invsqrt8
C:\Users\user\AppData\Local\Temp\ccB4cx0U.s:534    .rodata:00000110 fpr_ptwo31
C:\Users\user\AppData\Local\Temp\ccB4cx0U.s:540    .rodata:00000118 fpr_ptwo31m1
C:\Users\user\AppData\Local\Temp\ccB4cx0U.s:546    .rodata:00000120 fpr_mtwo31m1
C:\Users\user\AppData\Local\Temp\ccB4cx0U.s:552    .rodata:00000128 fpr_ptwo63m1
C:\Users\user\AppData\Local\Temp\ccB4cx0U.s:558    .rodata:00000130 fpr_mtwo63m1
C:\Users\user\AppData\Local\Temp\ccB4cx0U.s:564    .rodata:00000138 fpr_ptwo63
C:\Users\user\AppData\Local\Temp\ccB4cx0U.s:568    .text.fpr_trunc:00000000 $t
C:\Users\user\AppData\Local\Temp\ccB4cx0U.s:574    .text.fpr_trunc:00000000 fpr_trunc
C:\Users\user\AppData\Local\Temp\ccB4cx0U.s:710    .text.falcon_inner_fpr_scaled:00000000 $t
C:\Users\user\AppData\Local\Temp\ccB4cx0U.s:717    .text.falcon_inner_fpr_scaled:00000000 falcon_inner_fpr_scaled
C:\Users\user\AppData\Local\Temp\ccB4cx0U.s:759    .text.falcon_inner_fpr_add:00000000 $t
C:\Users\user\AppData\Local\Temp\ccB4cx0U.s:766    .text.falcon_inner_fpr_add:00000000 falcon_inner_fpr_add
C:\Users\user\AppData\Local\Temp\ccB4cx0U.s:1565   .text.falcon_inner_fpr_mul:00000000 $t
C:\Users\user\AppData\Local\Temp\ccB4cx0U.s:1572   .text.falcon_inner_fpr_mul:00000000 falcon_inner_fpr_mul
C:\Users\user\AppData\Local\Temp\ccB4cx0U.s:1971   .text.falcon_inner_fpr_div:00000000 $t
C:\Users\user\AppData\Local\Temp\ccB4cx0U.s:1978   .text.falcon_inner_fpr_div:00000000 falcon_inner_fpr_div
C:\Users\user\AppData\Local\Temp\ccB4cx0U.s:2317   .text.falcon_inner_fpr_sqrt:00000000 $t
C:\Users\user\AppData\Local\Temp\ccB4cx0U.s:2324   .text.falcon_inner_fpr_sqrt:00000000 falcon_inner_fpr_sqrt
C:\Users\user\AppData\Local\Temp\ccB4cx0U.s:2643   .text.falcon_inner_fpr_expm_p63:00000000 $t
C:\Users\user\AppData\Local\Temp\ccB4cx0U.s:2650   .text.falcon_inner_fpr_expm_p63:00000000 falcon_inner_fpr_expm_p63
C:\Users\user\AppData\Local\Temp\ccB4cx0U.s:2703   .text.falcon_inner_fpr_expm_p63:0000004c $d
C:\Users\user\AppData\Local\Temp\ccB4cx0U.s:7343   .rodata:00004198 C.0
C:\Users\user\AppData\Local\Temp\ccB4cx0U.s:2708   .text.falcon_inner_fpr_expm_p63:00000054 $t
C:\Users\user\AppData\Local\Temp\ccB4cx0U.s:3206   .text.falcon_inner_fpr_expm_p63:0000055c $d
C:\Users\user\AppData\Local\Temp\ccB4cx0U.s:3216   .rodata:00000140 falcon_inner_fpr_gm_tab
C:\Users\user\AppData\Local\Temp\ccB4cx0U.s:7317   .rodata:00004140 falcon_inner_fpr_p2_tab

NO UNDEFINED SYMBOLS
