   1              		.cpu cortex-m4
   2              		.eabi_attribute 20, 1
   3              		.eabi_attribute 21, 1
   4              		.eabi_attribute 23, 3
   5              		.eabi_attribute 24, 1
   6              		.eabi_attribute 25, 1
   7              		.eabi_attribute 26, 1
   8              		.eabi_attribute 30, 6
   9              		.eabi_attribute 34, 1
  10              		.eabi_attribute 18, 4
  11              		.file	"keygen.c"
  12              		.text
  13              	.Ltext0:
  14              		.cfi_sections	.debug_frame
  15              		.section	.text.fpr_ursh,"ax",%progbits
  16              		.align	1
  17              		.arch armv7e-m
  18              		.syntax unified
  19              		.thumb
  20              		.thumb_func
  21              		.fpu softvfp
  23              	fpr_ursh:
  24              	.LFB1:
  25              		.file 1 "fpr.h"
   1:fpr.h         **** /*
   2:fpr.h         ****  * Floating-point operations.
   3:fpr.h         ****  *
   4:fpr.h         ****  * ==========================(LICENSE BEGIN)============================
   5:fpr.h         ****  *
   6:fpr.h         ****  * Copyright (c) 2017-2019  Falcon Project
   7:fpr.h         ****  *
   8:fpr.h         ****  * Permission is hereby granted, free of charge, to any person obtaining
   9:fpr.h         ****  * a copy of this software and associated documentation files (the
  10:fpr.h         ****  * "Software"), to deal in the Software without restriction, including
  11:fpr.h         ****  * without limitation the rights to use, copy, modify, merge, publish,
  12:fpr.h         ****  * distribute, sublicense, and/or sell copies of the Software, and to
  13:fpr.h         ****  * permit persons to whom the Software is furnished to do so, subject to
  14:fpr.h         ****  * the following conditions:
  15:fpr.h         ****  *
  16:fpr.h         ****  * The above copyright notice and this permission notice shall be
  17:fpr.h         ****  * included in all copies or substantial portions of the Software.
  18:fpr.h         ****  *
  19:fpr.h         ****  * THE SOFTWARE IS PROVIDED "AS IS", WITHOUT WARRANTY OF ANY KIND,
  20:fpr.h         ****  * EXPRESS OR IMPLIED, INCLUDING BUT NOT LIMITED TO THE WARRANTIES OF
  21:fpr.h         ****  * MERCHANTABILITY, FITNESS FOR A PARTICULAR PURPOSE AND NONINFRINGEMENT.
  22:fpr.h         ****  * IN NO EVENT SHALL THE AUTHORS OR COPYRIGHT HOLDERS BE LIABLE FOR ANY
  23:fpr.h         ****  * CLAIM, DAMAGES OR OTHER LIABILITY, WHETHER IN AN ACTION OF CONTRACT,
  24:fpr.h         ****  * TORT OR OTHERWISE, ARISING FROM, OUT OF OR IN CONNECTION WITH THE
  25:fpr.h         ****  * SOFTWARE OR THE USE OR OTHER DEALINGS IN THE SOFTWARE.
  26:fpr.h         ****  *
  27:fpr.h         ****  * ===========================(LICENSE END)=============================
  28:fpr.h         ****  *
  29:fpr.h         ****  * @author   Thomas Pornin <thomas.pornin@nccgroup.com>
  30:fpr.h         ****  */
  31:fpr.h         **** 
  32:fpr.h         **** 
  33:fpr.h         **** /* ====================================================================== */
  34:fpr.h         **** /*
  35:fpr.h         ****  * Custom floating-point implementation with integer arithmetics. We
  36:fpr.h         ****  * use IEEE-754 "binary64" format, with some simplifications:
  37:fpr.h         ****  *
  38:fpr.h         ****  *   - Top bit is s = 1 for negative, 0 for positive.
  39:fpr.h         ****  *
  40:fpr.h         ****  *   - Exponent e uses the next 11 bits (bits 52 to 62, inclusive).
  41:fpr.h         ****  *
  42:fpr.h         ****  *   - Mantissa m uses the 52 low bits.
  43:fpr.h         ****  *
  44:fpr.h         ****  * Encoded value is, in general: (-1)^s * 2^(e-1023) * (1 + m*2^(-52))
  45:fpr.h         ****  * i.e. the mantissa really is a 53-bit number (less than 2.0, but not
  46:fpr.h         ****  * less than 1.0), but the top bit (equal to 1 by definition) is omitted
  47:fpr.h         ****  * in the encoding.
  48:fpr.h         ****  *
  49:fpr.h         ****  * In IEEE-754, there are some special values:
  50:fpr.h         ****  *
  51:fpr.h         ****  *   - If e = 2047, then the value is either an infinite (m = 0) or
  52:fpr.h         ****  *     a NaN (m != 0).
  53:fpr.h         ****  *
  54:fpr.h         ****  *   - If e = 0, then the value is either a zero (m = 0) or a subnormal,
  55:fpr.h         ****  *     aka "denormalized number" (m != 0).
  56:fpr.h         ****  *
  57:fpr.h         ****  * Of these, we only need the zeros. The caller is responsible for not
  58:fpr.h         ****  * providing operands that would lead to infinites, NaNs or subnormals.
  59:fpr.h         ****  * If inputs are such that values go out of range, then indeterminate
  60:fpr.h         ****  * values are returned (it would still be deterministic, but no specific
  61:fpr.h         ****  * value may be relied upon).
  62:fpr.h         ****  *
  63:fpr.h         ****  * At the C level, the three parts are stored in a 64-bit unsigned
  64:fpr.h         ****  * word.
  65:fpr.h         ****  *
  66:fpr.h         ****  * One may note that a property of the IEEE-754 format is that order
  67:fpr.h         ****  * is preserved for positive values: if two positive floating-point
  68:fpr.h         ****  * values x and y are such that x < y, then their respective encodings
  69:fpr.h         ****  * as _signed_ 64-bit integers i64(x) and i64(y) will be such that
  70:fpr.h         ****  * i64(x) < i64(y). For negative values, order is reversed: if x < 0,
  71:fpr.h         ****  * y < 0, and x < y, then ia64(x) > ia64(y).
  72:fpr.h         ****  *
  73:fpr.h         ****  * IMPORTANT ASSUMPTIONS:
  74:fpr.h         ****  * ======================
  75:fpr.h         ****  *
  76:fpr.h         ****  * For proper computations, and constant-time behaviour, we assume the
  77:fpr.h         ****  * following:
  78:fpr.h         ****  *
  79:fpr.h         ****  *   - 32x32->64 multiplication (unsigned) has an execution time that
  80:fpr.h         ****  *     is independent of its operands. This is true of most modern
  81:fpr.h         ****  *     x86 and ARM cores. Notable exceptions are the ARM Cortex M0, M0+
  82:fpr.h         ****  *     and M3 (in the M0 and M0+, this is done in software, so it depends
  83:fpr.h         ****  *     on that routine), and the PowerPC cores from the G3/G4 lines.
  84:fpr.h         ****  *     For more info, see: https://www.bearssl.org/ctmul.html
  85:fpr.h         ****  *
  86:fpr.h         ****  *   - Left-shifts and right-shifts of 32-bit values have an execution
  87:fpr.h         ****  *     time which does not depend on the shifted value nor on the
  88:fpr.h         ****  *     shift count. An historical exception is the Pentium IV, but most
  89:fpr.h         ****  *     modern CPU have barrel shifters. Some small microcontrollers
  90:fpr.h         ****  *     might have varying-time shifts (not the ARM Cortex M*, though).
  91:fpr.h         ****  *
  92:fpr.h         ****  *   - Right-shift of a signed negative value performs a sign extension.
  93:fpr.h         ****  *     As per the C standard, this operation returns an
  94:fpr.h         ****  *     implementation-defined result (this is NOT an "undefined
  95:fpr.h         ****  *     behaviour"). On most/all systems, an arithmetic shift is
  96:fpr.h         ****  *     performed, because this is what makes most sense.
  97:fpr.h         ****  */
  98:fpr.h         **** 
  99:fpr.h         **** /*
 100:fpr.h         ****  * Normally we should declare the 'fpr' type to be a struct or union
 101:fpr.h         ****  * around the internal 64-bit value; however, we want to use the
 102:fpr.h         ****  * direct 64-bit integer type to enable a lighter call convention on
 103:fpr.h         ****  * ARM platforms. This means that direct (invalid) use of operators
 104:fpr.h         ****  * such as '*' or '+' will not be caught by the compiler. We rely on
 105:fpr.h         ****  * the "normal" (non-emulated) code to detect such instances.
 106:fpr.h         ****  */
 107:fpr.h         **** typedef uint64_t fpr;
 108:fpr.h         **** 
 109:fpr.h         **** /*
 110:fpr.h         ****  * For computations, we split values into an integral mantissa in the
 111:fpr.h         ****  * 2^54..2^55 range, and an (adjusted) exponent. The lowest bit is
 112:fpr.h         ****  * "sticky" (it is set to 1 if any of the bits below it is 1); when
 113:fpr.h         ****  * re-encoding, the low two bits are dropped, but may induce an
 114:fpr.h         ****  * increment in the value for proper rounding.
 115:fpr.h         ****  */
 116:fpr.h         **** 
 117:fpr.h         **** /*
 118:fpr.h         ****  * Right-shift a 64-bit unsigned value by a possibly secret shift count.
 119:fpr.h         ****  * We assumed that the underlying architecture had a barrel shifter for
 120:fpr.h         ****  * 32-bit shifts, but for 64-bit shifts on a 32-bit system, this will
 121:fpr.h         ****  * typically invoke a software routine that is not necessarily
 122:fpr.h         ****  * constant-time; hence the function below.
 123:fpr.h         ****  *
 124:fpr.h         ****  * Shift count n MUST be in the 0..63 range.
 125:fpr.h         ****  */
 126:fpr.h         **** static inline uint64_t
 127:fpr.h         **** fpr_ursh(uint64_t x, int n)
 128:fpr.h         **** {
  26              		.loc 1 128 1
  27              		.cfi_startproc
  28              		@ args = 0, pretend = 0, frame = 40
  29              		@ frame_needed = 1, uses_anonymous_args = 0
  30              		@ link register save eliminated.
  31 0000 2DE9B00F 		push	{r4, r5, r7, r8, r9, r10, fp}
  32              	.LCFI0:
  33              		.cfi_def_cfa_offset 28
  34              		.cfi_offset 4, -28
  35              		.cfi_offset 5, -24
  36              		.cfi_offset 7, -20
  37              		.cfi_offset 8, -16
  38              		.cfi_offset 9, -12
  39              		.cfi_offset 10, -8
  40              		.cfi_offset 11, -4
  41 0004 8BB0     		sub	sp, sp, #44
  42              	.LCFI1:
  43              		.cfi_def_cfa_offset 72
  44 0006 00AF     		add	r7, sp, #0
  45              	.LCFI2:
  46              		.cfi_def_cfa_register 7
  47 0008 C7E90801 		strd	r0, [r7, #32]
  48 000c FA61     		str	r2, [r7, #28]
 129:fpr.h         **** 	x ^= (x ^ (x >> 32)) & -(uint64_t)(n >> 5);
  49              		.loc 1 129 15
  50 000e D7E90823 		ldrd	r2, [r7, #32]
  51 0012 4FF00000 		mov	r0, #0
  52 0016 4FF00001 		mov	r1, #0
  53 001a 1800     		movs	r0, r3
  54 001c 0021     		movs	r1, #0
  55              		.loc 1 129 10
  56 001e D7E90823 		ldrd	r2, [r7, #32]
  57 0022 80EA020C 		eor	ip, r0, r2
  58 0026 C7F810C0 		str	ip, [r7, #16]
  59 002a 4B40     		eors	r3, r3, r1
  60 002c 7B61     		str	r3, [r7, #20]
  61              		.loc 1 129 39
  62 002e FB69     		ldr	r3, [r7, #28]
  63 0030 5B11     		asrs	r3, r3, #5
  64              		.loc 1 129 26
  65 0032 DA17     		asrs	r2, r3, #31
  66 0034 BB60     		str	r3, [r7, #8]
  67 0036 FA60     		str	r2, [r7, #12]
  68              		.loc 1 129 25
  69 0038 0023     		movs	r3, #0
  70 003a D7E90212 		ldrd	r1, [r7, #8]
  71 003e 0846     		mov	r0, r1
  72 0040 D0F1000A 		rsbs	r10, r0, #0
  73 0044 63EB020B 		sbc	fp, r3, r2
  74              		.loc 1 129 23
  75 0048 D7E90423 		ldrd	r2, [r7, #16]
  76 004c 1146     		mov	r1, r2
  77 004e 01EA0A04 		and	r4, r1, r10
  78 0052 03EA0B05 		and	r5, r3, fp
  79              		.loc 1 129 4
  80 0056 D7E90823 		ldrd	r2, [r7, #32]
  81 005a 82EA0401 		eor	r1, r2, r4
  82 005e 3960     		str	r1, [r7]
  83 0060 6B40     		eors	r3, r3, r5
  84 0062 7B60     		str	r3, [r7, #4]
  85 0064 D7E90034 		ldrd	r3, [r7]
  86 0068 C7E90834 		strd	r3, [r7, #32]
 130:fpr.h         **** 	return x >> (n & 31);
  87              		.loc 1 130 17
  88 006c FB69     		ldr	r3, [r7, #28]
  89 006e 03F01F01 		and	r1, r3, #31
  90              		.loc 1 130 11
  91 0072 D7E90823 		ldrd	r2, [r7, #32]
  92 0076 C1F12004 		rsb	r4, r1, #32
  93 007a A1F12000 		sub	r0, r1, #32
  94 007e 22FA01F8 		lsr	r8, r2, r1
  95 0082 03FA04F4 		lsl	r4, r3, r4
  96 0086 48EA0408 		orr	r8, r8, r4
  97 008a 23FA00F0 		lsr	r0, r3, r0
  98 008e 48EA0008 		orr	r8, r8, r0
  99 0092 23FA01F9 		lsr	r9, r3, r1
 100 0096 4246     		mov	r2, r8
 101 0098 4B46     		mov	r3, r9
 131:fpr.h         **** }
 102              		.loc 1 131 1
 103 009a 1046     		mov	r0, r2
 104 009c 1946     		mov	r1, r3
 105 009e 2C37     		adds	r7, r7, #44
 106              	.LCFI3:
 107              		.cfi_def_cfa_offset 28
 108 00a0 BD46     		mov	sp, r7
 109              	.LCFI4:
 110              		.cfi_def_cfa_register 13
 111              		@ sp needed
 112 00a2 BDE8B00F 		pop	{r4, r5, r7, r8, r9, r10, fp}
 113              	.LCFI5:
 114              		.cfi_restore 11
 115              		.cfi_restore 10
 116              		.cfi_restore 9
 117              		.cfi_restore 8
 118              		.cfi_restore 7
 119              		.cfi_restore 5
 120              		.cfi_restore 4
 121              		.cfi_def_cfa_offset 0
 122 00a6 7047     		bx	lr
 123              		.cfi_endproc
 124              	.LFE1:
 126              		.section	.text.fpr_ulsh,"ax",%progbits
 127              		.align	1
 128              		.syntax unified
 129              		.thumb
 130              		.thumb_func
 131              		.fpu softvfp
 133              	fpr_ulsh:
 134              	.LFB3:
 132:fpr.h         **** 
 133:fpr.h         **** /*
 134:fpr.h         ****  * Right-shift a 64-bit signed value by a possibly secret shift count
 135:fpr.h         ****  * (see fpr_ursh() for the rationale).
 136:fpr.h         ****  *
 137:fpr.h         ****  * Shift count n MUST be in the 0..63 range.
 138:fpr.h         ****  */
 139:fpr.h         **** static inline int64_t
 140:fpr.h         **** fpr_irsh(int64_t x, int n)
 141:fpr.h         **** {
 142:fpr.h         **** 	x ^= (x ^ (x >> 32)) & -(int64_t)(n >> 5);
 143:fpr.h         **** 	return x >> (n & 31);
 144:fpr.h         **** }
 145:fpr.h         **** 
 146:fpr.h         **** /*
 147:fpr.h         ****  * Left-shift a 64-bit unsigned value by a possibly secret shift count
 148:fpr.h         ****  * (see fpr_ursh() for the rationale).
 149:fpr.h         ****  *
 150:fpr.h         ****  * Shift count n MUST be in the 0..63 range.
 151:fpr.h         ****  */
 152:fpr.h         **** static inline uint64_t
 153:fpr.h         **** fpr_ulsh(uint64_t x, int n)
 154:fpr.h         **** {
 135              		.loc 1 154 1
 136              		.cfi_startproc
 137              		@ args = 0, pretend = 0, frame = 40
 138              		@ frame_needed = 1, uses_anonymous_args = 0
 139              		@ link register save eliminated.
 140 0000 2DE9B00F 		push	{r4, r5, r7, r8, r9, r10, fp}
 141              	.LCFI6:
 142              		.cfi_def_cfa_offset 28
 143              		.cfi_offset 4, -28
 144              		.cfi_offset 5, -24
 145              		.cfi_offset 7, -20
 146              		.cfi_offset 8, -16
 147              		.cfi_offset 9, -12
 148              		.cfi_offset 10, -8
 149              		.cfi_offset 11, -4
 150 0004 8BB0     		sub	sp, sp, #44
 151              	.LCFI7:
 152              		.cfi_def_cfa_offset 72
 153 0006 00AF     		add	r7, sp, #0
 154              	.LCFI8:
 155              		.cfi_def_cfa_register 7
 156 0008 C7E90801 		strd	r0, [r7, #32]
 157 000c FA61     		str	r2, [r7, #28]
 155:fpr.h         **** 	x ^= (x ^ (x << 32)) & -(uint64_t)(n >> 5);
 158              		.loc 1 155 15
 159 000e D7E90823 		ldrd	r2, [r7, #32]
 160 0012 4FF00000 		mov	r0, #0
 161 0016 4FF00001 		mov	r1, #0
 162 001a 1100     		movs	r1, r2
 163 001c 0020     		movs	r0, #0
 164              		.loc 1 155 10
 165 001e D7E90823 		ldrd	r2, [r7, #32]
 166 0022 80EA020C 		eor	ip, r0, r2
 167 0026 C7F810C0 		str	ip, [r7, #16]
 168 002a 4B40     		eors	r3, r3, r1
 169 002c 7B61     		str	r3, [r7, #20]
 170              		.loc 1 155 39
 171 002e FB69     		ldr	r3, [r7, #28]
 172 0030 5B11     		asrs	r3, r3, #5
 173              		.loc 1 155 26
 174 0032 DA17     		asrs	r2, r3, #31
 175 0034 BB60     		str	r3, [r7, #8]
 176 0036 FA60     		str	r2, [r7, #12]
 177              		.loc 1 155 25
 178 0038 0023     		movs	r3, #0
 179 003a D7E90212 		ldrd	r1, [r7, #8]
 180 003e 0846     		mov	r0, r1
 181 0040 D0F1000A 		rsbs	r10, r0, #0
 182 0044 63EB020B 		sbc	fp, r3, r2
 183              		.loc 1 155 23
 184 0048 D7E90423 		ldrd	r2, [r7, #16]
 185 004c 1146     		mov	r1, r2
 186 004e 01EA0A04 		and	r4, r1, r10
 187 0052 03EA0B05 		and	r5, r3, fp
 188              		.loc 1 155 4
 189 0056 D7E90823 		ldrd	r2, [r7, #32]
 190 005a 82EA0401 		eor	r1, r2, r4
 191 005e 3960     		str	r1, [r7]
 192 0060 6B40     		eors	r3, r3, r5
 193 0062 7B60     		str	r3, [r7, #4]
 194 0064 D7E90034 		ldrd	r3, [r7]
 195 0068 C7E90834 		strd	r3, [r7, #32]
 156:fpr.h         **** 	return x << (n & 31);
 196              		.loc 1 156 17
 197 006c FB69     		ldr	r3, [r7, #28]
 198 006e 03F01F01 		and	r1, r3, #31
 199              		.loc 1 156 11
 200 0072 D7E90823 		ldrd	r2, [r7, #32]
 201 0076 A1F12004 		sub	r4, r1, #32
 202 007a C1F12000 		rsb	r0, r1, #32
 203 007e 03FA01F9 		lsl	r9, r3, r1
 204 0082 02FA04F4 		lsl	r4, r2, r4
 205 0086 49EA0409 		orr	r9, r9, r4
 206 008a 22FA00F0 		lsr	r0, r2, r0
 207 008e 49EA0009 		orr	r9, r9, r0
 208 0092 02FA01F8 		lsl	r8, r2, r1
 209 0096 4246     		mov	r2, r8
 210 0098 4B46     		mov	r3, r9
 157:fpr.h         **** }
 211              		.loc 1 157 1
 212 009a 1046     		mov	r0, r2
 213 009c 1946     		mov	r1, r3
 214 009e 2C37     		adds	r7, r7, #44
 215              	.LCFI9:
 216              		.cfi_def_cfa_offset 28
 217 00a0 BD46     		mov	sp, r7
 218              	.LCFI10:
 219              		.cfi_def_cfa_register 13
 220              		@ sp needed
 221 00a2 BDE8B00F 		pop	{r4, r5, r7, r8, r9, r10, fp}
 222              	.LCFI11:
 223              		.cfi_restore 11
 224              		.cfi_restore 10
 225              		.cfi_restore 9
 226              		.cfi_restore 8
 227              		.cfi_restore 7
 228              		.cfi_restore 5
 229              		.cfi_restore 4
 230              		.cfi_def_cfa_offset 0
 231 00a6 7047     		bx	lr
 232              		.cfi_endproc
 233              	.LFE3:
 235              		.section	.text.fpr_of,"ax",%progbits
 236              		.align	1
 237              		.syntax unified
 238              		.thumb
 239              		.thumb_func
 240              		.fpu softvfp
 242              	fpr_of:
 243              	.LFB5:
 158:fpr.h         **** 
 159:fpr.h         **** /*
 160:fpr.h         ****  * Expectations:
 161:fpr.h         ****  *   s = 0 or 1
 162:fpr.h         ****  *   exponent e is "arbitrary" and unbiased
 163:fpr.h         ****  *   2^54 <= m < 2^55
 164:fpr.h         ****  * Numerical value is (-1)^2 * m * 2^e
 165:fpr.h         ****  *
 166:fpr.h         ****  * Exponents which are too low lead to value zero. If the exponent is
 167:fpr.h         ****  * too large, the returned value is indeterminate.
 168:fpr.h         ****  *
 169:fpr.h         ****  * If m = 0, then a zero is returned (using the provided sign).
 170:fpr.h         ****  * If e < -1076, then a zero is returned (regardless of the value of m).
 171:fpr.h         ****  * If e >= -1076 and e != 0, m must be within the expected range
 172:fpr.h         ****  * (2^54 to 2^55-1).
 173:fpr.h         ****  */
 174:fpr.h         **** 
 175:fpr.h         **** static inline fpr
 176:fpr.h         **** FPR(int s, int e, uint64_t m)
 177:fpr.h         **** {
 178:fpr.h         **** 	fpr x;
 179:fpr.h         **** 	uint32_t t;
 180:fpr.h         **** 	unsigned f;
 181:fpr.h         **** 
 182:fpr.h         **** 	/*
 183:fpr.h         **** 	 * If e >= -1076, then the value is "normal"; otherwise, it
 184:fpr.h         **** 	 * should be a subnormal, which we clamp down to zero.
 185:fpr.h         **** 	 */
 186:fpr.h         **** 	e += 1076;
 187:fpr.h         **** 	t = (uint32_t)e >> 31;
 188:fpr.h         **** 	m &= (uint64_t)t - 1;
 189:fpr.h         **** 
 190:fpr.h         **** 	/*
 191:fpr.h         **** 	 * If m = 0 then we want a zero; make e = 0 too, but conserve
 192:fpr.h         **** 	 * the sign.
 193:fpr.h         **** 	 */
 194:fpr.h         **** 	t = (uint32_t)(m >> 54);
 195:fpr.h         **** 	e &= -(int)t;
 196:fpr.h         **** 
 197:fpr.h         **** 	/*
 198:fpr.h         **** 	 * The 52 mantissa bits come from m. Value m has its top bit set
 199:fpr.h         **** 	 * (unless it is a zero); we leave it "as is": the top bit will
 200:fpr.h         **** 	 * increment the exponent by 1, except when m = 0, which is
 201:fpr.h         **** 	 * exactly what we want.
 202:fpr.h         **** 	 */
 203:fpr.h         **** 	x = (((uint64_t)s << 63) | (m >> 2)) + ((uint64_t)(uint32_t)e << 52);
 204:fpr.h         **** 
 205:fpr.h         **** 	/*
 206:fpr.h         **** 	 * Rounding: if the low three bits of m are 011, 110 or 111,
 207:fpr.h         **** 	 * then the value should be incremented to get the next
 208:fpr.h         **** 	 * representable value. This implements the usual
 209:fpr.h         **** 	 * round-to-nearest rule (with preference to even values in case
 210:fpr.h         **** 	 * of a tie). Note that the increment may make a carry spill
 211:fpr.h         **** 	 * into the exponent field, which is again exactly what we want
 212:fpr.h         **** 	 * in that case.
 213:fpr.h         **** 	 */
 214:fpr.h         **** 	f = (unsigned)m & 7U;
 215:fpr.h         **** 	x += (0xC8U >> f) & 1;
 216:fpr.h         **** 	return x;
 217:fpr.h         **** }
 218:fpr.h         **** 
 219:fpr.h         **** #define fpr_scaled   Zf(fpr_scaled)
 220:fpr.h         **** fpr fpr_scaled(int64_t i, int sc);
 221:fpr.h         **** 
 222:fpr.h         **** static inline fpr
 223:fpr.h         **** fpr_of(int64_t i)
 224:fpr.h         **** {
 244              		.loc 1 224 1
 245              		.cfi_startproc
 246              		@ args = 0, pretend = 0, frame = 8
 247              		@ frame_needed = 1, uses_anonymous_args = 0
 248 0000 80B5     		push	{r7, lr}
 249              	.LCFI12:
 250              		.cfi_def_cfa_offset 8
 251              		.cfi_offset 7, -8
 252              		.cfi_offset 14, -4
 253 0002 82B0     		sub	sp, sp, #8
 254              	.LCFI13:
 255              		.cfi_def_cfa_offset 16
 256 0004 00AF     		add	r7, sp, #0
 257              	.LCFI14:
 258              		.cfi_def_cfa_register 7
 259 0006 C7E90001 		strd	r0, [r7]
 225:fpr.h         **** 	return fpr_scaled(i, 0);
 260              		.loc 1 225 9
 261 000a 0022     		movs	r2, #0
 262 000c D7E90001 		ldrd	r0, [r7]
 263 0010 FFF7FEFF 		bl	falcon_inner_fpr_scaled
 264 0014 0246     		mov	r2, r0
 265 0016 0B46     		mov	r3, r1
 226:fpr.h         **** }
 266              		.loc 1 226 1
 267 0018 1046     		mov	r0, r2
 268 001a 1946     		mov	r1, r3
 269 001c 0837     		adds	r7, r7, #8
 270              	.LCFI15:
 271              		.cfi_def_cfa_offset 8
 272 001e BD46     		mov	sp, r7
 273              	.LCFI16:
 274              		.cfi_def_cfa_register 13
 275              		@ sp needed
 276 0020 80BD     		pop	{r7, pc}
 277              		.cfi_endproc
 278              	.LFE5:
 280              		.section	.rodata
 281              		.align	3
 284              	fpr_q:
 285 0000 00000000 		.word	0
 286 0004 8000C840 		.word	1086849152
 287              		.align	3
 290              	fpr_inverse_of_q:
 291 0008 82A79790 		.word	-1869109374
 292 000c E354153F 		.word	1058362595
 293              		.align	3
 296              	fpr_inv_2sqrsigma0:
 297 0010 C2BB83C1 		.word	-1048331326
 298 0014 8B4FC33F 		.word	1069764491
 299              		.align	3
 302              	fpr_inv_sigma:
 303 0018 00000000 		.word	0
 304 001c 00000000 		.word	0
 305 0020 9A16247E 		.word	2116294298
 306 0024 EB487C3F 		.word	1065109739
 307 0028 D9AE8C54 		.word	1418505945
 308 002c 0AE57B3F 		.word	1065084170
 309 0030 2C769EE0 		.word	-526485972
 310 0034 2E857B3F 		.word	1065059630
 311 0038 36DACAD3 		.word	-741680586
 312 003c 5EFC7A3F 		.word	1065024606
 313 0040 EDB37609 		.word	158774253
 314 0044 3B7B7A3F 		.word	1064991547
 315 0048 989CCA82 		.word	-2100650856
 316 004c 12017A3F 		.word	1064960274
 317 0050 36275FCE 		.word	-832624842
 318 0054 498D793F 		.word	1064930633
 319 0058 EED96EC5 		.word	-982590994
 320 005c 571F793F 		.word	1064902487
 321 0060 CAC764DE 		.word	-563820598
 322 0064 C2B6783F 		.word	1064875714
 323 0068 E31A31F6 		.word	-164554013
 324 006c 1E53783F 		.word	1064850206
 325              		.align	3
 328              	fpr_sigma_min:
 329 0070 00000000 		.word	0
 330 0074 00000000 		.word	0
 331 0078 8B564406 		.word	105141899
 332 007c 38DDF13F 		.word	1072815416
 333 0080 2686ADDC 		.word	-592607706
 334 0084 2E1DF23F 		.word	1072831790
 335 0088 7A7CAAE1 		.word	-508920710
 336 008c 465CF23F 		.word	1072847942
 337 0090 25FB4A57 		.word	1464531749
 338 0094 5CB9F23F 		.word	1072871772
 339 0098 B622FEC7 		.word	-939646282
 340 009c AB14F33F 		.word	1072895147
 341 00a0 C3D77534 		.word	880138179
 342 00a4 4E6EF33F 		.word	1072918094
 343 00a8 24C2A166 		.word	1721877028
 344 00ac 5AC6F33F 		.word	1072940634
 345 00b0 A0B38C35 		.word	898413472
 346 00b4 E51CF43F 		.word	1072962789
 347 00b8 757A1FBF 		.word	-1088456075
 348 00bc 0172F43F 		.word	1072984577
 349 00c0 64C79099 		.word	-1718565020
 350 00c4 C1C5F43F 		.word	1073006017
 351              		.align	3
 354              	fpr_log2:
 355 00c8 EF39FAFE 		.word	-17155601
 356 00cc 422EE63F 		.word	1072049730
 357              		.align	3
 360              	fpr_inv_log2:
 361 00d0 FE822B65 		.word	1697350398
 362 00d4 4715F73F 		.word	1073157447
 363              		.align	3
 366              	fpr_bnorm_max:
 367 00d8 ACADD85F 		.word	1608035756
 368 00dc 9A6DD040 		.word	1087401370
 369              		.align	3
 372              	fpr_zero:
 373 00e0 00000000 		.space	8
 373      00000000 
 374              		.align	3
 377              	fpr_one:
 378 00e8 00000000 		.word	0
 379 00ec 0000F03F 		.word	1072693248
 380              		.align	3
 383              	fpr_two:
 384 00f0 00000000 		.word	0
 385 00f4 00000040 		.word	1073741824
 386              		.align	3
 389              	fpr_onehalf:
 390 00f8 00000000 		.word	0
 391 00fc 0000E03F 		.word	1071644672
 392              		.align	3
 395              	fpr_invsqrt2:
 396 0100 CD3B7F66 		.word	1719614413
 397 0104 9EA0E63F 		.word	1072079006
 398              		.align	3
 401              	fpr_invsqrt8:
 402 0108 CD3B7F66 		.word	1719614413
 403 010c 9EA0D63F 		.word	1071030430
 404              		.align	3
 407              	fpr_ptwo31:
 408 0110 00000000 		.word	0
 409 0114 0000E041 		.word	1105199104
 410              		.align	3
 413              	fpr_ptwo31m1:
 414 0118 0000C0FF 		.word	-4194304
 415 011c FFFFDF41 		.word	1105199103
 416              		.align	3
 419              	fpr_mtwo31m1:
 420 0120 0000C0FF 		.word	-4194304
 421 0124 FFFFDFC1 		.word	-1042284545
 422              		.align	3
 425              	fpr_ptwo63m1:
 426 0128 00000000 		.word	0
 427 012c 0000E043 		.word	1138753536
 428              		.align	3
 431              	fpr_mtwo63m1:
 432 0130 00000000 		.word	0
 433 0134 0000E0C3 		.word	-1008730112
 434              		.align	3
 437              	fpr_ptwo63:
 438 0138 00000000 		.word	0
 439 013c 0000E043 		.word	1138753536
 440              		.section	.text.fpr_rint,"ax",%progbits
 441              		.align	1
 442              		.syntax unified
 443              		.thumb
 444              		.thumb_func
 445              		.fpu softvfp
 447              	fpr_rint:
 448              	.LFB6:
 227:fpr.h         **** 
 228:fpr.h         **** static const fpr fpr_q = 4667981563525332992;
 229:fpr.h         **** static const fpr fpr_inverse_of_q = 4545632735260551042;
 230:fpr.h         **** static const fpr fpr_inv_2sqrsigma0 = 4594603506513722306;
 231:fpr.h         **** static const fpr fpr_inv_sigma[] = {
 232:fpr.h         **** 	0,  /* unused */
 233:fpr.h         **** 	4574611497772390042,
 234:fpr.h         **** 	4574501679055810265,
 235:fpr.h         **** 	4574396282908341804,
 236:fpr.h         **** 	4574245855758572086,
 237:fpr.h         **** 	4574103865040221165,
 238:fpr.h         **** 	4573969550563515544,
 239:fpr.h         **** 	4573842244705920822,
 240:fpr.h         **** 	4573721358406441454,
 241:fpr.h         **** 	4573606369665796042,
 242:fpr.h         **** 	4573496814039276259
 243:fpr.h         **** };
 244:fpr.h         **** static const fpr fpr_sigma_min[] = {
 245:fpr.h         **** 	0,  /* unused */
 246:fpr.h         **** 	4607707126469777035,
 247:fpr.h         **** 	4607777455861499430,
 248:fpr.h         **** 	4607846828256951418,
 249:fpr.h         **** 	4607949175006100261,
 250:fpr.h         **** 	4608049571757433526,
 251:fpr.h         **** 	4608148125896792003,
 252:fpr.h         **** 	4608244935301382692,
 253:fpr.h         **** 	4608340089478362016,
 254:fpr.h         **** 	4608433670533905013,
 255:fpr.h         **** 	4608525754002622308
 256:fpr.h         **** };
 257:fpr.h         **** static const fpr fpr_log2 = 4604418534313441775;
 258:fpr.h         **** static const fpr fpr_inv_log2 = 4609176140021203710;
 259:fpr.h         **** static const fpr fpr_bnorm_max = 4670353323383631276;
 260:fpr.h         **** static const fpr fpr_zero = 0;
 261:fpr.h         **** static const fpr fpr_one = 4607182418800017408;
 262:fpr.h         **** static const fpr fpr_two = 4611686018427387904;
 263:fpr.h         **** static const fpr fpr_onehalf = 4602678819172646912;
 264:fpr.h         **** static const fpr fpr_invsqrt2 = 4604544271217802189;
 265:fpr.h         **** static const fpr fpr_invsqrt8 = 4600040671590431693;
 266:fpr.h         **** static const fpr fpr_ptwo31 = 4746794007248502784;
 267:fpr.h         **** static const fpr fpr_ptwo31m1 = 4746794007244308480;
 268:fpr.h         **** static const fpr fpr_mtwo31m1 = 13970166044099084288U;
 269:fpr.h         **** static const fpr fpr_ptwo63m1 = 4890909195324358656;
 270:fpr.h         **** static const fpr fpr_mtwo63m1 = 14114281232179134464U;
 271:fpr.h         **** static const fpr fpr_ptwo63 = 4890909195324358656;
 272:fpr.h         **** 
 273:fpr.h         **** static inline int64_t
 274:fpr.h         **** fpr_rint(fpr x)
 275:fpr.h         **** {
 449              		.loc 1 275 1
 450              		.cfi_startproc
 451              		@ args = 0, pretend = 0, frame = 128
 452              		@ frame_needed = 1, uses_anonymous_args = 0
 453 0000 2DE9B04F 		push	{r4, r5, r7, r8, r9, r10, fp, lr}
 454              	.LCFI17:
 455              		.cfi_def_cfa_offset 32
 456              		.cfi_offset 4, -32
 457              		.cfi_offset 5, -28
 458              		.cfi_offset 7, -24
 459              		.cfi_offset 8, -20
 460              		.cfi_offset 9, -16
 461              		.cfi_offset 10, -12
 462              		.cfi_offset 11, -8
 463              		.cfi_offset 14, -4
 464 0004 A0B0     		sub	sp, sp, #128
 465              	.LCFI18:
 466              		.cfi_def_cfa_offset 160
 467 0006 00AF     		add	r7, sp, #0
 468              	.LCFI19:
 469              		.cfi_def_cfa_register 7
 470 0008 C7E91401 		strd	r0, [r7, #80]
 276:fpr.h         **** 	uint64_t m, d;
 277:fpr.h         **** 	int e;
 278:fpr.h         **** 	uint32_t s, dd, f;
 279:fpr.h         **** 
 280:fpr.h         **** 	/*
 281:fpr.h         **** 	 * We assume that the value fits in -(2^63-1)..+(2^63-1). We can
 282:fpr.h         **** 	 * thus extract the mantissa as a 63-bit integer, then right-shift
 283:fpr.h         **** 	 * it as needed.
 284:fpr.h         **** 	 */
 285:fpr.h         **** 	m = ((x << 10) | ((uint64_t)1 << 62)) & (((uint64_t)1 << 63) - 1);
 471              		.loc 1 285 10
 472 000c D7E91423 		ldrd	r2, [r7, #80]
 473 0010 4FF00000 		mov	r0, #0
 474 0014 4FF00001 		mov	r1, #0
 475 0018 9902     		lsls	r1, r3, #10
 476 001a 41EA9251 		orr	r1, r1, r2, lsr #22
 477 001e 9002     		lsls	r0, r2, #10
 478              		.loc 1 285 40
 479 0020 0446     		mov	r4, r0
 480 0022 21F04045 		bic	r5, r1, #-1073741824
 481              		.loc 1 285 4
 482 0026 A246     		mov	r10, r4
 483 0028 45F0804B 		orr	fp, r5, #1073741824
 484 002c C7E91EAB 		strd	r10, [r7, #120]
 286:fpr.h         **** 	e = 1085 - ((int)(x >> 52) & 0x7FF);
 485              		.loc 1 286 22
 486 0030 D7E91423 		ldrd	r2, [r7, #80]
 487 0034 4FF00000 		mov	r0, #0
 488 0038 4FF00001 		mov	r1, #0
 489 003c 180D     		lsrs	r0, r3, #20
 490 003e 0021     		movs	r1, #0
 491              		.loc 1 286 14
 492 0040 0346     		mov	r3, r0
 493              		.loc 1 286 29
 494 0042 C3F30A03 		ubfx	r3, r3, #0, #11
 495              		.loc 1 286 4
 496 0046 C3F58763 		rsb	r3, r3, #1080
 497 004a 0533     		adds	r3, r3, #5
 498 004c 7B67     		str	r3, [r7, #116]
 287:fpr.h         **** 
 288:fpr.h         **** 	/*
 289:fpr.h         **** 	 * If a shift of more than 63 bits is needed, then simply set m
 290:fpr.h         **** 	 * to zero. This also covers the case of an input operand equal
 291:fpr.h         **** 	 * to zero.
 292:fpr.h         **** 	 */
 293:fpr.h         **** 	m &= -(uint64_t)((uint32_t)(e - 64) >> 31);
 499              		.loc 1 293 32
 500 004e 7B6F     		ldr	r3, [r7, #116]
 501 0050 403B     		subs	r3, r3, #64
 502              		.loc 1 293 38
 503 0052 DB0F     		lsrs	r3, r3, #31
 504              		.loc 1 293 8
 505 0054 0022     		movs	r2, #0
 506 0056 BB64     		str	r3, [r7, #72]
 507 0058 FA64     		str	r2, [r7, #76]
 508              		.loc 1 293 7
 509 005a 0023     		movs	r3, #0
 510 005c D7E91212 		ldrd	r1, [r7, #72]
 511 0060 0846     		mov	r0, r1
 512 0062 D0F10008 		rsbs	r8, r0, #0
 513 0066 63EB0209 		sbc	r9, r3, r2
 514              		.loc 1 293 4
 515 006a D7E91E23 		ldrd	r2, [r7, #120]
 516 006e 02EA0801 		and	r1, r2, r8
 517 0072 B960     		str	r1, [r7, #8]
 518 0074 03EA0903 		and	r3, r3, r9
 519 0078 FB60     		str	r3, [r7, #12]
 520 007a D7E90234 		ldrd	r3, [r7, #8]
 521 007e C7E91E34 		strd	r3, [r7, #120]
 294:fpr.h         **** 	e &= 63;
 522              		.loc 1 294 4
 523 0082 7B6F     		ldr	r3, [r7, #116]
 524 0084 03F03F03 		and	r3, r3, #63
 525 0088 7B67     		str	r3, [r7, #116]
 295:fpr.h         **** 
 296:fpr.h         **** 	/*
 297:fpr.h         **** 	 * Right-shift m as needed. Shift count is e. Proper rounding
 298:fpr.h         **** 	 * mandates that:
 299:fpr.h         **** 	 *   - If the highest dropped bit is zero, then round low.
 300:fpr.h         **** 	 *   - If the highest dropped bit is one, and at least one of the
 301:fpr.h         **** 	 *     other dropped bits is one, then round up.
 302:fpr.h         **** 	 *   - If the highest dropped bit is one, and all other dropped
 303:fpr.h         **** 	 *     bits are zero, then round up if the lowest kept bit is 1,
 304:fpr.h         **** 	 *     or low otherwise (i.e. ties are broken by "rounding to even").
 305:fpr.h         **** 	 *
 306:fpr.h         **** 	 * We thus first extract a word consisting of all the dropped bit
 307:fpr.h         **** 	 * AND the lowest kept bit; then we shrink it down to three bits,
 308:fpr.h         **** 	 * the lowest being "sticky".
 309:fpr.h         **** 	 */
 310:fpr.h         **** 	d = fpr_ulsh(m, 63 - e);
 526              		.loc 1 310 6
 527 008a 7B6F     		ldr	r3, [r7, #116]
 528 008c C3F13F03 		rsb	r3, r3, #63
 529 0090 1A46     		mov	r2, r3
 530 0092 D7E91E01 		ldrd	r0, [r7, #120]
 531 0096 FFF7FEFF 		bl	fpr_ulsh
 532 009a C7E91A01 		strd	r0, [r7, #104]
 311:fpr.h         **** 	dd = (uint32_t)d | ((uint32_t)(d >> 32) & 0x1FFFFFFF);
 533              		.loc 1 311 7
 534 009e BC6E     		ldr	r4, [r7, #104]
 535              		.loc 1 311 35
 536 00a0 D7E91A23 		ldrd	r2, [r7, #104]
 537 00a4 4FF00000 		mov	r0, #0
 538 00a8 4FF00001 		mov	r1, #0
 539 00ac 1800     		movs	r0, r3
 540 00ae 0021     		movs	r1, #0
 541              		.loc 1 311 22
 542 00b0 0346     		mov	r3, r0
 543              		.loc 1 311 42
 544 00b2 23F06043 		bic	r3, r3, #-536870912
 545              		.loc 1 311 5
 546 00b6 2343     		orrs	r3, r3, r4
 547 00b8 7B66     		str	r3, [r7, #100]
 312:fpr.h         **** 	f = (uint32_t)(d >> 61) | ((dd | -dd) >> 31);
 548              		.loc 1 312 19
 549 00ba D7E91A23 		ldrd	r2, [r7, #104]
 550 00be 4FF00000 		mov	r0, #0
 551 00c2 4FF00001 		mov	r1, #0
 552 00c6 580F     		lsrs	r0, r3, #29
 553 00c8 0021     		movs	r1, #0
 554              		.loc 1 312 6
 555 00ca 0146     		mov	r1, r0
 556              		.loc 1 312 35
 557 00cc 7B6E     		ldr	r3, [r7, #100]
 558 00ce 5A42     		rsbs	r2, r3, #0
 559              		.loc 1 312 33
 560 00d0 7B6E     		ldr	r3, [r7, #100]
 561 00d2 1343     		orrs	r3, r3, r2
 562              		.loc 1 312 40
 563 00d4 DB0F     		lsrs	r3, r3, #31
 564              		.loc 1 312 4
 565 00d6 0B43     		orrs	r3, r3, r1
 566 00d8 3B66     		str	r3, [r7, #96]
 313:fpr.h         **** 	m = fpr_ursh(m, e) + (uint64_t)((0xC8U >> f) & 1U);
 567              		.loc 1 313 6
 568 00da 7A6F     		ldr	r2, [r7, #116]
 569 00dc D7E91E01 		ldrd	r0, [r7, #120]
 570 00e0 FFF7FEFF 		bl	fpr_ursh
 571              		.loc 1 313 41
 572 00e4 C822     		movs	r2, #200
 573 00e6 3B6E     		ldr	r3, [r7, #96]
 574 00e8 22FA03F3 		lsr	r3, r2, r3
 575              		.loc 1 313 47
 576 00ec 0022     		movs	r2, #0
 577 00ee 3B64     		str	r3, [r7, #64]
 578 00f0 7A64     		str	r2, [r7, #68]
 579              		.loc 1 313 23
 580 00f2 3B6C     		ldr	r3, [r7, #64]
 581 00f4 03F00103 		and	r3, r3, #1
 582 00f8 BB63     		str	r3, [r7, #56]
 583 00fa 0023     		movs	r3, #0
 584 00fc FB63     		str	r3, [r7, #60]
 585              		.loc 1 313 4
 586 00fe D7E90E45 		ldrd	r4, [r7, #56]
 587 0102 2346     		mov	r3, r4
 588 0104 C318     		adds	r3, r0, r3
 589 0106 3B60     		str	r3, [r7]
 590 0108 2B46     		mov	r3, r5
 591 010a 41EB0303 		adc	r3, r1, r3
 592 010e 7B60     		str	r3, [r7, #4]
 593 0110 D7E90034 		ldrd	r3, [r7]
 594 0114 C7E91E34 		strd	r3, [r7, #120]
 314:fpr.h         **** 
 315:fpr.h         **** 	/*
 316:fpr.h         **** 	 * Apply the sign bit.
 317:fpr.h         **** 	 */
 318:fpr.h         **** 	s = (uint32_t)(x >> 63);
 595              		.loc 1 318 19
 596 0118 D7E91401 		ldrd	r0, [r7, #80]
 597 011c 4FF00002 		mov	r2, #0
 598 0120 4FF00003 		mov	r3, #0
 599 0124 CA0F     		lsrs	r2, r1, #31
 600 0126 0023     		movs	r3, #0
 601              		.loc 1 318 4
 602 0128 1346     		mov	r3, r2
 603 012a FB65     		str	r3, [r7, #92]
 319:fpr.h         **** 	return ((int64_t)m ^ -(int64_t)s) + (int64_t)s;
 604              		.loc 1 319 24
 605 012c FB6D     		ldr	r3, [r7, #92]
 606 012e 0022     		movs	r2, #0
 607 0130 3B63     		str	r3, [r7, #48]
 608 0132 7A63     		str	r2, [r7, #52]
 609              		.loc 1 319 23
 610 0134 0023     		movs	r3, #0
 611 0136 D7E90C01 		ldrd	r0, [r7, #48]
 612 013a 0246     		mov	r2, r0
 613 013c 5242     		negs	r2, r2
 614 013e BA62     		str	r2, [r7, #40]
 615 0140 0A46     		mov	r2, r1
 616 0142 63EB0203 		sbc	r3, r3, r2
 617 0146 FB62     		str	r3, [r7, #44]
 618              		.loc 1 319 10
 619 0148 D7E91E23 		ldrd	r2, [r7, #120]
 620              		.loc 1 319 21
 621 014c D7E90A01 		ldrd	r0, [r7, #40]
 622 0150 0446     		mov	r4, r0
 623 0152 5440     		eors	r4, r4, r2
 624 0154 3C62     		str	r4, [r7, #32]
 625 0156 5940     		eors	r1, r1, r3
 626 0158 7962     		str	r1, [r7, #36]
 627              		.loc 1 319 38
 628 015a FB6D     		ldr	r3, [r7, #92]
 629 015c 0022     		movs	r2, #0
 630 015e BB61     		str	r3, [r7, #24]
 631 0160 FA61     		str	r2, [r7, #28]
 632              		.loc 1 319 36
 633 0162 D7E90845 		ldrd	r4, [r7, #32]
 634 0166 2346     		mov	r3, r4
 635 0168 D7E90601 		ldrd	r0, [r7, #24]
 636 016c 0246     		mov	r2, r0
 637 016e 9B18     		adds	r3, r3, r2
 638 0170 3B61     		str	r3, [r7, #16]
 639 0172 0B46     		mov	r3, r1
 640 0174 2A46     		mov	r2, r5
 641 0176 42EB0303 		adc	r3, r2, r3
 642 017a 7B61     		str	r3, [r7, #20]
 643 017c D7E90423 		ldrd	r2, [r7, #16]
 320:fpr.h         **** }
 644              		.loc 1 320 1
 645 0180 1046     		mov	r0, r2
 646 0182 1946     		mov	r1, r3
 647 0184 8037     		adds	r7, r7, #128
 648              	.LCFI20:
 649              		.cfi_def_cfa_offset 32
 650 0186 BD46     		mov	sp, r7
 651              	.LCFI21:
 652              		.cfi_def_cfa_register 13
 653              		@ sp needed
 654 0188 BDE8B08F 		pop	{r4, r5, r7, r8, r9, r10, fp, pc}
 655              		.cfi_endproc
 656              	.LFE6:
 658              		.section	.text.fpr_sqr,"ax",%progbits
 659              		.align	1
 660              		.syntax unified
 661              		.thumb
 662              		.thumb_func
 663              		.fpu softvfp
 665              	fpr_sqr:
 666              	.LFB13:
 321:fpr.h         **** 
 322:fpr.h         **** static inline int64_t
 323:fpr.h         **** fpr_floor(fpr x)
 324:fpr.h         **** {
 325:fpr.h         **** 	uint64_t t;
 326:fpr.h         **** 	int64_t xi;
 327:fpr.h         **** 	int e, cc;
 328:fpr.h         **** 
 329:fpr.h         **** 	/*
 330:fpr.h         **** 	 * We extract the integer as a _signed_ 64-bit integer with
 331:fpr.h         **** 	 * a scaling factor. Since we assume that the value fits
 332:fpr.h         **** 	 * in the -(2^63-1)..+(2^63-1) range, we can left-shift the
 333:fpr.h         **** 	 * absolute value to make it in the 2^62..2^63-1 range: we
 334:fpr.h         **** 	 * will only need a right-shift afterwards.
 335:fpr.h         **** 	 */
 336:fpr.h         **** 	e = (int)(x >> 52) & 0x7FF;
 337:fpr.h         **** 	t = x >> 63;
 338:fpr.h         **** 	xi = (int64_t)(((x << 10) | ((uint64_t)1 << 62))
 339:fpr.h         **** 		& (((uint64_t)1 << 63) - 1));
 340:fpr.h         **** 	xi = (xi ^ -(int64_t)t) + (int64_t)t;
 341:fpr.h         **** 	cc = 1085 - e;
 342:fpr.h         **** 
 343:fpr.h         **** 	/*
 344:fpr.h         **** 	 * We perform an arithmetic right-shift on the value. This
 345:fpr.h         **** 	 * applies floor() semantics on both positive and negative values
 346:fpr.h         **** 	 * (rounding toward minus infinity).
 347:fpr.h         **** 	 */
 348:fpr.h         **** 	xi = fpr_irsh(xi, cc & 63);
 349:fpr.h         **** 
 350:fpr.h         **** 	/*
 351:fpr.h         **** 	 * If the true shift count was 64 or more, then we should instead
 352:fpr.h         **** 	 * replace xi with 0 (if nonnegative) or -1 (if negative). Edge
 353:fpr.h         **** 	 * case: -0 will be floored to -1, not 0 (whether this is correct
 354:fpr.h         **** 	 * is debatable; in any case, the other functions normalize zero
 355:fpr.h         **** 	 * to +0).
 356:fpr.h         **** 	 *
 357:fpr.h         **** 	 * For an input of zero, the non-shifted xi was incorrect (we used
 358:fpr.h         **** 	 * a top implicit bit of value 1, not 0), but this does not matter
 359:fpr.h         **** 	 * since this operation will clamp it down.
 360:fpr.h         **** 	 */
 361:fpr.h         **** 	xi ^= (xi ^ -(int64_t)t) & -(int64_t)((uint32_t)(63 - cc) >> 31);
 362:fpr.h         **** 	return xi;
 363:fpr.h         **** }
 364:fpr.h         **** 
 365:fpr.h         **** static inline int64_t
 366:fpr.h         **** fpr_trunc(fpr x)
 367:fpr.h         **** {
 368:fpr.h         **** 	uint64_t t, xu;
 369:fpr.h         **** 	int e, cc;
 370:fpr.h         **** 
 371:fpr.h         **** 	/*
 372:fpr.h         **** 	 * Extract the absolute value. Since we assume that the value
 373:fpr.h         **** 	 * fits in the -(2^63-1)..+(2^63-1) range, we can left-shift
 374:fpr.h         **** 	 * the absolute value into the 2^62..2^63-1 range, and then
 375:fpr.h         **** 	 * do a right shift afterwards.
 376:fpr.h         **** 	 */
 377:fpr.h         **** 	e = (int)(x >> 52) & 0x7FF;
 378:fpr.h         **** 	xu = ((x << 10) | ((uint64_t)1 << 62)) & (((uint64_t)1 << 63) - 1);
 379:fpr.h         **** 	cc = 1085 - e;
 380:fpr.h         **** 	xu = fpr_ursh(xu, cc & 63);
 381:fpr.h         **** 
 382:fpr.h         **** 	/*
 383:fpr.h         **** 	 * If the exponent is too low (cc > 63), then the shift was wrong
 384:fpr.h         **** 	 * and we must clamp the value to 0. This also covers the case
 385:fpr.h         **** 	 * of an input equal to zero.
 386:fpr.h         **** 	 */
 387:fpr.h         **** 	xu &= -(uint64_t)((uint32_t)(cc - 64) >> 31);
 388:fpr.h         **** 
 389:fpr.h         **** 	/*
 390:fpr.h         **** 	 * Apply back the sign, if the source value is negative.
 391:fpr.h         **** 	 */
 392:fpr.h         **** 	t = x >> 63;
 393:fpr.h         **** 	xu = (xu ^ -t) + t;
 394:fpr.h         **** 	return *(int64_t *)&xu;
 395:fpr.h         **** }
 396:fpr.h         **** 
 397:fpr.h         **** #define fpr_add   Zf(fpr_add)
 398:fpr.h         **** fpr fpr_add(fpr x, fpr y);
 399:fpr.h         **** 
 400:fpr.h         **** static inline fpr
 401:fpr.h         **** fpr_sub(fpr x, fpr y)
 402:fpr.h         **** {
 403:fpr.h         **** 	y ^= (uint64_t)1 << 63;
 404:fpr.h         **** 	return fpr_add(x, y);
 405:fpr.h         **** }
 406:fpr.h         **** 
 407:fpr.h         **** static inline fpr
 408:fpr.h         **** fpr_neg(fpr x)
 409:fpr.h         **** {
 410:fpr.h         **** 	x ^= (uint64_t)1 << 63;
 411:fpr.h         **** 	return x;
 412:fpr.h         **** }
 413:fpr.h         **** 
 414:fpr.h         **** static inline fpr
 415:fpr.h         **** fpr_half(fpr x)
 416:fpr.h         **** {
 417:fpr.h         **** 	/*
 418:fpr.h         **** 	 * To divide a value by 2, we just have to subtract 1 from its
 419:fpr.h         **** 	 * exponent, but we have to take care of zero.
 420:fpr.h         **** 	 */
 421:fpr.h         **** 	uint32_t t;
 422:fpr.h         **** 
 423:fpr.h         **** 	x -= (uint64_t)1 << 52;
 424:fpr.h         **** 	t = (((uint32_t)(x >> 52) & 0x7FF) + 1) >> 11;
 425:fpr.h         **** 	x &= (uint64_t)t - 1;
 426:fpr.h         **** 	return x;
 427:fpr.h         **** }
 428:fpr.h         **** 
 429:fpr.h         **** static inline fpr
 430:fpr.h         **** fpr_double(fpr x)
 431:fpr.h         **** {
 432:fpr.h         **** 	/*
 433:fpr.h         **** 	 * To double a value, we just increment by one the exponent. We
 434:fpr.h         **** 	 * don't care about infinites or NaNs; however, 0 is a
 435:fpr.h         **** 	 * special case.
 436:fpr.h         **** 	 */
 437:fpr.h         **** 	x += (uint64_t)((((unsigned)(x >> 52) & 0x7FFU) + 0x7FFU) >> 11) << 52;
 438:fpr.h         **** 	return x;
 439:fpr.h         **** }
 440:fpr.h         **** 
 441:fpr.h         **** #define fpr_mul   Zf(fpr_mul)
 442:fpr.h         **** fpr fpr_mul(fpr x, fpr y);
 443:fpr.h         **** 
 444:fpr.h         **** static inline fpr
 445:fpr.h         **** fpr_sqr(fpr x)
 446:fpr.h         **** {
 667              		.loc 1 446 1
 668              		.cfi_startproc
 669              		@ args = 0, pretend = 0, frame = 8
 670              		@ frame_needed = 1, uses_anonymous_args = 0
 671 0000 80B5     		push	{r7, lr}
 672              	.LCFI22:
 673              		.cfi_def_cfa_offset 8
 674              		.cfi_offset 7, -8
 675              		.cfi_offset 14, -4
 676 0002 82B0     		sub	sp, sp, #8
 677              	.LCFI23:
 678              		.cfi_def_cfa_offset 16
 679 0004 00AF     		add	r7, sp, #0
 680              	.LCFI24:
 681              		.cfi_def_cfa_register 7
 682 0006 C7E90001 		strd	r0, [r7]
 447:fpr.h         **** 	return fpr_mul(x, x);
 683              		.loc 1 447 9
 684 000a D7E90023 		ldrd	r2, [r7]
 685 000e D7E90001 		ldrd	r0, [r7]
 686 0012 FFF7FEFF 		bl	falcon_inner_fpr_mul
 687 0016 0246     		mov	r2, r0
 688 0018 0B46     		mov	r3, r1
 448:fpr.h         **** }
 689              		.loc 1 448 1
 690 001a 1046     		mov	r0, r2
 691 001c 1946     		mov	r1, r3
 692 001e 0837     		adds	r7, r7, #8
 693              	.LCFI25:
 694              		.cfi_def_cfa_offset 8
 695 0020 BD46     		mov	sp, r7
 696              	.LCFI26:
 697              		.cfi_def_cfa_register 13
 698              		@ sp needed
 699 0022 80BD     		pop	{r7, pc}
 700              		.cfi_endproc
 701              	.LFE13:
 703              		.section	.text.fpr_lt,"ax",%progbits
 704              		.align	1
 705              		.syntax unified
 706              		.thumb
 707              		.thumb_func
 708              		.fpu softvfp
 710              	fpr_lt:
 711              	.LFB15:
 449:fpr.h         **** 
 450:fpr.h         **** #define fpr_div   Zf(fpr_div)
 451:fpr.h         **** fpr fpr_div(fpr x, fpr y);
 452:fpr.h         **** 
 453:fpr.h         **** static inline fpr
 454:fpr.h         **** fpr_inv(fpr x)
 455:fpr.h         **** {
 456:fpr.h         **** 	return fpr_div(4607182418800017408u, x);
 457:fpr.h         **** }
 458:fpr.h         **** 
 459:fpr.h         **** #define fpr_sqrt   Zf(fpr_sqrt)
 460:fpr.h         **** fpr fpr_sqrt(fpr x);
 461:fpr.h         **** 
 462:fpr.h         **** static inline int
 463:fpr.h         **** fpr_lt(fpr x, fpr y)
 464:fpr.h         **** {
 712              		.loc 1 464 1
 713              		.cfi_startproc
 714              		@ args = 0, pretend = 0, frame = 24
 715              		@ frame_needed = 1, uses_anonymous_args = 0
 716              		@ link register save eliminated.
 717 0000 F0B4     		push	{r4, r5, r6, r7}
 718              	.LCFI27:
 719              		.cfi_def_cfa_offset 16
 720              		.cfi_offset 4, -16
 721              		.cfi_offset 5, -12
 722              		.cfi_offset 6, -8
 723              		.cfi_offset 7, -4
 724 0002 86B0     		sub	sp, sp, #24
 725              	.LCFI28:
 726              		.cfi_def_cfa_offset 40
 727 0004 00AF     		add	r7, sp, #0
 728              	.LCFI29:
 729              		.cfi_def_cfa_register 7
 730 0006 C7E90201 		strd	r0, [r7, #8]
 731 000a C7E90023 		strd	r2, [r7]
 465:fpr.h         **** 	/*
 466:fpr.h         **** 	 * If x >= 0 or y >= 0, a signed comparison yields the proper
 467:fpr.h         **** 	 * result:
 468:fpr.h         **** 	 *   - For positive values, the order is preserved.
 469:fpr.h         **** 	 *   - The sign bit is at the same place as in integers, so
 470:fpr.h         **** 	 *     sign is preserved.
 471:fpr.h         **** 	 *
 472:fpr.h         **** 	 * If both x and y are negative, then the order is reversed.
 473:fpr.h         **** 	 * We cannot simply invert the comparison result in that case
 474:fpr.h         **** 	 * because it would not handle the edge case x = y properly.
 475:fpr.h         **** 	 */
 476:fpr.h         **** 	int cc0, cc1;
 477:fpr.h         **** 
 478:fpr.h         **** 	cc0 = *(int64_t *)&x < *(int64_t *)&y;
 732              		.loc 1 478 20
 733 000e 07F10803 		add	r3, r7, #8
 734              		.loc 1 478 8
 735 0012 D3E90001 		ldrd	r0, [r3]
 736              		.loc 1 478 37
 737 0016 3B46     		mov	r3, r7
 738              		.loc 1 478 25
 739 0018 D3E90023 		ldrd	r2, [r3]
 740              		.loc 1 478 23
 741 001c 9042     		cmp	r0, r2
 742 001e 71EB0303 		sbcs	r3, r1, r3
 743 0022 B4BF     		ite	lt
 744 0024 0123     		movlt	r3, #1
 745 0026 0023     		movge	r3, #0
 746 0028 DBB2     		uxtb	r3, r3
 747              		.loc 1 478 6
 748 002a 7B61     		str	r3, [r7, #20]
 479:fpr.h         **** 	cc1 = *(int64_t *)&x > *(int64_t *)&y;
 749              		.loc 1 479 20
 750 002c 07F10803 		add	r3, r7, #8
 751              		.loc 1 479 8
 752 0030 D3E90023 		ldrd	r2, [r3]
 753              		.loc 1 479 37
 754 0034 3946     		mov	r1, r7
 755              		.loc 1 479 25
 756 0036 D1E90001 		ldrd	r0, [r1]
 757              		.loc 1 479 23
 758 003a 9042     		cmp	r0, r2
 759 003c 71EB0303 		sbcs	r3, r1, r3
 760 0040 B4BF     		ite	lt
 761 0042 0123     		movlt	r3, #1
 762 0044 0023     		movge	r3, #0
 763 0046 DBB2     		uxtb	r3, r3
 764              		.loc 1 479 6
 765 0048 3B61     		str	r3, [r7, #16]
 480:fpr.h         **** 	return cc0 ^ ((cc0 ^ cc1) & (int)((x & y) >> 63));
 766              		.loc 1 480 21
 767 004a 7A69     		ldr	r2, [r7, #20]
 768 004c 3B69     		ldr	r3, [r7, #16]
 769 004e 82EA0306 		eor	r6, r2, r3
 770              		.loc 1 480 39
 771 0052 D7E90201 		ldrd	r0, [r7, #8]
 772 0056 D7E90023 		ldrd	r2, [r7]
 773 005a 00EA0204 		and	r4, r0, r2
 774 005e 01EA0305 		and	r5, r1, r3
 775              		.loc 1 480 44
 776 0062 4FF00002 		mov	r2, #0
 777 0066 4FF00003 		mov	r3, #0
 778 006a EA0F     		lsrs	r2, r5, #31
 779 006c 0023     		movs	r3, #0
 780              		.loc 1 480 30
 781 006e 1346     		mov	r3, r2
 782              		.loc 1 480 28
 783 0070 06EA0302 		and	r2, r6, r3
 784              		.loc 1 480 13
 785 0074 7B69     		ldr	r3, [r7, #20]
 786 0076 5340     		eors	r3, r3, r2
 481:fpr.h         **** }
 787              		.loc 1 481 1
 788 0078 1846     		mov	r0, r3
 789 007a 1837     		adds	r7, r7, #24
 790              	.LCFI30:
 791              		.cfi_def_cfa_offset 16
 792 007c BD46     		mov	sp, r7
 793              	.LCFI31:
 794              		.cfi_def_cfa_register 13
 795              		@ sp needed
 796 007e F0BC     		pop	{r4, r5, r6, r7}
 797              	.LCFI32:
 798              		.cfi_restore 7
 799              		.cfi_restore 6
 800              		.cfi_restore 5
 801              		.cfi_restore 4
 802              		.cfi_def_cfa_offset 0
 803 0080 7047     		bx	lr
 804              		.cfi_endproc
 805              	.LFE15:
 807              		.section	.rodata
 808              		.align	2
 811              	PRIMES:
 812 0140 01D8FF7F 		.word	2147473409
 813 0144 45ADD616 		.word	383167813
 814 0148 FF270000 		.word	10239
 815 014c 0190FE7F 		.word	2147389441
 816 0150 89F29F0C 		.word	211808905
 817 0154 E10C191C 		.word	471403745
 818 0158 0188FE7F 		.word	2147387393
 819 015c 5AD53E02 		.word	37672282
 820 0160 190B3C4F 		.word	1329335065
 821 0164 0160FE7F 		.word	2147377153
 822 0168 3E2AD775 		.word	1977035326
 823 016c BEEAB539 		.word	968223422
 824 0170 0118FE7F 		.word	2147358721
 825 0174 3AA09B3F 		.word	1067163706
 826 0178 EF2DE507 		.word	132460015
 827 017c 0100FE7F 		.word	2147352577
 828 0180 FADDBA5F 		.word	1606082042
 829 0184 B157AF23 		.word	598693809
 830 0188 01E8FD7F 		.word	2147346433
 831 018c F9163B79 		.word	2033915641
 832 0190 A034F53E 		.word	1056257184
 833 0194 01C8FD7F 		.word	2147338241
 834 0198 81899262 		.word	1653770625
 835 019c 36531C19 		.word	421286710
 836 01a0 0158FD7F 		.word	2147309569
 837 01a4 335C9F25 		.word	631200819
 838 01a8 32953B42 		.word	1111201074
 839 01ac 0128FD7F 		.word	2147297281
 840 01b0 F7F97E79 		.word	2038364663
 841 01b4 9DB61B3E 		.word	1042003613
 842 01b8 0120FD7F 		.word	2147295233
 843 01bc E3FDF974 		.word	1962540515
 844 01c0 A1A12801 		.word	19440033
 845 01c4 0148FC7F 		.word	2147239937
 846 01c8 E7B72C7D 		.word	2100082663
 847 01cc 78E10E15 		.word	353296760
 848 01d0 0138FC7F 		.word	2147235841
 849 01d4 6E95AE76 		.word	1991153006
 850 01d8 CBB98F65 		.word	1703918027
 851 01dc 01F0FB7F 		.word	2147217409
 852 01e0 7AB7C71E 		.word	516405114
 853 01e4 BD96094B 		.word	1258919613
 854 01e8 01C0FB7F 		.word	2147205121
 855 01ec 94276618 		.word	409347988
 856 01f0 D1E9F340 		.word	1089726929
 857 01f4 01A0FB7F 		.word	2147196929
 858 01f8 BFEF4C37 		.word	927788991
 859 01fc CC3E0174 		.word	1946238668
 860 0200 0158FB7F 		.word	2147178497
 861 0204 2B0FC443 		.word	1136922411
 862 0208 C4044A50 		.word	1347028164
 863 020c 0128FA7F 		.word	2147100673
 864 0210 3C2FC633 		.word	868626236
 865 0214 B3ECCA29 		.word	701164723
 866 0218 01E0F97F 		.word	2147082241
 867 021c C82E1671 		.word	1897279176
 868 0220 C632D324 		.word	617820870
 869 0224 01C0F97F 		.word	2147074049
 870 0228 B3179570 		.word	1888819123
 871 022c 6DB87009 		.word	158382189
 872 0230 0168F97F 		.word	2147051521
 873 0234 F7907D01 		.word	25006327
 874 0238 8FA9281F 		.word	522758543
 875 023c 0148F97F 		.word	2147043329
 876 0240 8FF58513 		.word	327546255
 877 0244 450D3802 		.word	37227845
 878 0248 0138F97F 		.word	2147039233
 879 024c C82EAD2D 		.word	766324424
 880 0250 8CA58D43 		.word	1133356428
 881 0254 0170F87F 		.word	2146988033
 882 0258 5256086F 		.word	1862817362
 883 025c D1086704 		.word	73861329
 884 0260 0110F87F 		.word	2146963457
 885 0264 D80A1E18 		.word	404622040
 886 0268 2B49EC26 		.word	653019435
 887 026c 0100F87F 		.word	2146959361
 888 0270 5EE26D73 		.word	1936581214
 889 0274 B5AD503B 		.word	995143093
 890 0278 01B0F77F 		.word	2146938881
 891 027c F033F85C 		.word	1559770096
 892 0280 2922D825 		.word	634921513
 893 0284 0138F77F 		.word	2146908161
 894 0288 DCB93019 		.word	422623708
 895 028c 4C9D5176 		.word	1985060172
 896 0290 01E0F67F 		.word	2146885633
 897 0294 B2066168 		.word	1751189170
 898 0298 EAC0C611 		.word	298238186
 899 029c 01A8F67F 		.word	2146871297
 900 02a0 5B9C8122 		.word	578919515
 901 02a4 0DAE6411 		.word	291810829
 902 02a8 0148F67F 		.word	2146846721
 903 02ac 41366742 		.word	1114060353
 904 02b0 728F9736 		.word	915902322
 905 02b4 0118F67F 		.word	2146834433
 906 02b8 22105B7B 		.word	2069565474
 907 02bc 4447DA02 		.word	47859524
 908 02c0 01D8F57F 		.word	2146818049
 909 02c4 08398E5C 		.word	1552824584
 910 02c8 5F778526 		.word	646281055
 911 02cc 0130F57F 		.word	2146775041
 912 02d0 C7569F71 		.word	1906267847
 913 02d4 BBFE3C5F 		.word	1597832891
 914 02d8 01E8F47F 		.word	2146756609
 915 02dc BA4F1D6E 		.word	1847414714
 916 02e0 082E3349 		.word	1228090888
 917 02e4 01B8F47F 		.word	2146744321
 918 02e8 8690686C 		.word	1818792070
 919 02ec 25191E46 		.word	1176377637
 920 02f0 01A0F47F 		.word	2146738177
 921 02f4 DE56A442 		.word	1118066398
 922 02f8 4E95E13E 		.word	1054971214
 923 02fc 0198F47F 		.word	2146736129
 924 0300 BE541A03 		.word	52057278
 925 0304 49E4A237 		.word	933422153
 926 0308 0140F47F 		.word	2146713601
 927 030c 30294D23 		.word	592259376
 928 0310 4657D753 		.word	1406621510
 929 0314 01F8F37F 		.word	2146695169
 930 0318 1588AF0F 		.word	263161877
 931 031c 8D88405A 		.word	1514178701
 932 0320 0160F37F 		.word	2146656257
 933 0324 ABCFD928 		.word	685363115
 934 0328 0315EB16 		.word	384505091
 935 032c 0148F37F 		.word	2146650113
 936 0330 B8FD4B37 		.word	927727032
 937 0334 79BF0A20 		.word	537575289
 938 0338 0138F37F 		.word	2146646017
 939 033c 123D2203 		.word	52575506
 940 0340 65A4416B 		.word	1799464037
 941 0344 0130F37F 		.word	2146643969
 942 0348 247B1A4C 		.word	1276803876
 943 034c 30696750 		.word	1348954416
 944 0350 0190F27F 		.word	2146603009
 945 0354 59178530 		.word	814028633
 946 0358 B8F9B05A 		.word	1521547704
 947 035c 0118F27F 		.word	2146572289
 948 0360 5815126E 		.word	1846678872
 949 0364 F9B5214E 		.word	1310832121
 950 0368 01B8F17F 		.word	2146547713
 951 036c 9A71CC36 		.word	919368090
 952 0370 4556BD3C 		.word	1019041349
 953 0374 0120F17F 		.word	2146508801
 954 0378 BC940B28 		.word	671847612
 955 037c E0B84C02 		.word	38582496
 956 0380 01E0F07F 		.word	2146492417
 957 0384 0026EC10 		.word	283911680
 958 0388 7227BC1F 		.word	532424562
 959 038c 01D8F07F 		.word	2146490369
 960 0390 1B54196A 		.word	1780044827
 961 0394 EAB56E35 		.word	896447978
 962 0398 0160F07F 		.word	2146459649
 963 039c 32978C13 		.word	327980850
 964 03a0 5440264F 		.word	1327906900
 965 03a4 0130F07F 		.word	2146447361
 966 03a8 D5941D4E 		.word	1310561493
 967 03ac 05C42339 		.word	958645253
 968 03b0 0118F07F 		.word	2146441217
 969 03b4 BEE49018 		.word	412148926
 970 03b8 D8681F11 		.word	287271128
 971 03bc 0108F07F 		.word	2146437121
 972 03c0 91AB7911 		.word	293186449
 973 03c4 4675CB77 		.word	2009822534
 974 03c8 01F0EF7F 		.word	2146430977
 975 03cc F4D8AB0A 		.word	179034356
 976 03d0 80110351 		.word	1359155584
 977 03d4 01C0EF7F 		.word	2146418689
 978 03d8 D0DA705A 		.word	1517345488
 979 03dc E006B56A 		.word	1790248672
 980 03e0 0190EF7F 		.word	2146406401
 981 03e4 66764F60 		.word	1615820390
 982 03e8 23A4765E 		.word	1584833571
 983 03ec 0188EF7F 		.word	2146404353
 984 03f0 35B34531 		.word	826651445
 985 03f4 72EC2F24 		.word	607120498
 986 03f8 0128EF7F 		.word	2146379777
 987 03fc 1C3E3A00 		.word	3816988
 988 0400 EFAB1271 		.word	1897049071
 989 0404 01E8EE7F 		.word	2146363393
 990 0408 F83BCD48 		.word	1221409784
 991 040c 5F046E76 		.word	1986921567
 992 0410 01C8EE7F 		.word	2146355201
 993 0414 1070BC52 		.word	1388081168
 994 0418 F87BA932 		.word	849968120
 995 041c 0180EE7F 		.word	2146336769
 996 0420 55D17E6B 		.word	1803473237
 997 0424 E498AD62 		.word	1655544036
 998 0428 0120EE7F 		.word	2146312193
 999 042c 3124013D 		.word	1023484977
 1000 0430 97E64F10 		.word	273671831
 1001 0434 01D8ED7F 		.word	2146293761
 1002 0438 D8F60C40 		.word	1074591448
 1003 043c 8710DC1B 		.word	467406983
 1004 0440 01B0ED7F 		.word	2146283521
 1005 0444 BC479131 		.word	831604668
 1006 0448 9EA3D55A 		.word	1523950494
 1007 044c 0178EC7F 		.word	2146203649
 1008 0450 8F767D2A 		.word	712865423
 1009 0454 8E84C945 		.word	1170834574
 1010 0458 01B8EB7F 		.word	2146154497
 1011 045c 82A13369 		.word	1764991362
 1012 0460 BB6C783F 		.word	1064856763
 1013 0464 0188EB7F 		.word	2146142209
 1014 0468 65276525 		.word	627386213
 1015 046c 57ADDA53 		.word	1406840151
 1016 0470 0150EB7F 		.word	2146127873
 1017 0474 FD2FAC61 		.word	1638674429
 1018 0478 415B7A7C 		.word	2088393537
 1019 047c 01E0EA7F 		.word	2146099201
 1020 0480 FA565C5A 		.word	1516001018
 1021 0484 DAD62A29 		.word	690673370
 1022 0488 01C8EA7F 		.word	2146093057
 1023 048c C1152F4D 		.word	1294931393
 1024 0490 629AC812 		.word	315136610
 1025 0494 01C0EA7F 		.word	2146091009
 1026 0498 2DAAC673 		.word	1942399533
 1027 049c 6108073A 		.word	973539425
 1028 04a0 0190EA7F 		.word	2146078721
 1029 04a4 B6FEE06D 		.word	1843461814
 1030 04a8 ECF0177F 		.word	2132275436
 1031 04ac 0148EA7F 		.word	2146060289
 1032 04b0 2A747D41 		.word	1098740778
 1033 04b4 39A07B15 		.word	360423481
 1034 04b8 0118EA7F 		.word	2146048001
 1035 04bc 30B76460 		.word	1617213232
 1036 04c0 EEDE5874 		.word	1951981294
 1037 04c4 0100EA7F 		.word	2146041857
 1038 04c8 8110A26B 		.word	1805783169
 1039 04cc A16AB87B 		.word	2075683489
 1040 04d0 01A8E97F 		.word	2146019329
 1041 04d4 05D13610 		.word	272027909
 1042 04d8 4E038068 		.word	1753219918
 1043 04dc 0128E97F 		.word	2145986561
 1044 04e0 2831EA47 		.word	1206530344
 1045 04e4 56CE3C79 		.word	2034028118
 1046 04e8 0100E97F 		.word	2145976321
 1047 04ec 106A224A 		.word	1243769360
 1048 04f0 6C52F045 		.word	1173377644
 1049 04f4 01D0E87F 		.word	2145964033
 1050 04f8 479CE134 		.word	887200839
 1051 04fc 4AC45F4C 		.word	1281344586
 1052 0500 01F0E77F 		.word	2145906689
 1053 0504 17AA6862 		.word	1651026455
 1054 0508 A82E0336 		.word	906178216
 1055 050c 0178E77F 		.word	2145875969
 1056 0510 F096BB63 		.word	1673238256
 1057 0514 BCDE323E 		.word	1043521212
 1058 0518 0168E77F 		.word	2145871873
 1059 051c EA4B1C49 		.word	1226591210
 1060 0520 0C336F53 		.word	1399796492
 1061 0524 01F0E67F 		.word	2145841153
 1062 0528 B5845757 		.word	1465353397
 1063 052c BAB0F24E 		.word	1324527802
 1064 0530 01D0E67F 		.word	2145832961
 1065 0534 395B9544 		.word	1150638905
 1066 0538 97A90621 		.word	554084759
 1067 053c 0190E67F 		.word	2145816577
 1068 0540 AA5F350D 		.word	221601706
 1069 0544 3FB47819 		.word	427340863
 1070 0548 0118E67F 		.word	2145785857
 1071 054c F9064B24 		.word	608896761
 1072 0550 92CADE12 		.word	316590738
 1073 0554 01A0E57F 		.word	2145755137
 1074 0558 9EE20B66 		.word	1712054942
 1075 055c A04A6464 		.word	1684294304
 1076 0560 0170E57F 		.word	2145742849
 1077 0564 93909F4D 		.word	1302302867
 1078 0568 9CAF342B 		.word	724873116
 1079 056c 0138E57F 		.word	2145728513
 1080 0570 7D7CCC1E 		.word	516717693
 1081 0574 B4C8BA19 		.word	431671476
 1082 0578 01C8E47F 		.word	2145699841
 1083 057c 5B63441F 		.word	524575579
 1084 0580 29018B60 		.word	1619722537
 1085 0584 01A8E47F 		.word	2145691649
 1086 0588 97B5C672 		.word	1925625239
 1087 058c E3FF963A 		.word	982974435
 1088 0590 0198E47F 		.word	2145687553
 1089 0594 CEF5A41B 		.word	463795662
 1090 0598 FCF7134D 		.word	1293154300
 1091 059c 0160E47F 		.word	2145673217
 1092 05a0 1C76FF2D 		.word	771716636
 1093 05a4 6DDD8E34 		.word	881778029
 1094 05a8 01B8E37F 		.word	2145630209
 1095 05ac F102FA59 		.word	1509556977
 1096 05b0 FC2CE931 		.word	837364988
 1097 05b4 0130E37F 		.word	2145595393
 1098 05b8 10AAA70D 		.word	229091856
 1099 05bc AB1FC332 		.word	851648427
 1100 05c0 0110E37F 		.word	2145587201
 1101 05c4 49911A6B 		.word	1796903241
 1102 05c8 588EDE25 		.word	635342424
 1103 05cc 0120E27F 		.word	2145525761
 1104 05d0 22C7A22A 		.word	715310882
 1105 05d4 3178F863 		.word	1677228081
 1106 05d8 01A8E17F 		.word	2145495041
 1107 05dc DA560B3E 		.word	1040930522
 1108 05e0 4839F60B 		.word	200685896
 1109 05e4 0138E17F 		.word	2145466369
 1110 05e8 CDDC9C38 		.word	949804237
 1111 05ec D261D56B 		.word	1809146322
 1112 05f0 01E8E07F 		.word	2145445889
 1113 05f4 5ABEC563 		.word	1673903706
 1114 05f8 916BAE05 		.word	95316881
 1115 05fc 0110E07F 		.word	2145390593
 1116 0600 9CF41830 		.word	806941852
 1117 0604 9FCA2755 		.word	1428671135
 1118 0608 01C8DF7F 		.word	2145372161
 1119 060c 6CD69853 		.word	1402525292
 1120 0610 A67F7F09 		.word	159350694
 1121 0614 01A0DF7F 		.word	2145361921
 1122 0618 EA44A57E 		.word	2124760298
 1123 061c 9D45B85E 		.word	1589134749
 1124 0620 0198DF7F 		.word	2145359873
 1125 0624 5B9F9148 		.word	1217503067
 1126 0628 6241135D 		.word	1561543010
 1127 062c 0188DF7F 		.word	2145355777
 1128 0630 1AAE2A14 		.word	338341402
 1129 0634 6FB0FF04 		.word	83865711
 1130 0638 0158DF7F 		.word	2145343489
 1131 063c 04825852 		.word	1381532164
 1132 0640 F2713B26 		.word	641430002
 1133 0644 0110DF7F 		.word	2145325057
 1134 0648 B6F64970 		.word	1883895478
 1135 064c 87991A5B 		.word	1528469895
 1136 0650 01F8DE7F 		.word	2145318913
 1137 0654 B822984F 		.word	1335370424
 1138 0658 4C2DEC03 		.word	65809740
 1139 065c 01E0DE7F 		.word	2145312769
 1140 0660 6AB33577 		.word	2000008042
 1141 0664 10746D72 		.word	1919775760
 1142 0668 01B0DE7F 		.word	2145300481
 1143 066c D2934E39 		.word	961450962
 1144 0670 E24C4949 		.word	1229540578
 1145 0674 0168DE7F 		.word	2145282049
 1146 0678 CF9E4436 		.word	910466767
 1147 067c ED371175 		.word	1964062701
 1148 0680 01A8DD7F 		.word	2145232897
 1149 0684 8D38AB30 		.word	816527501
 1150 0688 7FC6D41A 		.word	450152063
 1151 068c 0170DD7F 		.word	2145218561
 1152 0690 FA508A55 		.word	1435128058
 1153 0694 840BF66A 		.word	1794509700
 1154 0698 01F8DC7F 		.word	2145187841
 1155 069c 1F40FF01 		.word	33505311
 1156 06a0 7E50D84B 		.word	1272467582
 1157 06a4 01E0DC7F 		.word	2145181697
 1158 06a8 09531410 		.word	269767433
 1159 06ac 49AE4652 		.word	1380363849
 1160 06b0 01C8DC7F 		.word	2145175553
 1161 06b4 FB625C03 		.word	56386299
 1162 06b8 92D97D4E 		.word	1316870546
 1163 06bc 0150DB7F 		.word	2145079297
 1164 06c0 2571947D 		.word	2106880293
 1165 06c4 5C24F552 		.word	1391797340
 1166 06c8 0170DA7F 		.word	2145021953
 1167 06cc 686A5750 		.word	1347906152
 1168 06d0 4E1FF22A 		.word	720510798
 1169 06d4 0158DA7F 		.word	2145015809
 1170 06d8 6E0C530C 		.word	206769262
 1171 06dc 73476F62 		.word	1651459955
 1172 06e0 0128DA7F 		.word	2145003521
 1173 06e4 14A66270 		.word	1885513236
 1174 06e8 A44F0D53 		.word	1393381284
 1175 06ec 0180D97F 		.word	2144960513
 1176 06f0 033AE86B 		.word	1810381315
 1177 06f4 FB52E701 		.word	31937275
 1178 06f8 0140D97F 		.word	2144944129
 1179 06fc 1E6CDF4D 		.word	1306487838
 1180 0700 80E55D78 		.word	2019419520
 1181 0704 0120D97F 		.word	2144935937
 1182 0708 9A393902 		.word	37304730
 1183 070c 9EE4C26D 		.word	1841489054
 1184 0710 0180D87F 		.word	2144894977
 1185 0714 F8F3735F 		.word	1601434616
 1186 0718 27AC6A09 		.word	157985831
 1187 071c 0168D87F 		.word	2144888833
 1188 0720 92CBE205 		.word	98749330
 1189 0724 64BDDF7E 		.word	2128592228
 1190 0728 0148D87F 		.word	2144880641
 1191 072c 5A90A369 		.word	1772327002
 1192 0730 5834BF7B 		.word	2076128344
 1193 0734 0108D87F 		.word	2144864257
 1194 0738 CA31B753 		.word	1404514762
 1195 073c 2CE2FE78 		.word	2029969964
 1196 0740 0178D77F 		.word	2144827393
 1197 0744 72E6C12F 		.word	801236594
 1198 0748 94A33C18 		.word	406627220
 1199 074c 0128D77F 		.word	2144806913
 1200 0750 A3A2D014 		.word	349217443
 1201 0754 E2AA7859 		.word	1501080290
 1202 0758 0100D77F 		.word	2144796673
 1203 075c 0813F35B 		.word	1542656776
 1204 0760 078E427C 		.word	2084736519
 1205 0764 01B8D67F 		.word	2144778241
 1206 0768 24592A48 		.word	1210734884
 1207 076c 4B321868 		.word	1746416203
 1208 0770 0170D67F 		.word	2144759809
 1209 0774 C3B55744 		.word	1146598851
 1210 0778 6961B42A 		.word	716464489
 1211 077c 0168D67F 		.word	2144757761
 1212 0780 50061111 		.word	286328400
 1213 0784 31E2B36C 		.word	1823728177
 1214 0788 01F8D57F 		.word	2144729089
 1215 078c 6F115250 		.word	1347555695
 1216 0790 11FA786D 		.word	1836644881
 1217 0794 01F0D57F 		.word	2144727041
 1218 0798 EE43086B 		.word	1795703790
 1219 079c DC17031F 		.word	520296412
 1220 07a0 0178D57F 		.word	2144696321
 1221 07a4 9531A24D 		.word	1302475157
 1222 07a8 B933D732 		.word	852964281
 1223 07ac 0108D57F 		.word	2144667649
 1224 07b0 EE962040 		.word	1075877614
 1225 07b4 9F94191E 		.word	504992927
 1226 07b8 0198D37F 		.word	2144573441
 1227 07bc F0ECD80B 		.word	198765808
 1228 07c0 96AC6360 		.word	1617144982
 1229 07c4 0150D37F 		.word	2144555009
 1230 07c8 BF232A13 		.word	321528767
 1231 07cc CBA44909 		.word	155821259
 1232 07d0 0140D37F 		.word	2144550913
 1233 07d4 7CC88630 		.word	814139516
 1234 07d8 6C0B7A6C 		.word	1819937644
 1235 07dc 0108D37F 		.word	2144536577
 1236 07e0 26F40A22 		.word	571143206
 1237 07e4 2F556539 		.word	962942255
 1238 07e8 01D8D27F 		.word	2144524289
 1239 07ec C60A1D68 		.word	1746733766
 1240 07f0 99B52500 		.word	2471321
 1241 07f4 01A8D27F 		.word	2144512001
 1242 07f8 A596906C 		.word	1821415077
 1243 07fc DB006707 		.word	124190939
 1244 0800 0100D27F 		.word	2144468993
 1245 0804 BA9BB536 		.word	917871546
 1246 0808 662F1B4B 		.word	1260072806
 1247 080c 01D8D17F 		.word	2144458753
 1248 0810 3D338E16 		.word	378417981
 1249 0814 F3B5885D 		.word	1569240563
 1250 0818 0148D17F 		.word	2144421889
 1251 081c E4CA710A 		.word	175229668
 1252 0820 1BC3D06C 		.word	1825620763
 1253 0824 0118D17F 		.word	2144409601
 1254 0828 43FE4765 		.word	1699216963
 1255 082c 75B9F514 		.word	351648117
 1256 0830 0180D07F 		.word	2144370689
 1257 0834 A7AEE33F 		.word	1071885991
 1258 0838 2DC21C39 		.word	958186029
 1259 083c 0128D07F 		.word	2144348161
 1260 0840 7B8D1769 		.word	1763151227
 1261 0844 26243520 		.word	540353574
 1262 0848 01F8CF7F 		.word	2144335873
 1263 084c 1498313F 		.word	1060214804
 1264 0850 FFF6CF36 		.word	919598847
 1265 0854 01E0CF7F 		.word	2144329729
 1266 0858 C6728C27 		.word	663515846
 1267 085c DC285756 		.word	1448552668
 1268 0860 01D8CF7F 		.word	2144327681
 1269 0864 B1620C3F 		.word	1057776305
 1270 0868 F8152E23 		.word	590222840
 1271 086c 0190CF7F 		.word	2144309249
 1272 0870 F082A265 		.word	1705149168
 1273 0874 A011FB56 		.word	1459294624
 1274 0878 0160CF7F 		.word	2144296961
 1275 087c E9AC6B13 		.word	325823721
 1276 0880 66004A62 		.word	1649016934
 1277 0884 0148CF7F 		.word	2144290817
 1278 0888 EDD2082C 		.word	738775789
 1279 088c 8632AB1A 		.word	447427206
 1280 0890 0190CE7F 		.word	2144243713
 1281 0894 62425C39 		.word	962347618
 1282 0898 67DD3A35 		.word	893050215
 1283 089c 0178CE7F 		.word	2144237569
 1284 08a0 F537A962 		.word	1655257077
 1285 08a4 BE0BB235 		.word	900860862
 1286 08a8 0150CD7F 		.word	2144161793
 1287 08ac E6C76F0E 		.word	242206694
 1288 08b0 00C7735D 		.word	1567868672
 1289 08b4 0138CD7F 		.word	2144155649
 1290 08b8 8C58DC2D 		.word	769415308
 1291 08bc 2EDD624A 		.word	1247993134
 1292 08c0 01F0CC7F 		.word	2144137217
 1293 08c4 F7511A13 		.word	320492023
 1294 08c8 2E1CBF1E 		.word	515841070
 1295 08cc 01B0CC7F 		.word	2144120833
 1296 08d0 6A15B761 		.word	1639388522
 1297 08d4 76A7F22D 		.word	770877302
 1298 08d8 01F0CB7F 		.word	2144071681
 1299 08dc 91B50269 		.word	1761785233
 1300 08e0 B8FD7939 		.word	964296120
 1301 08e4 01D8CB7F 		.word	2144065537
 1302 08e8 61E90519 		.word	419817825
 1303 08ec F867310C 		.word	204564472
 1304 08f0 0148CB7F 		.word	2144028673
 1305 08f4 2520B327 		.word	666050597
 1306 08f8 F06DA27C 		.word	2091019760
 1307 08fc 0100CB7F 		.word	2144010241
 1308 0900 0FB44254 		.word	1413657615
 1309 0904 1290855A 		.word	1518702610
 1310 0908 0120CA7F 		.word	2143952897
 1311 090c 8A62CF49 		.word	1238327946
 1312 0910 CF2E5A1C 		.word	475672271
 1313 0914 01F0C97F 		.word	2143940609
 1314 0918 756A4D12 		.word	307063413
 1315 091c FECA2346 		.word	1176750846
 1316 0920 0198C97F 		.word	2143918081
 1317 0924 D770F57A 		.word	2062905559
 1318 0928 0B66E52E 		.word	786785803
 1319 092c 0150C97F 		.word	2143899649
 1320 0930 51FBC14F 		.word	1338112849
 1321 0934 73AF1E5D 		.word	1562292083
 1322 0938 0130C97F 		.word	2143891457
 1323 093c 29E10F04 		.word	68149545
 1324 0940 F30D3205 		.word	87166451
 1325 0944 0118C97F 		.word	2143885313
 1326 0948 FACCF036 		.word	921750778
 1327 094c B6FE8217 		.word	394460854
 1328 0950 01A0C87F 		.word	2143854593
 1329 0954 41C4E62A 		.word	719766593
 1330 0958 CCCDFA07 		.word	133877196
 1331 095c 0158C87F 		.word	2143836161
 1332 0960 2A738244 		.word	1149399850
 1333 0964 43A3F56E 		.word	1861591875
 1334 0968 0138C77F 		.word	2143762433
 1335 096c 2686316E 		.word	1848739366
 1336 0970 C1BCA04F 		.word	1335934145
 1337 0974 0120C77F 		.word	2143756289
 1338 0978 1673134F 		.word	1326674710
 1339 097c C4A42306 		.word	102999236
 1340 0980 0178C67F 		.word	2143713281
 1341 0984 5F0B2A30 		.word	808061791
 1342 0988 D4E5F444 		.word	1156900308
 1343 098c 0120C67F 		.word	2143690753
 1344 0990 63812617 		.word	388399459
 1345 0994 B391D372 		.word	1926468019
 1346 0998 01D0C57F 		.word	2143670273
 1347 099c AEE41B55 		.word	1427891374
 1348 09a0 F9F3B468 		.word	1756689401
 1349 09a4 01C0C57F 		.word	2143666177
 1350 09a8 7D75F971 		.word	1912173949
 1351 09ac BDC5CE3A 		.word	986629565
 1352 09b0 0170C57F 		.word	2143645697
 1353 09b4 AFA1A979 		.word	2041160111
 1354 09b8 31DF2916 		.word	371842865
 1355 09bc 0160C57F 		.word	2143641601
 1356 09c0 51D4494C 		.word	1279906897
 1357 09c4 CE65A378 		.word	2023974350
 1358 09c8 0148C57F 		.word	2143635457
 1359 09cc 568CF12A 		.word	720473174
 1360 09d0 C6E0CA52 		.word	1389027526
 1361 09d4 0110C57F 		.word	2143621121
 1362 09d8 4FA1624D 		.word	1298309455
 1363 09dc C6DD4567 		.word	1732632006
 1364 09e0 01B8C47F 		.word	2143598593
 1365 09e4 683C505C 		.word	1548762216
 1366 09e8 22A9CD6C 		.word	1825417506
 1367 09ec 0140C47F 		.word	2143567873
 1368 09f0 88B5FB24 		.word	620475784
 1369 09f4 61B10040 		.word	1073787233
 1370 09f8 0128C47F 		.word	2143561729
 1371 09fc CF8B3673 		.word	1932954575
 1372 0a00 CD249338 		.word	949167309
 1373 0a04 0108C47F 		.word	2143553537
 1374 0a08 886D1E15 		.word	354315656
 1375 0a0c 9E177862 		.word	1652037534
 1376 0a10 01D8C37F 		.word	2143541249
 1377 0a14 A0CB6A22 		.word	577424288
 1378 0a18 22506341 		.word	1097027618
 1379 0a1c 01B0C37F 		.word	2143531009
 1380 0a20 A68D5415 		.word	357862822
 1381 0a24 B777871C 		.word	478640055
 1382 0a28 0190C37F 		.word	2143522817
 1383 0a2c 29C04378 		.word	2017706025
 1384 0a30 543C6B5C 		.word	1550531668
 1385 0a34 0150C37F 		.word	2143506433
 1386 0a38 3BB5DD7B 		.word	2078127419
 1387 0a3c A5EABC6C 		.word	1824320165
 1388 0a40 0108C37F 		.word	2143488001
 1389 0a44 D5E39024 		.word	613475285
 1390 0a48 F6459B5F 		.word	1604011510
 1391 0a4c 01C0C27F 		.word	2143469569
 1392 0a50 AB766A57 		.word	1466594987
 1393 0a54 5C5DED1D 		.word	502095196
 1394 0a58 0118C27F 		.word	2143426561
 1395 0a5c BB1D7C42 		.word	1115430331
 1396 0a60 B7E5433E 		.word	1044637111
 1397 0a64 0170C17F 		.word	2143383553
 1398 0a68 7D339500 		.word	9778045
 1399 0a6c F64A6571 		.word	1902463734
 1400 0a70 0158C17F 		.word	2143377409
 1401 0a74 BC0ED45C 		.word	1557401276
 1402 0a78 4B38997A 		.word	2056861771
 1403 0a7c 0120C17F 		.word	2143363073
 1404 0a80 6749DD26 		.word	652036455
 1405 0a84 437F2D75 		.word	1965915971
 1406 0a88 0190BF7F 		.word	2143260673
 1407 0a8c 33BC4B57 		.word	1464581171
 1408 0a90 C510CB5A 		.word	1523257541
 1409 0a94 0158BF7F 		.word	2143246337
 1410 0a98 6150D36F 		.word	1876119649
 1411 0a9c DCFB912D 		.word	764541916
 1412 0aa0 01C8BE7F 		.word	2143209473
 1413 0aa4 21D54260 		.word	1614992673
 1414 0aa8 4C247B72 		.word	1920672844
 1415 0aac 01B0BE7F 		.word	2143203329
 1416 0ab0 8FAA793A 		.word	981052047
 1417 0ab4 81122D7A 		.word	2049774209
 1418 0ab8 0108BE7F 		.word	2143160321
 1419 0abc 8D681C6E 		.word	1847355533
 1420 0ac0 71926C2B 		.word	728535665
 1421 0ac4 0190BD7F 		.word	2143129601
 1422 0ac8 B9408D39 		.word	965558457
 1423 0acc C0DBF123 		.word	603052992
 1424 0ad0 0178BD7F 		.word	2143123457
 1425 0ad4 27479A7F 		.word	2140817191
 1426 0ad8 07647F00 		.word	8348679
 1427 0adc 0120BD7F 		.word	2143100929
 1428 0ae0 C35E395C 		.word	1547263683
 1429 0ae4 FFC96029 		.word	694209023
 1430 0ae8 0100BD7F 		.word	2143092737
 1431 0aec FA675A26 		.word	643459066
 1432 0af0 45670376 		.word	1979934533
 1433 0af4 01D8BC7F 		.word	2143082497
 1434 0af8 82DD3D0B 		.word	188603778
 1435 0afc B6FCC478 		.word	2026175670
 1436 0b00 0188BC7F 		.word	2143062017
 1437 0b04 1FD8C862 		.word	1657329695
 1438 0b08 5B727F16 		.word	377451099
 1439 0b0c 0160BC7F 		.word	2143051777
 1440 0b10 8E45DA06 		.word	114967950
 1441 0b14 B1405E3A 		.word	979255473
 1442 0b18 01F8BB7F 		.word	2143025153
 1443 0b1c 6E013C65 		.word	1698431342
 1444 0b20 60FD6056 		.word	1449196896
 1445 0b24 01B0BB7F 		.word	2143006721
 1446 0b28 AB2E076F 		.word	1862741675
 1447 0b2c 3DF5B067 		.word	1739650365
 1448 0b30 0188BB7F 		.word	2142996481
 1449 0b34 E9B8192D 		.word	756660457
 1450 0b38 3232603B 		.word	996160050
 1451 0b3c 0138BB7F 		.word	2142976001
 1452 0b40 CA144E37 		.word	927864010
 1453 0b44 56AE8C45 		.word	1166847574
 1454 0b48 0110BB7F 		.word	2142965761
 1455 0b4c DD47F235 		.word	905070557
 1456 0b50 26EE7427 		.word	661974566
 1457 0b54 0150BA7F 		.word	2142916609
 1458 0b58 92957002 		.word	40932754
 1459 0b5c 27EA856A 		.word	1787161127
 1460 0b60 01F0B97F 		.word	2142892033
 1461 0b64 F0407E76 		.word	1987985648
 1462 0b68 D6CC4028 		.word	675335382
 1463 0b6c 01D8B97F 		.word	2142885889
 1464 0b70 7BD7882F 		.word	797497211
 1465 0b74 A5DBDC4E 		.word	1323096997
 1466 0b78 01A0B97F 		.word	2142871553
 1467 0b7c E691437B 		.word	2068025830
 1468 0b80 27892754 		.word	1411877159
 1469 0b84 0178B97F 		.word	2142861313
 1470 0b88 02A68C48 		.word	1217177090
 1471 0b8c BF67BC55 		.word	1438410687
 1472 0b90 0100B97F 		.word	2142830593
 1473 0b94 C7AC6E18 		.word	409906375
 1474 0b98 9A695F69 		.word	1767860634
 1475 0b9c 0198B87F 		.word	2142803969
 1476 0ba0 41CF6447 		.word	1197788993
 1477 0ba4 07DA7115 		.word	359782919
 1478 0ba8 0150B87F 		.word	2142785537
 1479 0bac 95DF5F26 		.word	643817365
 1480 0bb0 3EFEA11E 		.word	513932862
 1481 0bb4 0138B87F 		.word	2142779393
 1482 0bb8 420C5866 		.word	1717046338
 1483 0bbc 91CE0C0D 		.word	218943121
 1484 0bc0 0160B77F 		.word	2142724097
 1485 0bc4 FE2B5305 		.word	89336830
 1486 0bc8 C923D618 		.word	416687049
 1487 0bcc 0120B77F 		.word	2142707713
 1488 0bd0 05B55A00 		.word	5944581
 1489 0bd4 D354DF50 		.word	1356813523
 1490 0bd8 0160B67F 		.word	2142658561
 1491 0bdc F7EBEC34 		.word	887942135
 1492 0be0 4AE89E7B 		.word	2074011722
 1493 0be4 0110B67F 		.word	2142638081
 1494 0be8 C4130D09 		.word	151851972
 1495 0bec A3693062 		.word	1647339939
 1496 0bf0 01F0B47F 		.word	2142564353
 1497 0bf4 8153D264 		.word	1691505537
 1498 0bf8 086C6658 		.word	1483107336
 1499 0bfc 0178B47F 		.word	2142533633
 1500 0c00 C8C59B76 		.word	1989920200
 1501 0c04 010DB543 		.word	1135938817
 1502 0c08 0168B47F 		.word	2142529537
 1503 0c0c 96312D39 		.word	959263126
 1504 0c10 01E24F5B 		.word	1531961857
 1505 0c14 0160B47F 		.word	2142527489
 1506 0c18 3910041B 		.word	453251129
 1507 0c1c D20CDA66 		.word	1725566162
 1508 0c20 0100B47F 		.word	2142502913
 1509 0c24 C6ED8D5B 		.word	1536028102
 1510 0c28 89E9D90A 		.word	182053257
 1511 0c2c 01F0B37F 		.word	2142498817
 1512 0c30 6AA0FB21 		.word	570138730
 1513 0c34 772DCF29 		.word	701443447
 1514 0c38 01B0B27F 		.word	2142416897
 1515 0c3c 281A7D13 		.word	326965800
 1516 0c40 AB948D18 		.word	411931819
 1517 0c44 01E0B17F 		.word	2142363649
 1518 0c48 02A0E063 		.word	1675665410
 1519 0c4c 35826E5A 		.word	1517191733
 1520 0c50 01B0B17F 		.word	2142351361
 1521 0c54 9E96BA39 		.word	968529566
 1522 0c58 BF77EB5D 		.word	1575712703
 1523 0c5c 0160B17F 		.word	2142330881
 1524 0c60 96B58C52 		.word	1384953238
 1525 0c64 8C237269 		.word	1769087884
 1526 0c68 0120B17F 		.word	2142314497
 1527 0c6c FA44D975 		.word	1977173242
 1528 0c70 74BC4C6D 		.word	1833745524
 1529 0c74 01C0B07F 		.word	2142289921
 1530 0c78 49D7AA05 		.word	95082313
 1531 0c7c C5653566 		.word	1714775493
 1532 0c80 01A8B07F 		.word	2142283777
 1533 0c84 4FF88406 		.word	109377615
 1534 0c88 D5D2CF3F 		.word	1070584533
 1535 0c8c 0190B07F 		.word	2142277633
 1536 0c90 FECB0201 		.word	16960510
 1537 0c94 5911DA29 		.word	702157145
 1538 0c98 0158B07F 		.word	2142263297
 1539 0c9c C3170321 		.word	553850819
 1540 0ca0 2B19B619 		.word	431364395
 1541 0ca4 0180AF7F 		.word	2142208001
 1542 0ca8 FF7B640E 		.word	241466367
 1543 0cac 6E106D7A 		.word	2053967982
 1544 0cb0 01D8AE7F 		.word	2142164993
 1545 0cb4 0E9E076B 		.word	1795661326
 1546 0cb8 B094803D 		.word	1031836848
 1547 0cbc 01D0AD7F 		.word	2142097409
 1548 0cc0 7EBD4548 		.word	1212530046
 1549 0cc4 BF097C2A 		.word	712772031
 1550 0cc8 01A8AD7F 		.word	2142087169
 1551 0ccc 18842269 		.word	1763869720
 1552 0cd0 E3EF0231 		.word	822276067
 1553 0cd4 0188AD7F 		.word	2142078977
 1554 0cd8 B1A96326 		.word	644065713
 1555 0cdc 62DA3769 		.word	1765268066
 1556 0ce0 0178AD7F 		.word	2142074881
 1557 0ce4 C83CB706 		.word	112671944
 1558 0ce8 3D875626 		.word	643204925
 1559 0cec 0100AD7F 		.word	2142044161
 1560 0cf0 FFECB752 		.word	1387785471
 1561 0cf4 7E3B5C4D 		.word	1297890174
 1562 0cf8 01B8AC7F 		.word	2142025729
 1563 0cfc E124B92E 		.word	783885537
 1564 0d00 0249A13B 		.word	1000425730
 1565 0d04 0180AC7F 		.word	2142011393
 1566 0d08 184FFB35 		.word	905662232
 1567 0d0c 49A01964 		.word	1679401033
 1568 0d10 01F0AB7F 		.word	2141974529
 1569 0d14 91CDAB2F 		.word	799788433
 1570 0d18 05F0E61B 		.word	468119557
 1571 0d1c 0178AB7F 		.word	2141943809
 1572 0d20 7C483073 		.word	1932544124
 1573 0d24 D3DBC71A 		.word	449305555
 1574 0d28 0150AB7F 		.word	2141933569
 1575 0d2c F8520A5B 		.word	1527403256
 1576 0d30 95E22D32 		.word	841867925
 1577 0d34 0148AB7F 		.word	2141931521
 1578 0d38 63E0544A 		.word	1247076451
 1579 0d3c 2CDA552C 		.word	743823916
 1580 0d40 01D8AA7F 		.word	2141902849
 1581 0d44 F35D8147 		.word	1199660531
 1582 0d48 6645F117 		.word	401687910
 1583 0d4c 01A8AA7F 		.word	2141890561
 1584 0d50 7ED6F208 		.word	150132350
 1585 0d54 4C428A66 		.word	1720336972
 1586 0d58 0128AA7F 		.word	2141857793
 1587 0d5c 52BFBC4C 		.word	1287438162
 1588 0d60 29039227 		.word	663880489
 1589 0d64 01C8A97F 		.word	2141833217
 1590 0d68 C333D624 		.word	618017731
 1591 0d6c 4AEA6E6C 		.word	1819208266
 1592 0d70 0198A97F 		.word	2141820929
 1593 0d74 0E5C943B 		.word	999578638
 1594 0d78 B074A153 		.word	1403090096
 1595 0d7c 0110A97F 		.word	2141786113
 1596 0d80 55B1E004 		.word	81834325
 1597 0d84 E569CF5A 		.word	1523542501
 1598 0d88 01D8A87F 		.word	2141771777
 1599 0d8c 88152707 		.word	120001928
 1600 0d90 8C4FA11B 		.word	463556492
 1601 0d94 01A8A87F 		.word	2141759489
 1602 0d98 BD854C07 		.word	122455485
 1603 0d9c 1AD5A77E 		.word	2124928282
 1604 0da0 0180A87F 		.word	2141749249
 1605 0da4 F9887608 		.word	141986041
 1606 0da8 D16F0C38 		.word	940339153
 1607 0dac 0188A77F 		.word	2141685761
 1608 0db0 DE6AFE34 		.word	889088734
 1609 0db4 FB99701C 		.word	477141499
 1610 0db8 0158A77F 		.word	2141673473
 1611 0dbc C9175313 		.word	324212681
 1612 0dc0 5AE1E842 		.word	1122558298
 1613 0dc4 0148A77F 		.word	2141669377
 1614 0dc8 EB601546 		.word	1175806187
 1615 0dcc 41CDE251 		.word	1373818177
 1616 0dd0 0110A77F 		.word	2141655041
 1617 0dd4 26066142 		.word	1113654822
 1618 0dd8 2A23B211 		.word	296887082
 1619 0ddc 0108A67F 		.word	2141587457
 1620 0de0 1A09133B 		.word	991103258
 1621 0de4 1320875E 		.word	1585913875
 1622 0de8 01F8A57F 		.word	2141583361
 1623 0dec 91738853 		.word	1401451409
 1624 0df0 10516F6B 		.word	1802457360
 1625 0df4 01D8A57F 		.word	2141575169
 1626 0df8 CE77B25D 		.word	1571977166
 1627 0dfc 94DE7B2A 		.word	712760980
 1628 0e00 0168A57F 		.word	2141546497
 1629 0e04 A0700842 		.word	1107849376
 1630 0e08 9D9B854A 		.word	1250270109
 1631 0e0c 01F0A47F 		.word	2141515777
 1632 0e10 DB06B70B 		.word	196544219
 1633 0e14 6A253815 		.word	356001130
 1634 0e18 01A0A47F 		.word	2141495297
 1635 0e1c B2335467 		.word	1733571506
 1636 0e20 A2AE393F 		.word	1060744866
 1637 0e24 0170A47F 		.word	2141483009
 1638 0e28 EB7F2A13 		.word	321552363
 1639 0e2c 42CCA245 		.word	1168297026
 1640 0e30 0110A47F 		.word	2141458433
 1641 0e34 8B2C261E 		.word	505818251
 1642 0e38 5B23B42B 		.word	733225819
 1643 0e3c 0190A27F 		.word	2141360129
 1644 0e40 2256343D 		.word	1026840098
 1645 0e44 048E8638 		.word	948342276
 1646 0e48 0108A27F 		.word	2141325313
 1647 0e4c B0985538 		.word	945133744
 1648 0e50 AEB3F47E 		.word	2129965998
 1649 0e54 01E8A17F 		.word	2141317121
 1650 0e58 64B9866F 		.word	1871100260
 1651 0e5c 1AD6E66D 		.word	1843844634
 1652 0e60 0170A17F 		.word	2141286401
 1653 0e64 8AFDBA6A 		.word	1790639498
 1654 0e68 A0FC5568 		.word	1750465696
 1655 0e6c 0128A17F 		.word	2141267969
 1656 0e70 E0311152 		.word	1376858592
 1657 0e74 5096180B 		.word	186160720
 1658 0e78 01F8A07F 		.word	2141255681
 1659 0e7c F89DF07E 		.word	2129698296
 1660 0e80 47D5DB6F 		.word	1876677959
 1661 0e84 01C8A07F 		.word	2141243393
 1662 0e88 D0087D7F 		.word	2138900688
 1663 0e8c 9CECDE4F 		.word	1340009628
 1664 0e90 0158A07F 		.word	2141214721
 1665 0e94 EBFF3773 		.word	1933049835
 1666 0e98 D5CED640 		.word	1087819477
 1667 0e9c 0150A07F 		.word	2141212673
 1668 0ea0 EB532B71 		.word	1898664939
 1669 0ea4 F133796A 		.word	1786328049
 1670 0ea8 0128A07F 		.word	2141202433
 1671 0eac CCC8053B 		.word	990234828
 1672 0eb0 B9AB1138 		.word	940682169
 1673 0eb4 01C09F7F 		.word	2141175809
 1674 0eb8 65D8D353 		.word	1406392421
 1675 0ebc 3258313B 		.word	993089586
 1676 0ec0 01989F7F 		.word	2141165569
 1677 0ec4 A3C24F4B 		.word	1263518371
 1678 0ec8 57163A11 		.word	289019479
 1679 0ecc 01309E7F 		.word	2141073409
 1680 0ed0 93D38C58 		.word	1485624211
 1681 0ed4 C265451E 		.word	507864514
 1682 0ed8 01E09D7F 		.word	2141052929
 1683 0edc C4DF5C70 		.word	1885134788
 1684 0ee0 F1558D12 		.word	311252465
 1685 0ee4 01B09D7F 		.word	2141040641
 1686 0ee8 3FDE974C 		.word	1285021247
 1687 0eec 26D5BE10 		.word	280941862
 1688 0ef0 01809D7F 		.word	2141028353
 1689 0ef4 067C0D5B 		.word	1527610374
 1690 0ef8 E6945A16 		.word	375035110
 1691 0efc 01409D7F 		.word	2141011969
 1692 0f00 F8DB7B53 		.word	1400626168
 1693 0f04 2C12D109 		.word	164696620
 1694 0f08 01109D7F 		.word	2140999681
 1695 0f0c 7832BA25 		.word	632959608
 1696 0f10 5BA99639 		.word	966175067
 1697 0f14 01089D7F 		.word	2140997633
 1698 0f18 32D2ED79 		.word	2045628978
 1699 0f1c DE68F14C 		.word	1290889438
 1700 0f20 01F89C7F 		.word	2140993537
 1701 0f24 23F03454 		.word	1412755491
 1702 0f28 6DA25F16 		.word	375366253
 1703 0f2c 01309C7F 		.word	2140942337
 1704 0f30 F059E22A 		.word	719477232
 1705 0f34 14C3CF2E 		.word	785367828
 1706 0f38 01F09B7F 		.word	2140925953
 1707 0f3c 3C11B202 		.word	45224252
 1708 0f40 7DC6DC31 		.word	836552317
 1709 0f44 01D09B7F 		.word	2140917761
 1710 0f48 4C2AFC44 		.word	1157376588
 1711 0f4c D1DBB63B 		.word	1001839569
 1712 0f50 01589B7F 		.word	2140887041
 1713 0f54 70479910 		.word	278480752
 1714 0f58 FC1E187D 		.word	2098732796
 1715 0f5c 01989A7F 		.word	2140837889
 1716 0f60 71802163 		.word	1663139953
 1717 0f64 5A911437 		.word	924094810
 1718 0f68 01D8997F 		.word	2140788737
 1719 0f6c 8733D52F 		.word	802501511
 1720 0f70 9EDAE979 		.word	2045368990
 1721 0f74 0180997F 		.word	2140766209
 1722 0f78 AD467C6C 		.word	1820083885
 1723 0f7c 50544E6B 		.word	1800295504
 1724 0f80 0178997F 		.word	2140764161
 1725 0f84 3119B645 		.word	1169561905
 1726 0f88 6318937D 		.word	2106792035
 1727 0f8c 0170987F 		.word	2140696577
 1728 0f90 7ACA9D07 		.word	127781498
 1729 0f94 CBE26970 		.word	1885987531
 1730 0f98 0140987F 		.word	2140684289
 1731 0f9c 8D5CF400 		.word	16014477
 1732 0fa0 DBEE7341 		.word	1098116827
 1733 0fa4 01C8977F 		.word	2140653569
 1734 0fa8 96C0B127 		.word	665960598
 1735 0fac B7E5176B 		.word	1796728247
 1736 0fb0 01E0967F 		.word	2140594177
 1737 0fb4 B3382C3E 		.word	1043085491
 1738 0fb8 DA4E7D16 		.word	377310938
 1739 0fbc 01A8967F 		.word	2140579841
 1740 0fc0 43034967 		.word	1732838211
 1741 0fc4 59F0AC59 		.word	1504505945
 1742 0fc8 0180967F 		.word	2140569601
 1743 0fcc 83400112 		.word	302071939
 1744 0fd0 48165B15 		.word	358291016
 1745 0fd4 0178967F 		.word	2140567553
 1746 0fd8 05B2770B 		.word	192393733
 1747 0fdc F71ECB71 		.word	1909137143
 1748 0fe0 0150967F 		.word	2140557313
 1749 0fe4 93283C18 		.word	406595731
 1750 0fe8 DE1D0E46 		.word	1175330270
 1751 0fec 0130967F 		.word	2140549121
 1752 0ff0 E6583D68 		.word	1748850918
 1753 0ff4 9FF84A1F 		.word	525007007
 1754 0ff8 0118957F 		.word	2140477441
 1755 0ffc 16CCC41D 		.word	499436566
 1756 1000 0640763D 		.word	1031159814
 1757 1004 01F8947F 		.word	2140469249
 1758 1008 B1246A70 		.word	1886004401
 1759 100c 58CF633D 		.word	1029951320
 1760 1010 0150947F 		.word	2140426241
 1761 1014 64596758 		.word	1483168100
 1762 1018 35E7E963 		.word	1676273461
 1763 101c 0138947F 		.word	2140420097
 1764 1020 F161176A 		.word	1779917297
 1765 1024 1C4F6D32 		.word	846024476
 1766 1028 0120947F 		.word	2140413953
 1767 102c 1D912B1F 		.word	522948893
 1768 1030 655D436C 		.word	1816354149
 1769 1034 01A8937F 		.word	2140383233
 1770 1038 79481E73 		.word	1931364473
 1771 103c 99724D4D 		.word	1296921241
 1772 1040 0168937F 		.word	2140366849
 1773 1044 0B8A4872 		.word	1917356555
 1774 1048 2C09C608 		.word	147196204
 1775 104c 0138937F 		.word	2140354561
 1776 1050 0141FB00 		.word	16466177
 1777 1054 CBE66850 		.word	1349052107
 1778 1058 0120937F 		.word	2140348417
 1779 105c 3CD4C76F 		.word	1875366972
 1780 1060 02C2E46E 		.word	1860485634
 1781 1064 01C0927F 		.word	2140323841
 1782 1068 1D9E351B 		.word	456498717
 1783 106c 6325B56A 		.word	1790256483
 1784 1070 01B8927F 		.word	2140321793
 1785 1074 D51A2061 		.word	1629493973
 1786 1078 104EF108 		.word	150031888
 1787 107c 01A0927F 		.word	2140315649
 1788 1080 9AB57D71 		.word	1904063898
 1789 1084 97049317 		.word	395510935
 1790 1088 0118927F 		.word	2140280833
 1791 108c 8845576A 		.word	1784104328
 1792 1090 356E8E31 		.word	831417909
 1793 1094 01A0917F 		.word	2140250113
 1794 1098 6394430F 		.word	256087139
 1795 109c EDB39029 		.word	697349101
 1796 10a0 0150917F 		.word	2140229633
 1797 10a4 6ED92817 		.word	388553070
 1798 10a8 AA3F890E 		.word	243875754
 1799 10ac 0138917F 		.word	2140223489
 1800 10b0 18548D2C 		.word	747459608
 1801 10b4 02673953 		.word	1396270850
 1802 10b8 01E0907F 		.word	2140200961
 1803 10bc FFAB3E1E 		.word	507423743
 1804 10c0 F122FC70 		.word	1895572209
 1805 10c4 0148907F 		.word	2140162049
 1806 10c8 20B79322 		.word	580106016
 1807 10cc 3DC3E879 		.word	2045297469
 1808 10d0 0118907F 		.word	2140149761
 1809 10d4 CCC3762A 		.word	712426444
 1810 10d8 CB79CD2E 		.word	785217995
 1811 10dc 01E88F7F 		.word	2140137473
 1812 10e0 A02FED55 		.word	1441607584
 1813 10e4 EFEEFF1F 		.word	536866543
 1814 10e8 01A08F7F 		.word	2140119041
 1815 10ec 96C3A714 		.word	346538902
 1816 10f0 DDECBC67 		.word	1740434653
 1817 10f4 01308F7F 		.word	2140090369
 1818 10f8 C5C9D810 		.word	282642885
 1819 10fc D6364101 		.word	21051094
 1820 1100 01F88E7F 		.word	2140076033
 1821 1104 E413E453 		.word	1407456228
 1822 1108 8D701113 		.word	319910029
 1823 110c 01888E7F 		.word	2140047361
 1824 1110 C4058560 		.word	1619330500
 1825 1114 06B9BA58 		.word	1488632070
 1826 1118 01708E7F 		.word	2140041217
 1827 111c 40D6897C 		.word	2089408064
 1828 1120 1615ED77 		.word	2012026134
 1829 1124 01F08D7F 		.word	2140008449
 1830 1128 403EA865 		.word	1705524800
 1831 112c F8262B60 		.word	1613440760
 1832 1130 01A88C7F 		.word	2139924481
 1833 1134 E9E60A6E 		.word	1846208233
 1834 1138 0929554C 		.word	1280649481
 1835 113c 01608C7F 		.word	2139906049
 1836 1140 23A3F93A 		.word	989438755
 1837 1144 FC85AB46 		.word	1185646076
 1838 1148 01C88B7F 		.word	2139867137
 1839 114c 62AEBC5A 		.word	1522314850
 1840 1150 EB393816 		.word	372783595
 1841 1154 01688B7F 		.word	2139842561
 1842 1158 B1FC3A64 		.word	1681587377
 1843 115c 6BD7EC0C 		.word	216848235
 1844 1160 01288B7F 		.word	2139826177
 1845 1164 BC01297B 		.word	2066284988
 1846 1168 28EE646A 		.word	1784999464
 1847 116c 01208B7F 		.word	2139824129
 1848 1170 96C5A91C 		.word	480888214
 1849 1174 137A335A 		.word	1513323027
 1850 1178 01988A7F 		.word	2139789313
 1851 117c B07E8A32 		.word	847937200
 1852 1180 DBFB2633 		.word	858192859
 1853 1184 01808A7F 		.word	2139783169
 1854 1188 32F0DE61 		.word	1642000434
 1855 118c 08A75E5E 		.word	1583261448
 1856 1190 01508A7F 		.word	2139770881
 1857 1194 C5EF1138 		.word	940699589
 1858 1198 5409B60A 		.word	179702100
 1859 119c 01488A7F 		.word	2139768833
 1860 11a0 4A07D012 		.word	315623242
 1861 11a4 44D27E39 		.word	964612676
 1862 11a8 01B8887F 		.word	2139666433
 1863 11ac B390C413 		.word	331649203
 1864 11b0 22E4932D 		.word	764666914
 1865 11b4 0158887F 		.word	2139641857
 1866 11b8 2F44497E 		.word	2118730799
 1867 11bc 24754E4E 		.word	1313764644
 1868 11c0 0140887F 		.word	2139635713
 1869 11c4 E395F11E 		.word	519149027
 1870 11c8 A18DF21E 		.word	519212449
 1871 11cc 01B0877F 		.word	2139598849
 1872 11d0 4239FB5A 		.word	1526413634
 1873 11d4 20FA7A69 		.word	1769667104
 1874 11d8 0150877F 		.word	2139574273
 1875 11dc 42DCD920 		.word	551148610
 1876 11e0 557FEB30 		.word	820739925
 1877 11e4 0138877F 		.word	2139568129
 1878 11e8 72E4A852 		.word	1386800242
 1879 11ec ADF9281C 		.word	472447405
 1880 11f0 01F0867F 		.word	2139549697
 1881 11f4 82FE8030 		.word	813760130
 1882 11f8 536C2E54 		.word	1412328531
 1883 11fc 01C0867F 		.word	2139537409
 1884 1200 F44F4760 		.word	1615286260
 1885 1204 23EEEC5F 		.word	1609362979
 1886 1208 01D0857F 		.word	2139475969
 1887 120c C36A9E50 		.word	1352559299
 1888 1210 25E62165 		.word	1696720421
 1889 1214 0180857F 		.word	2139455489
 1890 1218 C1C3813E 		.word	1048691649
 1891 121c E831785E 		.word	1584935400
 1892 1220 0128857F 		.word	2139432961
 1893 1224 F5BDD431 		.word	836025845
 1894 1228 BEB2A138 		.word	950121150
 1895 122c 0108857F 		.word	2139424769
 1896 1230 CD7BE15C 		.word	1558281165
 1897 1234 8A8C7B61 		.word	1635486858
 1898 1238 01C0847F 		.word	2139406337
 1899 123c DF520567 		.word	1728402143
 1900 1240 05ACCD63 		.word	1674423301
 1901 1244 0198847F 		.word	2139396097
 1902 1248 C6D9FA66 		.word	1727715782
 1903 124c D0F66B58 		.word	1483470544
 1904 1250 0168847F 		.word	2139383809
 1905 1254 F39E2341 		.word	1092853491
 1906 1258 0C38D067 		.word	1741699084
 1907 125c 0130847F 		.word	2139369473
 1908 1260 436B2C29 		.word	690776899
 1909 1264 759A134A 		.word	1242798709
 1910 1268 01E8837F 		.word	2139351041
 1911 126c 2C7A6D69 		.word	1768782380
 1912 1270 717F677E 		.word	2120712049
 1913 1274 01A8837F 		.word	2139334657
 1914 1278 F7CEB567 		.word	1739968247
 1915 127c 49181255 		.word	1427249225
 1916 1280 01A0837F 		.word	2139332609
 1917 1284 7F3B385C 		.word	1547189119
 1918 1288 62652225 		.word	623011170
 1919 128c 0148837F 		.word	2139310081
 1920 1290 8DF64650 		.word	1346827917
 1921 1294 EE78B15F 		.word	1605466350
 1922 1298 0130837F 		.word	2139303937
 1923 129c 3C580316 		.word	369317948
 1924 12a0 7F456031 		.word	828392831
 1925 12a4 0128837F 		.word	2139301889
 1926 12a8 D713025D 		.word	1560417239
 1927 12ac 03D5936A 		.word	1788073219
 1928 12b0 01E0827F 		.word	2139283457
 1929 12b4 D70EAC4D 		.word	1303121623
 1930 12b8 BE307823 		.word	595079358
 1931 12bc 0158827F 		.word	2139248641
 1932 12c0 96DFBC50 		.word	1354555286
 1933 12c4 31C22D22 		.word	573424177
 1934 12c8 0138827F 		.word	2139240449
 1935 12cc E863A203 		.word	60974056
 1936 12d0 9BF3CB34 		.word	885781403
 1937 12d4 01F0817F 		.word	2139222017
 1938 12d8 AD9E3115 		.word	355573421
 1939 12dc 77D1C748 		.word	1221054839
 1940 12e0 01D8817F 		.word	2139215873
 1941 12e4 02C4C321 		.word	566477826
 1942 12e8 6440C266 		.word	1724006500
 1943 12ec 01D8807F 		.word	2139150337
 1944 12f0 6915F133 		.word	871437673
 1945 12f4 EE6CE95F 		.word	1609133294
 1946 12f8 01C0807F 		.word	2139144193
 1947 12fc E27C1A58 		.word	1478130914
 1948 1300 C1BFCC43 		.word	1137491905
 1949 1304 0158807F 		.word	2139117569
 1950 1308 9A3C8F6E 		.word	1854880922
 1951 130c BB968039 		.word	964728507
 1952 1310 01B87F7F 		.word	2139076609
 1953 1314 D775100C 		.word	202405335
 1954 1318 1069172D 		.word	756508944
 1955 131c 01807F7F 		.word	2139062273
 1956 1320 9DF76D53 		.word	1399715741
 1957 1324 CB5FBD34 		.word	884826059
 1958 1328 01407F7F 		.word	2139045889
 1959 132c A6AFA53E 		.word	1051045798
 1960 1330 B492A947 		.word	1202295476
 1961 1334 01107F7F 		.word	2139033601
 1962 1338 86AAC965 		.word	1707715206
 1963 133c 8A22AF25 		.word	632234634
 1964 1340 01A87E7F 		.word	2139006977
 1965 1344 53A75879 		.word	2035853139
 1966 1348 C257CE0D 		.word	231626690
 1967 134c 01D07D7F 		.word	2138951681
 1968 1350 E499F50A 		.word	183867876
 1969 1354 1F38F831 		.word	838350879
 1970 1358 01B87D7F 		.word	2138945537
 1971 135c 85F7A353 		.word	1403254661
 1972 1360 AA921B18 		.word	404460202
 1973 1364 01587D7F 		.word	2138920961
 1974 1368 736C8712 		.word	310865011
 1975 136c C1AD774C 		.word	1282911681
 1976 1370 01307D7F 		.word	2138910721
 1977 1374 A93F2F4F 		.word	1328496553
 1978 1378 1FDD2A06 		.word	103472415
 1979 137c 01187D7F 		.word	2138904577
 1980 1380 41E0B204 		.word	78831681
 1981 1384 4DD0373B 		.word	993513549
 1982 1388 01107D7F 		.word	2138902529
 1983 138c 2BFCA84E 		.word	1319697451
 1984 1390 69D2EF3E 		.word	1055904361
 1985 1394 01C07B7F 		.word	2138816513
 1986 1398 B88BE816 		.word	384338872
 1987 139c 6595B265 		.word	1706202469
 1988 13a0 01A87B7F 		.word	2138810369
 1989 13a4 B3C6A940 		.word	1084868275
 1990 13a8 79242E18 		.word	405677177
 1991 13ac 01507B7F 		.word	2138787841
 1992 13b0 5C8CE917 		.word	401181788
 1993 13b4 0D121C75 		.word	1964773901
 1994 13b8 01207B7F 		.word	2138775553
 1995 13bc 7CE44C6E 		.word	1850532988
 1996 13c0 710B554A 		.word	1247087473
 1997 13c4 01007B7F 		.word	2138767361
 1998 13c8 8D2D1C34 		.word	874261901
 1999 13cc 5DF9F05D 		.word	1576073565
 2000 13d0 01D87A7F 		.word	2138757121
 2001 13d4 366DC746 		.word	1187474742
 2002 13d8 273D383B 		.word	993541415
 2003 13dc 01B87A7F 		.word	2138748929
 2004 13e0 082A3E6A 		.word	1782458888
 2005 13e4 53112E3E 		.word	1043206483
 2006 13e8 01A87A7F 		.word	2138744833
 2007 13ec 479ECE48 		.word	1221500487
 2008 13f0 BB2FB12F 		.word	800141243
 2009 13f4 01907A7F 		.word	2138738689
 2010 13f8 18FBA418 		.word	413465368
 2011 13fc CE527756 		.word	1450660558
 2012 1400 01E8797F 		.word	2138695681
 2013 1404 14EF0C2C 		.word	739045140
 2014 1408 10D66B14 		.word	342611472
 2015 140c 0158797F 		.word	2138658817
 2016 1410 7C90D050 		.word	1355845756
 2017 1414 8E311828 		.word	672674190
 2018 1418 0120797F 		.word	2138644481
 2019 141c 1A214324 		.word	608379162
 2020 1420 0C5CB95B 		.word	1538874380
 2021 1424 01F0787F 		.word	2138632193
 2022 1428 72A31F56 		.word	1444914034
 2023 142c 166FF128 		.word	686911254
 2024 1430 0190787F 		.word	2138607617
 2025 1434 EA0DE41C 		.word	484707818
 2026 1438 F6878A55 		.word	1435142134
 2027 143c 0150787F 		.word	2138591233
 2028 1440 3D842720 		.word	539460669
 2029 1444 B5D5EA4C 		.word	1290458549
 2030 1448 0108787F 		.word	2138572801
 2031 144c AEDEC87C 		.word	2093538990
 2032 1450 568ADF77 		.word	2011138646
 2033 1454 01B8777F 		.word	2138552321
 2034 1458 6C5B8844 		.word	1149786988
 2035 145c BBC92840 		.word	1076414907
 2036 1460 01A0777F 		.word	2138546177
 2037 1464 4EE21B32 		.word	840688206
 2038 1468 B98FB47D 		.word	2108985273
 2039 146c 0170777F 		.word	2138533889
 2040 1470 F34D7F0C 		.word	209669619
 2041 1474 FDDECF0B 		.word	198172413
 2042 1478 0148777F 		.word	2138523649
 2043 147c 0287C575 		.word	1975879426
 2044 1480 C0881D4C 		.word	1277003968
 2045 1484 01C8767F 		.word	2138490881
 2046 1488 C8389450 		.word	1351891144
 2047 148c FD75D475 		.word	1976858109
 2048 1490 0150767F 		.word	2138460161
 2049 1494 351E526C 		.word	1817321013
 2050 1498 D563F975 		.word	1979278293
 2051 149c 01D8757F 		.word	2138429441
 2052 14a0 F9D03B74 		.word	1950077177
 2053 14a4 0847200C 		.word	203441928
 2054 14a8 0168757F 		.word	2138400769
 2055 14ac 81C82D36 		.word	908970113
 2056 14b0 3D8C7425 		.word	628395069
 2057 14b4 0160757F 		.word	2138398721
 2058 14b8 B0441B0D 		.word	219890864
 2059 14bc E896352D 		.word	758486760
 2060 14c0 0108757F 		.word	2138376193
 2061 14c4 ABF6E14D 		.word	1306654379
 2062 14c8 AA4A443A 		.word	977554090
 2063 14cc 01A8747F 		.word	2138351617
 2064 14d0 62ABCF11 		.word	298822498
 2065 14d4 976C7D77 		.word	2004708503
 2066 14d8 0170747F 		.word	2138337281
 2067 14dc 981C501A 		.word	441457816
 2068 14e0 7C80863E 		.word	1049002108
 2069 14e4 0130747F 		.word	2138320897
 2070 14e8 8CBF765A 		.word	1517731724
 2071 14ec A949F755 		.word	1442269609
 2072 14f0 01B8737F 		.word	2138290177
 2073 14f4 1D90D150 		.word	1355911197
 2074 14f8 1F592D62 		.word	1647139103
 2075 14fc 01E0727F 		.word	2138234881
 2076 1500 5F32AB1F 		.word	531313247
 2077 1504 DAE01A68 		.word	1746591962
 2078 1508 0190727F 		.word	2138214401
 2079 150c F2B53671 		.word	1899410930
 2080 1510 FC77932E 		.word	781416444
 2081 1514 0160727F 		.word	2138202113
 2082 1518 3577176C 		.word	1813477173
 2083 151c E383B560 		.word	1622508515
 2084 1520 0138727F 		.word	2138191873
 2085 1524 BB09C240 		.word	1086458299
 2086 1528 677E1E3D 		.word	1025408615
 2087 152c 0118727F 		.word	2138183681
 2088 1530 2B462377 		.word	1998800427
 2089 1534 FAFB4B31 		.word	827063290
 2090 1538 01F0717F 		.word	2138173441
 2091 153c E2D88472 		.word	1921308898
 2092 1540 E50EAF2C 		.word	749670117
 2093 1544 01E0707F 		.word	2138103809
 2094 1548 94039D60 		.word	1620902804
 2095 154c 3F34C47E 		.word	2126787647
 2096 1550 01D0707F 		.word	2138099713
 2097 1554 9D266431 		.word	828647069
 2098 1558 194ED470 		.word	1892961817
 2099 155c 0198707F 		.word	2138085377
 2100 1560 2B82B10A 		.word	179405355
 2101 1564 E761ED5A 		.word	1525506535
 2102 1568 0138707F 		.word	2138060801
 2103 156c A394B224 		.word	615683235
 2104 1570 EAAA134B 		.word	1259580138
 2105 1574 01F86F7F 		.word	2138044417
 2106 1578 D0940379 		.word	2030277840
 2107 157c 02083167 		.word	1731266562
 2108 1580 01F06F7F 		.word	2138042369
 2109 1584 2C7C687C 		.word	2087222316
 2110 1588 33D10761 		.word	1627902259
 2111 158c 01C86F7F 		.word	2138032129
 2112 1590 E8898807 		.word	126388712
 2113 1594 D8841442 		.word	1108640984
 2114 1598 01786F7F 		.word	2138011649
 2115 159c 76709E2A 		.word	715026550
 2116 15a0 9224AD3C 		.word	1017980050
 2117 15a4 01306F7F 		.word	2137993217
 2118 15a8 AD07F464 		.word	1693714349
 2119 15ac 90819250 		.word	1351778704
 2120 15b0 01986D7F 		.word	2137888769
 2121 15b4 D335E04C 		.word	1289762259
 2122 15b8 65E2C43E 		.word	1053090405
 2123 15bc 01106D7F 		.word	2137853953
 2124 15c0 52A2EB0B 		.word	199991890
 2125 15c4 9576C14A 		.word	1254192789
 2126 15c8 01C06C7F 		.word	2137833473
 2127 15cc 75F41C38 		.word	941421685
 2128 15d0 E4107735 		.word	896995556
 2129 15d4 01806C7F 		.word	2137817089
 2130 15d8 3E72BA2C 		.word	750416446
 2131 15dc 8D38914A 		.word	1251031181
 2132 15e0 01206C7F 		.word	2137792513
 2133 15e4 EFA8912F 		.word	798075119
 2134 15e8 906AF015 		.word	368077456
 2135 15ec 01086C7F 		.word	2137786369
 2136 15f0 87825D34 		.word	878543495
 2137 15f4 B191B63D 		.word	1035375025
 2138 15f8 01C06B7F 		.word	2137767937
 2139 15fc 0AB08E00 		.word	9351178
 2140 1600 BEC3EF44 		.word	1156563902
 2141 1604 01906B7F 		.word	2137755649
 2142 1608 0E306452 		.word	1382297614
 2143 160c 5FDB8664 		.word	1686559583
 2144 1610 01186B7F 		.word	2137724929
 2145 1614 52493250 		.word	1345472850
 2146 1618 8B7E3364 		.word	1681096331
 2147 161c 01C86A7F 		.word	2137704449
 2148 1620 B101C031 		.word	834666929
 2149 1624 AF749525 		.word	630551727
 2150 1628 01506A7F 		.word	2137673729
 2151 162c E17E1E62 		.word	1646165729
 2152 1630 B306C770 		.word	1892091571
 2153 1634 0180697F 		.word	2137620481
 2154 1638 4DBD6D2E 		.word	778943821
 2155 163c 0D63E302 		.word	48456461
 2156 1640 0178697F 		.word	2137618433
 2157 1644 737D2A67 		.word	1730837875
 2158 1648 95711F66 		.word	1713336725
 2159 164c 01E8687F 		.word	2137581569
 2160 1650 63A30430 		.word	805610339
 2161 1654 5F363052 		.word	1378891359
 2162 1658 0140687F 		.word	2137538561
 2163 165c 74042E0C 		.word	204342388
 2164 1660 E4283D74 		.word	1950165220
 2165 1664 0110687F 		.word	2137526273
 2166 1668 BA781674 		.word	1947629754
 2167 166c C13A7459 		.word	1500789441
 2168 1670 01E8677F 		.word	2137516033
 2169 1674 B5D7E82A 		.word	719902645
 2170 1678 FCF06059 		.word	1499525372
 2171 167c 0188677F 		.word	2137491457
 2172 1680 3D68BC0D 		.word	230451261
 2173 1684 6DBA2921 		.word	556382829
 2174 1688 01C0667F 		.word	2137440257
 2175 168c 251B633A 		.word	979573541
 2176 1690 E3389A18 		.word	412760291
 2177 1694 01C0657F 		.word	2137374721
 2178 1698 E0BB4D37 		.word	927841248
 2179 169c 61C47974 		.word	1954137185
 2180 16a0 0190657F 		.word	2137362433
 2181 16a4 FF8D224A 		.word	1243778559
 2182 16a8 A0315233 		.word	861024672
 2183 16ac 01D0647F 		.word	2137313281
 2184 16b0 8533F34F 		.word	1341338501
 2185 16b4 B25A733A 		.word	980638386
 2186 16b8 01C8647F 		.word	2137311233
 2187 16bc 0ED2DF37 		.word	937415182
 2188 16c0 D53EE26A 		.word	1793212117
 2189 16c4 01F0637F 		.word	2137255937
 2190 16c8 FCCA672F 		.word	795331324
 2191 16cc 5DC20E54 		.word	1410253405
 2192 16d0 01C0637F 		.word	2137243649
 2193 16d4 F35BFC08 		.word	150756339
 2194 16d8 4F093E75 		.word	1966999887
 2195 16dc 01D0627F 		.word	2137182209
 2196 16e0 E279BC09 		.word	163346914
 2197 16e4 37649773 		.word	1939301431
 2198 16e8 01A8627F 		.word	2137171969
 2199 16ec CB956174 		.word	1952552395
 2200 16f0 75183C2D 		.word	758913141
 2201 16f4 0178627F 		.word	2137159681
 2202 16f8 718B0522 		.word	570788721
 2203 16fc 7A9E080D 		.word	218668666
 2204 1700 0148627F 		.word	2137147393
 2205 1704 AAAF0C71 		.word	1896656810
 2206 1708 C973EE79 		.word	2045670345
 2207 170c 0130627F 		.word	2137141249
 2208 1710 922E5E15 		.word	358493842
 2209 1714 5B19E31E 		.word	518199643
 2210 1718 0128627F 		.word	2137139201
 2211 171c 35D4B459 		.word	1505023029
 2212 1720 A80A3728 		.word	674695848
 2213 1724 0110627F 		.word	2137133057
 2214 1728 BFE3A901 		.word	27911103
 2215 172c 12638731 		.word	830956306
 2216 1730 01E8617F 		.word	2137122817
 2217 1734 C960361A 		.word	439771337
 2218 1738 0684B35C 		.word	1555268614
 2219 173c 01D0617F 		.word	2137116673
 2220 1740 2387252F 		.word	790988579
 2221 1744 FF0D8C6F 		.word	1871449599
 2222 1748 01B8617F 		.word	2137110529
 2223 174c B276C119 		.word	432109234
 2224 1750 98296330 		.word	811805080
 2225 1754 0198617F 		.word	2137102337
 2226 1758 6DEBEF50 		.word	1357900653
 2227 175c 09A1A146 		.word	1184997641
 2228 1760 0188617F 		.word	2137098241
 2229 1764 BB17B41E 		.word	515119035
 2230 1768 27664366 		.word	1715693095
 2231 176c 0168617F 		.word	2137090049
 2232 1770 E35C5A18 		.word	408575203
 2233 1774 F1A7507C 		.word	2085660657
 2234 1778 0158617F 		.word	2137085953
 2235 177c 7FC9097D 		.word	2097793407
 2236 1780 53AC7150 		.word	1349626963
 2237 1784 01E0607F 		.word	2137055233
 2238 1788 72F7C95C 		.word	1556739954
 2239 178c B3A56C56 		.word	1449960883
 2240 1790 0180607F 		.word	2137030657
 2241 1794 BA67225C 		.word	1545758650
 2242 1798 A4EA9D51 		.word	1369303716
 2243 179c 01D85F7F 		.word	2136987649
 2244 17a0 CA1CD313 		.word	332602570
 2245 17a4 2A023106 		.word	103875114
 2246 17a8 01905F7F 		.word	2136969217
 2247 17ac 02066859 		.word	1499989506
 2248 17b0 93D11E63 		.word	1662964115
 2249 17b4 01E05E7F 		.word	2136924161
 2250 17b8 71671533 		.word	857040753
 2251 17bc 1A4F4800 		.word	4738842
 2252 17c0 01705E7F 		.word	2136895489
 2253 17c4 08702974 		.word	1948872712
 2254 17c8 FB290022 		.word	570436091
 2255 17cc 01685E7F 		.word	2136893441
 2256 17d0 68CF8303 		.word	58969960
 2257 17d4 C21D7B5D 		.word	1568349634
 2258 17d8 01505E7F 		.word	2136887297
 2259 17dc 2365CA7E 		.word	2127193379
 2260 17e0 04FF4E10 		.word	273612548
 2261 17e4 01C05D7F 		.word	2136850433
 2262 17e8 17EAA006 		.word	111208983
 2263 17ec 9C8D6846 		.word	1181257116
 2264 17f0 01205D7F 		.word	2136809473
 2265 17f4 A642FE60 		.word	1627275942
 2266 17f8 139E2764 		.word	1680317971
 2267 17fc 01705C7F 		.word	2136764417
 2268 1800 19E3DE5D 		.word	1574888217
 2269 1804 C3CBD500 		.word	14011331
 2270 1808 01185C7F 		.word	2136741889
 2271 180c AFCAD500 		.word	14011055
 2272 1810 CB864D43 		.word	1129154251
 2273 1814 01E05B7F 		.word	2136727553
 2274 1818 23382302 		.word	35862563
 2275 181c 7520966D 		.word	1838555253
 2276 1820 01C85B7F 		.word	2136721409
 2277 1824 12D27D12 		.word	310235666
 2278 1828 B4E44B51 		.word	1363928244
 2279 182c 01705B7F 		.word	2136698881
 2280 1830 92B71B60 		.word	1612429202
 2281 1834 5491015D 		.word	1560383828
 2282 1838 01B05A7F 		.word	2136649729
 2283 183c 63BEDC43 		.word	1138540131
 2284 1840 1C40AF2F 		.word	800014364
 2285 1844 01085A7F 		.word	2136606721
 2286 1848 2FBAE623 		.word	602323503
 2287 184c CC516B55 		.word	1433096652
 2288 1850 0160597F 		.word	2136563713
 2289 1854 F14ADC0A 		.word	182209265
 2290 1858 9EF06A72 		.word	1919611038
 2291 185c 0140597F 		.word	2136555521
 2292 1860 3D3C5213 		.word	324156477
 2293 1864 FFB7DE09 		.word	165591039
 2294 1868 0128597F 		.word	2136549377
 2295 186c 194BA70B 		.word	195513113
 2296 1870 21AEF10C 		.word	217165345
 2297 1874 01D0587F 		.word	2136526849
 2298 1878 AE72A13E 		.word	1050768046
 2299 187c 8FE30138 		.word	939647887
 2300 1880 0188587F 		.word	2136508417
 2301 1884 9D716E70 		.word	1886286237
 2302 1888 2C1E8E60 		.word	1619926572
 2303 188c 0110587F 		.word	2136477697
 2304 1890 307C5624 		.word	609647664
 2305 1894 450D1702 		.word	35065157
 2306 1898 01F8577F 		.word	2136471553
 2307 189c 98177E28 		.word	679352216
 2308 18a0 8CB88F56 		.word	1452259468
 2309 18a4 01C0577F 		.word	2136457217
 2310 18a8 0FBDAA07 		.word	128630031
 2311 18ac 89B32931 		.word	824816521
 2312 18b0 0138577F 		.word	2136422401
 2313 18b4 C8EE2D01 		.word	19787464
 2314 18b8 26ACF55A 		.word	1526049830
 2315 18bc 0130577F 		.word	2136420353
 2316 18c0 24789F29 		.word	698316836
 2317 18c4 27763B5B 		.word	1530623527
 2318 18c8 0170567F 		.word	2136371201
 2319 18cc 656B7562 		.word	1651862373
 2320 18d0 0542936B 		.word	1804812805
 2321 18d4 01E0557F 		.word	2136334337
 2322 18d8 A5757713 		.word	326596005
 2323 18dc BADC1514 		.word	336977082
 2324 18e0 01B0557F 		.word	2136322049
 2325 18e4 7A2BC503 		.word	63253370
 2326 18e8 77918B71 		.word	1904972151
 2327 18ec 0150557F 		.word	2136297473
 2328 18f0 CC6D9B12 		.word	312176076
 2329 18f4 8B4B430A 		.word	172182411
 2330 18f8 0190547F 		.word	2136248321
 2331 18fc 1198B916 		.word	381261841
 2332 1900 DEFDFE15 		.word	369032670
 2333 1904 0178547F 		.word	2136242177
 2334 1908 05286115 		.word	358688773
 2335 190c 3A89C061 		.word	1640007994
 2336 1910 0148547F 		.word	2136229889
 2337 1914 44D58E1E 		.word	512677188
 2338 1918 C9568104 		.word	75585225
 2339 191c 0120547F 		.word	2136219649
 2340 1920 7236DF7C 		.word	2095003250
 2341 1924 05216D75 		.word	1970086149
 2342 1928 01F0537F 		.word	2136207361
 2343 192c 22F5D271 		.word	1909650722
 2344 1930 A3930D20 		.word	537760675
 2345 1934 0178537F 		.word	2136176641
 2346 1938 83A08C4F 		.word	1334616195
 2347 193c 032A675B 		.word	1533487619
 2348 1940 0130537F 		.word	2136158209
 2349 1944 C0C7F27C 		.word	2096285632
 2350 1948 5A5CE36A 		.word	1793285210
 2351 194c 01F8527F 		.word	2136143873
 2352 1950 BD391771 		.word	1897347517
 2353 1954 F7B38311 		.word	293843959
 2354 1958 01D0527F 		.word	2136133633
 2355 195c AECE0C37 		.word	923586222
 2356 1960 EA7DF43C 		.word	1022655978
 2357 1964 0140527F 		.word	2136096769
 2358 1968 5F1D5057 		.word	1464868191
 2359 196c 6A334E5A 		.word	1515074410
 2360 1970 0138527F 		.word	2136094721
 2361 1974 601F7178 		.word	2020679520
 2362 1978 0812E27A 		.word	2061636104
 2363 197c 01F0517F 		.word	2136076289
 2364 1980 A73B5511 		.word	290798503
 2365 1984 99882A6C 		.word	1814726809
 2366 1988 0168517F 		.word	2136041473
 2367 198c 96B75209 		.word	156415894
 2368 1990 010C8D4A 		.word	1250757633
 2369 1994 01B8507F 		.word	2135996417
 2370 1998 E4E0BA11 		.word	297459940
 2371 199c CC5F7B43 		.word	1132158924
 2372 19a0 0118507F 		.word	2135955457
 2373 19a4 E8C01C20 		.word	538755304
 2374 19a8 6C85A964 		.word	1688831340
 2375 19ac 00000000 		.word	0
 2376 19b0 00000000 		.word	0
 2377 19b4 00000000 		.word	0
 2378              		.section	.text.modp_set,"ax",%progbits
 2379              		.align	1
 2380              		.syntax unified
 2381              		.thumb
 2382              		.thumb_func
 2383              		.fpu softvfp
 2385              	modp_set:
 2386              	.LFB18:
 2387              		.file 2 "keygen.c"
   1:keygen.c      **** /*
   2:keygen.c      ****  * Falcon key pair generation.
   3:keygen.c      ****  *
   4:keygen.c      ****  * ==========================(LICENSE BEGIN)============================
   5:keygen.c      ****  *
   6:keygen.c      ****  * Copyright (c) 2017-2019  Falcon Project
   7:keygen.c      ****  *
   8:keygen.c      ****  * Permission is hereby granted, free of charge, to any person obtaining
   9:keygen.c      ****  * a copy of this software and associated documentation files (the
  10:keygen.c      ****  * "Software"), to deal in the Software without restriction, including
  11:keygen.c      ****  * without limitation the rights to use, copy, modify, merge, publish,
  12:keygen.c      ****  * distribute, sublicense, and/or sell copies of the Software, and to
  13:keygen.c      ****  * permit persons to whom the Software is furnished to do so, subject to
  14:keygen.c      ****  * the following conditions:
  15:keygen.c      ****  *
  16:keygen.c      ****  * The above copyright notice and this permission notice shall be
  17:keygen.c      ****  * included in all copies or substantial portions of the Software.
  18:keygen.c      ****  *
  19:keygen.c      ****  * THE SOFTWARE IS PROVIDED "AS IS", WITHOUT WARRANTY OF ANY KIND,
  20:keygen.c      ****  * EXPRESS OR IMPLIED, INCLUDING BUT NOT LIMITED TO THE WARRANTIES OF
  21:keygen.c      ****  * MERCHANTABILITY, FITNESS FOR A PARTICULAR PURPOSE AND NONINFRINGEMENT.
  22:keygen.c      ****  * IN NO EVENT SHALL THE AUTHORS OR COPYRIGHT HOLDERS BE LIABLE FOR ANY
  23:keygen.c      ****  * CLAIM, DAMAGES OR OTHER LIABILITY, WHETHER IN AN ACTION OF CONTRACT,
  24:keygen.c      ****  * TORT OR OTHERWISE, ARISING FROM, OUT OF OR IN CONNECTION WITH THE
  25:keygen.c      ****  * SOFTWARE OR THE USE OR OTHER DEALINGS IN THE SOFTWARE.
  26:keygen.c      ****  *
  27:keygen.c      ****  * ===========================(LICENSE END)=============================
  28:keygen.c      ****  *
  29:keygen.c      ****  * @author   Thomas Pornin <thomas.pornin@nccgroup.com>
  30:keygen.c      ****  */
  31:keygen.c      **** 
  32:keygen.c      **** #include "inner.h"
  33:keygen.c      **** 
  34:keygen.c      **** #define MKN(logn)   ((size_t)1 << (logn))
  35:keygen.c      **** 
  36:keygen.c      **** /* ==================================================================== */
  37:keygen.c      **** /*
  38:keygen.c      ****  * Modular arithmetics.
  39:keygen.c      ****  *
  40:keygen.c      ****  * We implement a few functions for computing modulo a small integer p.
  41:keygen.c      ****  *
  42:keygen.c      ****  * All functions require that 2^30 < p < 2^31. Moreover, operands must
  43:keygen.c      ****  * be in the 0..p-1 range.
  44:keygen.c      ****  *
  45:keygen.c      ****  * Modular addition and subtraction work for all such p.
  46:keygen.c      ****  *
  47:keygen.c      ****  * Montgomery multiplication requires that p is odd, and must be provided
  48:keygen.c      ****  * with an additional value p0i = -1/p mod 2^31. See below for some basics
  49:keygen.c      ****  * on Montgomery multiplication.
  50:keygen.c      ****  *
  51:keygen.c      ****  * Division computes an inverse modulo p by an exponentiation (with
  52:keygen.c      ****  * exponent p-2): this works only if p is prime. Multiplication
  53:keygen.c      ****  * requirements also apply, i.e. p must be odd and p0i must be provided.
  54:keygen.c      ****  *
  55:keygen.c      ****  * The NTT and inverse NTT need all of the above, and also that
  56:keygen.c      ****  * p = 1 mod 2048.
  57:keygen.c      ****  *
  58:keygen.c      ****  * -----------------------------------------------------------------------
  59:keygen.c      ****  *
  60:keygen.c      ****  * We use Montgomery representation with 31-bit values:
  61:keygen.c      ****  *
  62:keygen.c      ****  *   Let R = 2^31 mod p. When 2^30 < p < 2^31, R = 2^31 - p.
  63:keygen.c      ****  *   Montgomery representation of an integer x modulo p is x*R mod p.
  64:keygen.c      ****  *
  65:keygen.c      ****  *   Montgomery multiplication computes (x*y)/R mod p for
  66:keygen.c      ****  *   operands x and y. Therefore:
  67:keygen.c      ****  *
  68:keygen.c      ****  *    - if operands are x*R and y*R (Montgomery representations of x and
  69:keygen.c      ****  *      y), then Montgomery multiplication computes (x*R*y*R)/R = (x*y)*R
  70:keygen.c      ****  *      mod p, which is the Montgomery representation of the product x*y;
  71:keygen.c      ****  *
  72:keygen.c      ****  *    - if operands are x*R and y (or x and y*R), then Montgomery
  73:keygen.c      ****  *      multiplication returns x*y mod p: mixed-representation
  74:keygen.c      ****  *      multiplications yield results in normal representation.
  75:keygen.c      ****  *
  76:keygen.c      ****  * To convert to Montgomery representation, we multiply by R, which is done
  77:keygen.c      ****  * by Montgomery-multiplying by R^2. Stand-alone conversion back from
  78:keygen.c      ****  * Montgomery representation is Montgomery-multiplication by 1.
  79:keygen.c      ****  */
  80:keygen.c      **** 
  81:keygen.c      **** /*
  82:keygen.c      ****  * Precomputed small primes. Each element contains the following:
  83:keygen.c      ****  *
  84:keygen.c      ****  *  p   The prime itself.
  85:keygen.c      ****  *
  86:keygen.c      ****  *  g   A primitive root of phi = X^N+1 (in field Z_p).
  87:keygen.c      ****  *
  88:keygen.c      ****  *  s   The inverse of the product of all previous primes in the array,
  89:keygen.c      ****  *      computed modulo p and in Montgomery representation.
  90:keygen.c      ****  *
  91:keygen.c      ****  * All primes are such that p = 1 mod 2048, and are lower than 2^31. They
  92:keygen.c      ****  * are listed in decreasing order.
  93:keygen.c      ****  */
  94:keygen.c      **** 
  95:keygen.c      **** typedef struct {
  96:keygen.c      **** 	uint32_t p;
  97:keygen.c      **** 	uint32_t g;
  98:keygen.c      **** 	uint32_t s;
  99:keygen.c      **** } small_prime;
 100:keygen.c      **** 
 101:keygen.c      **** static const small_prime PRIMES[] = {
 102:keygen.c      **** 	{ 2147473409,  383167813,      10239 },
 103:keygen.c      **** 	{ 2147389441,  211808905,  471403745 },
 104:keygen.c      **** 	{ 2147387393,   37672282, 1329335065 },
 105:keygen.c      **** 	{ 2147377153, 1977035326,  968223422 },
 106:keygen.c      **** 	{ 2147358721, 1067163706,  132460015 },
 107:keygen.c      **** 	{ 2147352577, 1606082042,  598693809 },
 108:keygen.c      **** 	{ 2147346433, 2033915641, 1056257184 },
 109:keygen.c      **** 	{ 2147338241, 1653770625,  421286710 },
 110:keygen.c      **** 	{ 2147309569,  631200819, 1111201074 },
 111:keygen.c      **** 	{ 2147297281, 2038364663, 1042003613 },
 112:keygen.c      **** 	{ 2147295233, 1962540515,   19440033 },
 113:keygen.c      **** 	{ 2147239937, 2100082663,  353296760 },
 114:keygen.c      **** 	{ 2147235841, 1991153006, 1703918027 },
 115:keygen.c      **** 	{ 2147217409,  516405114, 1258919613 },
 116:keygen.c      **** 	{ 2147205121,  409347988, 1089726929 },
 117:keygen.c      **** 	{ 2147196929,  927788991, 1946238668 },
 118:keygen.c      **** 	{ 2147178497, 1136922411, 1347028164 },
 119:keygen.c      **** 	{ 2147100673,  868626236,  701164723 },
 120:keygen.c      **** 	{ 2147082241, 1897279176,  617820870 },
 121:keygen.c      **** 	{ 2147074049, 1888819123,  158382189 },
 122:keygen.c      **** 	{ 2147051521,   25006327,  522758543 },
 123:keygen.c      **** 	{ 2147043329,  327546255,   37227845 },
 124:keygen.c      **** 	{ 2147039233,  766324424, 1133356428 },
 125:keygen.c      **** 	{ 2146988033, 1862817362,   73861329 },
 126:keygen.c      **** 	{ 2146963457,  404622040,  653019435 },
 127:keygen.c      **** 	{ 2146959361, 1936581214,  995143093 },
 128:keygen.c      **** 	{ 2146938881, 1559770096,  634921513 },
 129:keygen.c      **** 	{ 2146908161,  422623708, 1985060172 },
 130:keygen.c      **** 	{ 2146885633, 1751189170,  298238186 },
 131:keygen.c      **** 	{ 2146871297,  578919515,  291810829 },
 132:keygen.c      **** 	{ 2146846721, 1114060353,  915902322 },
 133:keygen.c      **** 	{ 2146834433, 2069565474,   47859524 },
 134:keygen.c      **** 	{ 2146818049, 1552824584,  646281055 },
 135:keygen.c      **** 	{ 2146775041, 1906267847, 1597832891 },
 136:keygen.c      **** 	{ 2146756609, 1847414714, 1228090888 },
 137:keygen.c      **** 	{ 2146744321, 1818792070, 1176377637 },
 138:keygen.c      **** 	{ 2146738177, 1118066398, 1054971214 },
 139:keygen.c      **** 	{ 2146736129,   52057278,  933422153 },
 140:keygen.c      **** 	{ 2146713601,  592259376, 1406621510 },
 141:keygen.c      **** 	{ 2146695169,  263161877, 1514178701 },
 142:keygen.c      **** 	{ 2146656257,  685363115,  384505091 },
 143:keygen.c      **** 	{ 2146650113,  927727032,  537575289 },
 144:keygen.c      **** 	{ 2146646017,   52575506, 1799464037 },
 145:keygen.c      **** 	{ 2146643969, 1276803876, 1348954416 },
 146:keygen.c      **** 	{ 2146603009,  814028633, 1521547704 },
 147:keygen.c      **** 	{ 2146572289, 1846678872, 1310832121 },
 148:keygen.c      **** 	{ 2146547713,  919368090, 1019041349 },
 149:keygen.c      **** 	{ 2146508801,  671847612,   38582496 },
 150:keygen.c      **** 	{ 2146492417,  283911680,  532424562 },
 151:keygen.c      **** 	{ 2146490369, 1780044827,  896447978 },
 152:keygen.c      **** 	{ 2146459649,  327980850, 1327906900 },
 153:keygen.c      **** 	{ 2146447361, 1310561493,  958645253 },
 154:keygen.c      **** 	{ 2146441217,  412148926,  287271128 },
 155:keygen.c      **** 	{ 2146437121,  293186449, 2009822534 },
 156:keygen.c      **** 	{ 2146430977,  179034356, 1359155584 },
 157:keygen.c      **** 	{ 2146418689, 1517345488, 1790248672 },
 158:keygen.c      **** 	{ 2146406401, 1615820390, 1584833571 },
 159:keygen.c      **** 	{ 2146404353,  826651445,  607120498 },
 160:keygen.c      **** 	{ 2146379777,    3816988, 1897049071 },
 161:keygen.c      **** 	{ 2146363393, 1221409784, 1986921567 },
 162:keygen.c      **** 	{ 2146355201, 1388081168,  849968120 },
 163:keygen.c      **** 	{ 2146336769, 1803473237, 1655544036 },
 164:keygen.c      **** 	{ 2146312193, 1023484977,  273671831 },
 165:keygen.c      **** 	{ 2146293761, 1074591448,  467406983 },
 166:keygen.c      **** 	{ 2146283521,  831604668, 1523950494 },
 167:keygen.c      **** 	{ 2146203649,  712865423, 1170834574 },
 168:keygen.c      **** 	{ 2146154497, 1764991362, 1064856763 },
 169:keygen.c      **** 	{ 2146142209,  627386213, 1406840151 },
 170:keygen.c      **** 	{ 2146127873, 1638674429, 2088393537 },
 171:keygen.c      **** 	{ 2146099201, 1516001018,  690673370 },
 172:keygen.c      **** 	{ 2146093057, 1294931393,  315136610 },
 173:keygen.c      **** 	{ 2146091009, 1942399533,  973539425 },
 174:keygen.c      **** 	{ 2146078721, 1843461814, 2132275436 },
 175:keygen.c      **** 	{ 2146060289, 1098740778,  360423481 },
 176:keygen.c      **** 	{ 2146048001, 1617213232, 1951981294 },
 177:keygen.c      **** 	{ 2146041857, 1805783169, 2075683489 },
 178:keygen.c      **** 	{ 2146019329,  272027909, 1753219918 },
 179:keygen.c      **** 	{ 2145986561, 1206530344, 2034028118 },
 180:keygen.c      **** 	{ 2145976321, 1243769360, 1173377644 },
 181:keygen.c      **** 	{ 2145964033,  887200839, 1281344586 },
 182:keygen.c      **** 	{ 2145906689, 1651026455,  906178216 },
 183:keygen.c      **** 	{ 2145875969, 1673238256, 1043521212 },
 184:keygen.c      **** 	{ 2145871873, 1226591210, 1399796492 },
 185:keygen.c      **** 	{ 2145841153, 1465353397, 1324527802 },
 186:keygen.c      **** 	{ 2145832961, 1150638905,  554084759 },
 187:keygen.c      **** 	{ 2145816577,  221601706,  427340863 },
 188:keygen.c      **** 	{ 2145785857,  608896761,  316590738 },
 189:keygen.c      **** 	{ 2145755137, 1712054942, 1684294304 },
 190:keygen.c      **** 	{ 2145742849, 1302302867,  724873116 },
 191:keygen.c      **** 	{ 2145728513,  516717693,  431671476 },
 192:keygen.c      **** 	{ 2145699841,  524575579, 1619722537 },
 193:keygen.c      **** 	{ 2145691649, 1925625239,  982974435 },
 194:keygen.c      **** 	{ 2145687553,  463795662, 1293154300 },
 195:keygen.c      **** 	{ 2145673217,  771716636,  881778029 },
 196:keygen.c      **** 	{ 2145630209, 1509556977,  837364988 },
 197:keygen.c      **** 	{ 2145595393,  229091856,  851648427 },
 198:keygen.c      **** 	{ 2145587201, 1796903241,  635342424 },
 199:keygen.c      **** 	{ 2145525761,  715310882, 1677228081 },
 200:keygen.c      **** 	{ 2145495041, 1040930522,  200685896 },
 201:keygen.c      **** 	{ 2145466369,  949804237, 1809146322 },
 202:keygen.c      **** 	{ 2145445889, 1673903706,   95316881 },
 203:keygen.c      **** 	{ 2145390593,  806941852, 1428671135 },
 204:keygen.c      **** 	{ 2145372161, 1402525292,  159350694 },
 205:keygen.c      **** 	{ 2145361921, 2124760298, 1589134749 },
 206:keygen.c      **** 	{ 2145359873, 1217503067, 1561543010 },
 207:keygen.c      **** 	{ 2145355777,  338341402,   83865711 },
 208:keygen.c      **** 	{ 2145343489, 1381532164,  641430002 },
 209:keygen.c      **** 	{ 2145325057, 1883895478, 1528469895 },
 210:keygen.c      **** 	{ 2145318913, 1335370424,   65809740 },
 211:keygen.c      **** 	{ 2145312769, 2000008042, 1919775760 },
 212:keygen.c      **** 	{ 2145300481,  961450962, 1229540578 },
 213:keygen.c      **** 	{ 2145282049,  910466767, 1964062701 },
 214:keygen.c      **** 	{ 2145232897,  816527501,  450152063 },
 215:keygen.c      **** 	{ 2145218561, 1435128058, 1794509700 },
 216:keygen.c      **** 	{ 2145187841,   33505311, 1272467582 },
 217:keygen.c      **** 	{ 2145181697,  269767433, 1380363849 },
 218:keygen.c      **** 	{ 2145175553,   56386299, 1316870546 },
 219:keygen.c      **** 	{ 2145079297, 2106880293, 1391797340 },
 220:keygen.c      **** 	{ 2145021953, 1347906152,  720510798 },
 221:keygen.c      **** 	{ 2145015809,  206769262, 1651459955 },
 222:keygen.c      **** 	{ 2145003521, 1885513236, 1393381284 },
 223:keygen.c      **** 	{ 2144960513, 1810381315,   31937275 },
 224:keygen.c      **** 	{ 2144944129, 1306487838, 2019419520 },
 225:keygen.c      **** 	{ 2144935937,   37304730, 1841489054 },
 226:keygen.c      **** 	{ 2144894977, 1601434616,  157985831 },
 227:keygen.c      **** 	{ 2144888833,   98749330, 2128592228 },
 228:keygen.c      **** 	{ 2144880641, 1772327002, 2076128344 },
 229:keygen.c      **** 	{ 2144864257, 1404514762, 2029969964 },
 230:keygen.c      **** 	{ 2144827393,  801236594,  406627220 },
 231:keygen.c      **** 	{ 2144806913,  349217443, 1501080290 },
 232:keygen.c      **** 	{ 2144796673, 1542656776, 2084736519 },
 233:keygen.c      **** 	{ 2144778241, 1210734884, 1746416203 },
 234:keygen.c      **** 	{ 2144759809, 1146598851,  716464489 },
 235:keygen.c      **** 	{ 2144757761,  286328400, 1823728177 },
 236:keygen.c      **** 	{ 2144729089, 1347555695, 1836644881 },
 237:keygen.c      **** 	{ 2144727041, 1795703790,  520296412 },
 238:keygen.c      **** 	{ 2144696321, 1302475157,  852964281 },
 239:keygen.c      **** 	{ 2144667649, 1075877614,  504992927 },
 240:keygen.c      **** 	{ 2144573441,  198765808, 1617144982 },
 241:keygen.c      **** 	{ 2144555009,  321528767,  155821259 },
 242:keygen.c      **** 	{ 2144550913,  814139516, 1819937644 },
 243:keygen.c      **** 	{ 2144536577,  571143206,  962942255 },
 244:keygen.c      **** 	{ 2144524289, 1746733766,    2471321 },
 245:keygen.c      **** 	{ 2144512001, 1821415077,  124190939 },
 246:keygen.c      **** 	{ 2144468993,  917871546, 1260072806 },
 247:keygen.c      **** 	{ 2144458753,  378417981, 1569240563 },
 248:keygen.c      **** 	{ 2144421889,  175229668, 1825620763 },
 249:keygen.c      **** 	{ 2144409601, 1699216963,  351648117 },
 250:keygen.c      **** 	{ 2144370689, 1071885991,  958186029 },
 251:keygen.c      **** 	{ 2144348161, 1763151227,  540353574 },
 252:keygen.c      **** 	{ 2144335873, 1060214804,  919598847 },
 253:keygen.c      **** 	{ 2144329729,  663515846, 1448552668 },
 254:keygen.c      **** 	{ 2144327681, 1057776305,  590222840 },
 255:keygen.c      **** 	{ 2144309249, 1705149168, 1459294624 },
 256:keygen.c      **** 	{ 2144296961,  325823721, 1649016934 },
 257:keygen.c      **** 	{ 2144290817,  738775789,  447427206 },
 258:keygen.c      **** 	{ 2144243713,  962347618,  893050215 },
 259:keygen.c      **** 	{ 2144237569, 1655257077,  900860862 },
 260:keygen.c      **** 	{ 2144161793,  242206694, 1567868672 },
 261:keygen.c      **** 	{ 2144155649,  769415308, 1247993134 },
 262:keygen.c      **** 	{ 2144137217,  320492023,  515841070 },
 263:keygen.c      **** 	{ 2144120833, 1639388522,  770877302 },
 264:keygen.c      **** 	{ 2144071681, 1761785233,  964296120 },
 265:keygen.c      **** 	{ 2144065537,  419817825,  204564472 },
 266:keygen.c      **** 	{ 2144028673,  666050597, 2091019760 },
 267:keygen.c      **** 	{ 2144010241, 1413657615, 1518702610 },
 268:keygen.c      **** 	{ 2143952897, 1238327946,  475672271 },
 269:keygen.c      **** 	{ 2143940609,  307063413, 1176750846 },
 270:keygen.c      **** 	{ 2143918081, 2062905559,  786785803 },
 271:keygen.c      **** 	{ 2143899649, 1338112849, 1562292083 },
 272:keygen.c      **** 	{ 2143891457,   68149545,   87166451 },
 273:keygen.c      **** 	{ 2143885313,  921750778,  394460854 },
 274:keygen.c      **** 	{ 2143854593,  719766593,  133877196 },
 275:keygen.c      **** 	{ 2143836161, 1149399850, 1861591875 },
 276:keygen.c      **** 	{ 2143762433, 1848739366, 1335934145 },
 277:keygen.c      **** 	{ 2143756289, 1326674710,  102999236 },
 278:keygen.c      **** 	{ 2143713281,  808061791, 1156900308 },
 279:keygen.c      **** 	{ 2143690753,  388399459, 1926468019 },
 280:keygen.c      **** 	{ 2143670273, 1427891374, 1756689401 },
 281:keygen.c      **** 	{ 2143666177, 1912173949,  986629565 },
 282:keygen.c      **** 	{ 2143645697, 2041160111,  371842865 },
 283:keygen.c      **** 	{ 2143641601, 1279906897, 2023974350 },
 284:keygen.c      **** 	{ 2143635457,  720473174, 1389027526 },
 285:keygen.c      **** 	{ 2143621121, 1298309455, 1732632006 },
 286:keygen.c      **** 	{ 2143598593, 1548762216, 1825417506 },
 287:keygen.c      **** 	{ 2143567873,  620475784, 1073787233 },
 288:keygen.c      **** 	{ 2143561729, 1932954575,  949167309 },
 289:keygen.c      **** 	{ 2143553537,  354315656, 1652037534 },
 290:keygen.c      **** 	{ 2143541249,  577424288, 1097027618 },
 291:keygen.c      **** 	{ 2143531009,  357862822,  478640055 },
 292:keygen.c      **** 	{ 2143522817, 2017706025, 1550531668 },
 293:keygen.c      **** 	{ 2143506433, 2078127419, 1824320165 },
 294:keygen.c      **** 	{ 2143488001,  613475285, 1604011510 },
 295:keygen.c      **** 	{ 2143469569, 1466594987,  502095196 },
 296:keygen.c      **** 	{ 2143426561, 1115430331, 1044637111 },
 297:keygen.c      **** 	{ 2143383553,    9778045, 1902463734 },
 298:keygen.c      **** 	{ 2143377409, 1557401276, 2056861771 },
 299:keygen.c      **** 	{ 2143363073,  652036455, 1965915971 },
 300:keygen.c      **** 	{ 2143260673, 1464581171, 1523257541 },
 301:keygen.c      **** 	{ 2143246337, 1876119649,  764541916 },
 302:keygen.c      **** 	{ 2143209473, 1614992673, 1920672844 },
 303:keygen.c      **** 	{ 2143203329,  981052047, 2049774209 },
 304:keygen.c      **** 	{ 2143160321, 1847355533,  728535665 },
 305:keygen.c      **** 	{ 2143129601,  965558457,  603052992 },
 306:keygen.c      **** 	{ 2143123457, 2140817191,    8348679 },
 307:keygen.c      **** 	{ 2143100929, 1547263683,  694209023 },
 308:keygen.c      **** 	{ 2143092737,  643459066, 1979934533 },
 309:keygen.c      **** 	{ 2143082497,  188603778, 2026175670 },
 310:keygen.c      **** 	{ 2143062017, 1657329695,  377451099 },
 311:keygen.c      **** 	{ 2143051777,  114967950,  979255473 },
 312:keygen.c      **** 	{ 2143025153, 1698431342, 1449196896 },
 313:keygen.c      **** 	{ 2143006721, 1862741675, 1739650365 },
 314:keygen.c      **** 	{ 2142996481,  756660457,  996160050 },
 315:keygen.c      **** 	{ 2142976001,  927864010, 1166847574 },
 316:keygen.c      **** 	{ 2142965761,  905070557,  661974566 },
 317:keygen.c      **** 	{ 2142916609,   40932754, 1787161127 },
 318:keygen.c      **** 	{ 2142892033, 1987985648,  675335382 },
 319:keygen.c      **** 	{ 2142885889,  797497211, 1323096997 },
 320:keygen.c      **** 	{ 2142871553, 2068025830, 1411877159 },
 321:keygen.c      **** 	{ 2142861313, 1217177090, 1438410687 },
 322:keygen.c      **** 	{ 2142830593,  409906375, 1767860634 },
 323:keygen.c      **** 	{ 2142803969, 1197788993,  359782919 },
 324:keygen.c      **** 	{ 2142785537,  643817365,  513932862 },
 325:keygen.c      **** 	{ 2142779393, 1717046338,  218943121 },
 326:keygen.c      **** 	{ 2142724097,   89336830,  416687049 },
 327:keygen.c      **** 	{ 2142707713,    5944581, 1356813523 },
 328:keygen.c      **** 	{ 2142658561,  887942135, 2074011722 },
 329:keygen.c      **** 	{ 2142638081,  151851972, 1647339939 },
 330:keygen.c      **** 	{ 2142564353, 1691505537, 1483107336 },
 331:keygen.c      **** 	{ 2142533633, 1989920200, 1135938817 },
 332:keygen.c      **** 	{ 2142529537,  959263126, 1531961857 },
 333:keygen.c      **** 	{ 2142527489,  453251129, 1725566162 },
 334:keygen.c      **** 	{ 2142502913, 1536028102,  182053257 },
 335:keygen.c      **** 	{ 2142498817,  570138730,  701443447 },
 336:keygen.c      **** 	{ 2142416897,  326965800,  411931819 },
 337:keygen.c      **** 	{ 2142363649, 1675665410, 1517191733 },
 338:keygen.c      **** 	{ 2142351361,  968529566, 1575712703 },
 339:keygen.c      **** 	{ 2142330881, 1384953238, 1769087884 },
 340:keygen.c      **** 	{ 2142314497, 1977173242, 1833745524 },
 341:keygen.c      **** 	{ 2142289921,   95082313, 1714775493 },
 342:keygen.c      **** 	{ 2142283777,  109377615, 1070584533 },
 343:keygen.c      **** 	{ 2142277633,   16960510,  702157145 },
 344:keygen.c      **** 	{ 2142263297,  553850819,  431364395 },
 345:keygen.c      **** 	{ 2142208001,  241466367, 2053967982 },
 346:keygen.c      **** 	{ 2142164993, 1795661326, 1031836848 },
 347:keygen.c      **** 	{ 2142097409, 1212530046,  712772031 },
 348:keygen.c      **** 	{ 2142087169, 1763869720,  822276067 },
 349:keygen.c      **** 	{ 2142078977,  644065713, 1765268066 },
 350:keygen.c      **** 	{ 2142074881,  112671944,  643204925 },
 351:keygen.c      **** 	{ 2142044161, 1387785471, 1297890174 },
 352:keygen.c      **** 	{ 2142025729,  783885537, 1000425730 },
 353:keygen.c      **** 	{ 2142011393,  905662232, 1679401033 },
 354:keygen.c      **** 	{ 2141974529,  799788433,  468119557 },
 355:keygen.c      **** 	{ 2141943809, 1932544124,  449305555 },
 356:keygen.c      **** 	{ 2141933569, 1527403256,  841867925 },
 357:keygen.c      **** 	{ 2141931521, 1247076451,  743823916 },
 358:keygen.c      **** 	{ 2141902849, 1199660531,  401687910 },
 359:keygen.c      **** 	{ 2141890561,  150132350, 1720336972 },
 360:keygen.c      **** 	{ 2141857793, 1287438162,  663880489 },
 361:keygen.c      **** 	{ 2141833217,  618017731, 1819208266 },
 362:keygen.c      **** 	{ 2141820929,  999578638, 1403090096 },
 363:keygen.c      **** 	{ 2141786113,   81834325, 1523542501 },
 364:keygen.c      **** 	{ 2141771777,  120001928,  463556492 },
 365:keygen.c      **** 	{ 2141759489,  122455485, 2124928282 },
 366:keygen.c      **** 	{ 2141749249,  141986041,  940339153 },
 367:keygen.c      **** 	{ 2141685761,  889088734,  477141499 },
 368:keygen.c      **** 	{ 2141673473,  324212681, 1122558298 },
 369:keygen.c      **** 	{ 2141669377, 1175806187, 1373818177 },
 370:keygen.c      **** 	{ 2141655041, 1113654822,  296887082 },
 371:keygen.c      **** 	{ 2141587457,  991103258, 1585913875 },
 372:keygen.c      **** 	{ 2141583361, 1401451409, 1802457360 },
 373:keygen.c      **** 	{ 2141575169, 1571977166,  712760980 },
 374:keygen.c      **** 	{ 2141546497, 1107849376, 1250270109 },
 375:keygen.c      **** 	{ 2141515777,  196544219,  356001130 },
 376:keygen.c      **** 	{ 2141495297, 1733571506, 1060744866 },
 377:keygen.c      **** 	{ 2141483009,  321552363, 1168297026 },
 378:keygen.c      **** 	{ 2141458433,  505818251,  733225819 },
 379:keygen.c      **** 	{ 2141360129, 1026840098,  948342276 },
 380:keygen.c      **** 	{ 2141325313,  945133744, 2129965998 },
 381:keygen.c      **** 	{ 2141317121, 1871100260, 1843844634 },
 382:keygen.c      **** 	{ 2141286401, 1790639498, 1750465696 },
 383:keygen.c      **** 	{ 2141267969, 1376858592,  186160720 },
 384:keygen.c      **** 	{ 2141255681, 2129698296, 1876677959 },
 385:keygen.c      **** 	{ 2141243393, 2138900688, 1340009628 },
 386:keygen.c      **** 	{ 2141214721, 1933049835, 1087819477 },
 387:keygen.c      **** 	{ 2141212673, 1898664939, 1786328049 },
 388:keygen.c      **** 	{ 2141202433,  990234828,  940682169 },
 389:keygen.c      **** 	{ 2141175809, 1406392421,  993089586 },
 390:keygen.c      **** 	{ 2141165569, 1263518371,  289019479 },
 391:keygen.c      **** 	{ 2141073409, 1485624211,  507864514 },
 392:keygen.c      **** 	{ 2141052929, 1885134788,  311252465 },
 393:keygen.c      **** 	{ 2141040641, 1285021247,  280941862 },
 394:keygen.c      **** 	{ 2141028353, 1527610374,  375035110 },
 395:keygen.c      **** 	{ 2141011969, 1400626168,  164696620 },
 396:keygen.c      **** 	{ 2140999681,  632959608,  966175067 },
 397:keygen.c      **** 	{ 2140997633, 2045628978, 1290889438 },
 398:keygen.c      **** 	{ 2140993537, 1412755491,  375366253 },
 399:keygen.c      **** 	{ 2140942337,  719477232,  785367828 },
 400:keygen.c      **** 	{ 2140925953,   45224252,  836552317 },
 401:keygen.c      **** 	{ 2140917761, 1157376588, 1001839569 },
 402:keygen.c      **** 	{ 2140887041,  278480752, 2098732796 },
 403:keygen.c      **** 	{ 2140837889, 1663139953,  924094810 },
 404:keygen.c      **** 	{ 2140788737,  802501511, 2045368990 },
 405:keygen.c      **** 	{ 2140766209, 1820083885, 1800295504 },
 406:keygen.c      **** 	{ 2140764161, 1169561905, 2106792035 },
 407:keygen.c      **** 	{ 2140696577,  127781498, 1885987531 },
 408:keygen.c      **** 	{ 2140684289,   16014477, 1098116827 },
 409:keygen.c      **** 	{ 2140653569,  665960598, 1796728247 },
 410:keygen.c      **** 	{ 2140594177, 1043085491,  377310938 },
 411:keygen.c      **** 	{ 2140579841, 1732838211, 1504505945 },
 412:keygen.c      **** 	{ 2140569601,  302071939,  358291016 },
 413:keygen.c      **** 	{ 2140567553,  192393733, 1909137143 },
 414:keygen.c      **** 	{ 2140557313,  406595731, 1175330270 },
 415:keygen.c      **** 	{ 2140549121, 1748850918,  525007007 },
 416:keygen.c      **** 	{ 2140477441,  499436566, 1031159814 },
 417:keygen.c      **** 	{ 2140469249, 1886004401, 1029951320 },
 418:keygen.c      **** 	{ 2140426241, 1483168100, 1676273461 },
 419:keygen.c      **** 	{ 2140420097, 1779917297,  846024476 },
 420:keygen.c      **** 	{ 2140413953,  522948893, 1816354149 },
 421:keygen.c      **** 	{ 2140383233, 1931364473, 1296921241 },
 422:keygen.c      **** 	{ 2140366849, 1917356555,  147196204 },
 423:keygen.c      **** 	{ 2140354561,   16466177, 1349052107 },
 424:keygen.c      **** 	{ 2140348417, 1875366972, 1860485634 },
 425:keygen.c      **** 	{ 2140323841,  456498717, 1790256483 },
 426:keygen.c      **** 	{ 2140321793, 1629493973,  150031888 },
 427:keygen.c      **** 	{ 2140315649, 1904063898,  395510935 },
 428:keygen.c      **** 	{ 2140280833, 1784104328,  831417909 },
 429:keygen.c      **** 	{ 2140250113,  256087139,  697349101 },
 430:keygen.c      **** 	{ 2140229633,  388553070,  243875754 },
 431:keygen.c      **** 	{ 2140223489,  747459608, 1396270850 },
 432:keygen.c      **** 	{ 2140200961,  507423743, 1895572209 },
 433:keygen.c      **** 	{ 2140162049,  580106016, 2045297469 },
 434:keygen.c      **** 	{ 2140149761,  712426444,  785217995 },
 435:keygen.c      **** 	{ 2140137473, 1441607584,  536866543 },
 436:keygen.c      **** 	{ 2140119041,  346538902, 1740434653 },
 437:keygen.c      **** 	{ 2140090369,  282642885,   21051094 },
 438:keygen.c      **** 	{ 2140076033, 1407456228,  319910029 },
 439:keygen.c      **** 	{ 2140047361, 1619330500, 1488632070 },
 440:keygen.c      **** 	{ 2140041217, 2089408064, 2012026134 },
 441:keygen.c      **** 	{ 2140008449, 1705524800, 1613440760 },
 442:keygen.c      **** 	{ 2139924481, 1846208233, 1280649481 },
 443:keygen.c      **** 	{ 2139906049,  989438755, 1185646076 },
 444:keygen.c      **** 	{ 2139867137, 1522314850,  372783595 },
 445:keygen.c      **** 	{ 2139842561, 1681587377,  216848235 },
 446:keygen.c      **** 	{ 2139826177, 2066284988, 1784999464 },
 447:keygen.c      **** 	{ 2139824129,  480888214, 1513323027 },
 448:keygen.c      **** 	{ 2139789313,  847937200,  858192859 },
 449:keygen.c      **** 	{ 2139783169, 1642000434, 1583261448 },
 450:keygen.c      **** 	{ 2139770881,  940699589,  179702100 },
 451:keygen.c      **** 	{ 2139768833,  315623242,  964612676 },
 452:keygen.c      **** 	{ 2139666433,  331649203,  764666914 },
 453:keygen.c      **** 	{ 2139641857, 2118730799, 1313764644 },
 454:keygen.c      **** 	{ 2139635713,  519149027,  519212449 },
 455:keygen.c      **** 	{ 2139598849, 1526413634, 1769667104 },
 456:keygen.c      **** 	{ 2139574273,  551148610,  820739925 },
 457:keygen.c      **** 	{ 2139568129, 1386800242,  472447405 },
 458:keygen.c      **** 	{ 2139549697,  813760130, 1412328531 },
 459:keygen.c      **** 	{ 2139537409, 1615286260, 1609362979 },
 460:keygen.c      **** 	{ 2139475969, 1352559299, 1696720421 },
 461:keygen.c      **** 	{ 2139455489, 1048691649, 1584935400 },
 462:keygen.c      **** 	{ 2139432961,  836025845,  950121150 },
 463:keygen.c      **** 	{ 2139424769, 1558281165, 1635486858 },
 464:keygen.c      **** 	{ 2139406337, 1728402143, 1674423301 },
 465:keygen.c      **** 	{ 2139396097, 1727715782, 1483470544 },
 466:keygen.c      **** 	{ 2139383809, 1092853491, 1741699084 },
 467:keygen.c      **** 	{ 2139369473,  690776899, 1242798709 },
 468:keygen.c      **** 	{ 2139351041, 1768782380, 2120712049 },
 469:keygen.c      **** 	{ 2139334657, 1739968247, 1427249225 },
 470:keygen.c      **** 	{ 2139332609, 1547189119,  623011170 },
 471:keygen.c      **** 	{ 2139310081, 1346827917, 1605466350 },
 472:keygen.c      **** 	{ 2139303937,  369317948,  828392831 },
 473:keygen.c      **** 	{ 2139301889, 1560417239, 1788073219 },
 474:keygen.c      **** 	{ 2139283457, 1303121623,  595079358 },
 475:keygen.c      **** 	{ 2139248641, 1354555286,  573424177 },
 476:keygen.c      **** 	{ 2139240449,   60974056,  885781403 },
 477:keygen.c      **** 	{ 2139222017,  355573421, 1221054839 },
 478:keygen.c      **** 	{ 2139215873,  566477826, 1724006500 },
 479:keygen.c      **** 	{ 2139150337,  871437673, 1609133294 },
 480:keygen.c      **** 	{ 2139144193, 1478130914, 1137491905 },
 481:keygen.c      **** 	{ 2139117569, 1854880922,  964728507 },
 482:keygen.c      **** 	{ 2139076609,  202405335,  756508944 },
 483:keygen.c      **** 	{ 2139062273, 1399715741,  884826059 },
 484:keygen.c      **** 	{ 2139045889, 1051045798, 1202295476 },
 485:keygen.c      **** 	{ 2139033601, 1707715206,  632234634 },
 486:keygen.c      **** 	{ 2139006977, 2035853139,  231626690 },
 487:keygen.c      **** 	{ 2138951681,  183867876,  838350879 },
 488:keygen.c      **** 	{ 2138945537, 1403254661,  404460202 },
 489:keygen.c      **** 	{ 2138920961,  310865011, 1282911681 },
 490:keygen.c      **** 	{ 2138910721, 1328496553,  103472415 },
 491:keygen.c      **** 	{ 2138904577,   78831681,  993513549 },
 492:keygen.c      **** 	{ 2138902529, 1319697451, 1055904361 },
 493:keygen.c      **** 	{ 2138816513,  384338872, 1706202469 },
 494:keygen.c      **** 	{ 2138810369, 1084868275,  405677177 },
 495:keygen.c      **** 	{ 2138787841,  401181788, 1964773901 },
 496:keygen.c      **** 	{ 2138775553, 1850532988, 1247087473 },
 497:keygen.c      **** 	{ 2138767361,  874261901, 1576073565 },
 498:keygen.c      **** 	{ 2138757121, 1187474742,  993541415 },
 499:keygen.c      **** 	{ 2138748929, 1782458888, 1043206483 },
 500:keygen.c      **** 	{ 2138744833, 1221500487,  800141243 },
 501:keygen.c      **** 	{ 2138738689,  413465368, 1450660558 },
 502:keygen.c      **** 	{ 2138695681,  739045140,  342611472 },
 503:keygen.c      **** 	{ 2138658817, 1355845756,  672674190 },
 504:keygen.c      **** 	{ 2138644481,  608379162, 1538874380 },
 505:keygen.c      **** 	{ 2138632193, 1444914034,  686911254 },
 506:keygen.c      **** 	{ 2138607617,  484707818, 1435142134 },
 507:keygen.c      **** 	{ 2138591233,  539460669, 1290458549 },
 508:keygen.c      **** 	{ 2138572801, 2093538990, 2011138646 },
 509:keygen.c      **** 	{ 2138552321, 1149786988, 1076414907 },
 510:keygen.c      **** 	{ 2138546177,  840688206, 2108985273 },
 511:keygen.c      **** 	{ 2138533889,  209669619,  198172413 },
 512:keygen.c      **** 	{ 2138523649, 1975879426, 1277003968 },
 513:keygen.c      **** 	{ 2138490881, 1351891144, 1976858109 },
 514:keygen.c      **** 	{ 2138460161, 1817321013, 1979278293 },
 515:keygen.c      **** 	{ 2138429441, 1950077177,  203441928 },
 516:keygen.c      **** 	{ 2138400769,  908970113,  628395069 },
 517:keygen.c      **** 	{ 2138398721,  219890864,  758486760 },
 518:keygen.c      **** 	{ 2138376193, 1306654379,  977554090 },
 519:keygen.c      **** 	{ 2138351617,  298822498, 2004708503 },
 520:keygen.c      **** 	{ 2138337281,  441457816, 1049002108 },
 521:keygen.c      **** 	{ 2138320897, 1517731724, 1442269609 },
 522:keygen.c      **** 	{ 2138290177, 1355911197, 1647139103 },
 523:keygen.c      **** 	{ 2138234881,  531313247, 1746591962 },
 524:keygen.c      **** 	{ 2138214401, 1899410930,  781416444 },
 525:keygen.c      **** 	{ 2138202113, 1813477173, 1622508515 },
 526:keygen.c      **** 	{ 2138191873, 1086458299, 1025408615 },
 527:keygen.c      **** 	{ 2138183681, 1998800427,  827063290 },
 528:keygen.c      **** 	{ 2138173441, 1921308898,  749670117 },
 529:keygen.c      **** 	{ 2138103809, 1620902804, 2126787647 },
 530:keygen.c      **** 	{ 2138099713,  828647069, 1892961817 },
 531:keygen.c      **** 	{ 2138085377,  179405355, 1525506535 },
 532:keygen.c      **** 	{ 2138060801,  615683235, 1259580138 },
 533:keygen.c      **** 	{ 2138044417, 2030277840, 1731266562 },
 534:keygen.c      **** 	{ 2138042369, 2087222316, 1627902259 },
 535:keygen.c      **** 	{ 2138032129,  126388712, 1108640984 },
 536:keygen.c      **** 	{ 2138011649,  715026550, 1017980050 },
 537:keygen.c      **** 	{ 2137993217, 1693714349, 1351778704 },
 538:keygen.c      **** 	{ 2137888769, 1289762259, 1053090405 },
 539:keygen.c      **** 	{ 2137853953,  199991890, 1254192789 },
 540:keygen.c      **** 	{ 2137833473,  941421685,  896995556 },
 541:keygen.c      **** 	{ 2137817089,  750416446, 1251031181 },
 542:keygen.c      **** 	{ 2137792513,  798075119,  368077456 },
 543:keygen.c      **** 	{ 2137786369,  878543495, 1035375025 },
 544:keygen.c      **** 	{ 2137767937,    9351178, 1156563902 },
 545:keygen.c      **** 	{ 2137755649, 1382297614, 1686559583 },
 546:keygen.c      **** 	{ 2137724929, 1345472850, 1681096331 },
 547:keygen.c      **** 	{ 2137704449,  834666929,  630551727 },
 548:keygen.c      **** 	{ 2137673729, 1646165729, 1892091571 },
 549:keygen.c      **** 	{ 2137620481,  778943821,   48456461 },
 550:keygen.c      **** 	{ 2137618433, 1730837875, 1713336725 },
 551:keygen.c      **** 	{ 2137581569,  805610339, 1378891359 },
 552:keygen.c      **** 	{ 2137538561,  204342388, 1950165220 },
 553:keygen.c      **** 	{ 2137526273, 1947629754, 1500789441 },
 554:keygen.c      **** 	{ 2137516033,  719902645, 1499525372 },
 555:keygen.c      **** 	{ 2137491457,  230451261,  556382829 },
 556:keygen.c      **** 	{ 2137440257,  979573541,  412760291 },
 557:keygen.c      **** 	{ 2137374721,  927841248, 1954137185 },
 558:keygen.c      **** 	{ 2137362433, 1243778559,  861024672 },
 559:keygen.c      **** 	{ 2137313281, 1341338501,  980638386 },
 560:keygen.c      **** 	{ 2137311233,  937415182, 1793212117 },
 561:keygen.c      **** 	{ 2137255937,  795331324, 1410253405 },
 562:keygen.c      **** 	{ 2137243649,  150756339, 1966999887 },
 563:keygen.c      **** 	{ 2137182209,  163346914, 1939301431 },
 564:keygen.c      **** 	{ 2137171969, 1952552395,  758913141 },
 565:keygen.c      **** 	{ 2137159681,  570788721,  218668666 },
 566:keygen.c      **** 	{ 2137147393, 1896656810, 2045670345 },
 567:keygen.c      **** 	{ 2137141249,  358493842,  518199643 },
 568:keygen.c      **** 	{ 2137139201, 1505023029,  674695848 },
 569:keygen.c      **** 	{ 2137133057,   27911103,  830956306 },
 570:keygen.c      **** 	{ 2137122817,  439771337, 1555268614 },
 571:keygen.c      **** 	{ 2137116673,  790988579, 1871449599 },
 572:keygen.c      **** 	{ 2137110529,  432109234,  811805080 },
 573:keygen.c      **** 	{ 2137102337, 1357900653, 1184997641 },
 574:keygen.c      **** 	{ 2137098241,  515119035, 1715693095 },
 575:keygen.c      **** 	{ 2137090049,  408575203, 2085660657 },
 576:keygen.c      **** 	{ 2137085953, 2097793407, 1349626963 },
 577:keygen.c      **** 	{ 2137055233, 1556739954, 1449960883 },
 578:keygen.c      **** 	{ 2137030657, 1545758650, 1369303716 },
 579:keygen.c      **** 	{ 2136987649,  332602570,  103875114 },
 580:keygen.c      **** 	{ 2136969217, 1499989506, 1662964115 },
 581:keygen.c      **** 	{ 2136924161,  857040753,    4738842 },
 582:keygen.c      **** 	{ 2136895489, 1948872712,  570436091 },
 583:keygen.c      **** 	{ 2136893441,   58969960, 1568349634 },
 584:keygen.c      **** 	{ 2136887297, 2127193379,  273612548 },
 585:keygen.c      **** 	{ 2136850433,  111208983, 1181257116 },
 586:keygen.c      **** 	{ 2136809473, 1627275942, 1680317971 },
 587:keygen.c      **** 	{ 2136764417, 1574888217,   14011331 },
 588:keygen.c      **** 	{ 2136741889,   14011055, 1129154251 },
 589:keygen.c      **** 	{ 2136727553,   35862563, 1838555253 },
 590:keygen.c      **** 	{ 2136721409,  310235666, 1363928244 },
 591:keygen.c      **** 	{ 2136698881, 1612429202, 1560383828 },
 592:keygen.c      **** 	{ 2136649729, 1138540131,  800014364 },
 593:keygen.c      **** 	{ 2136606721,  602323503, 1433096652 },
 594:keygen.c      **** 	{ 2136563713,  182209265, 1919611038 },
 595:keygen.c      **** 	{ 2136555521,  324156477,  165591039 },
 596:keygen.c      **** 	{ 2136549377,  195513113,  217165345 },
 597:keygen.c      **** 	{ 2136526849, 1050768046,  939647887 },
 598:keygen.c      **** 	{ 2136508417, 1886286237, 1619926572 },
 599:keygen.c      **** 	{ 2136477697,  609647664,   35065157 },
 600:keygen.c      **** 	{ 2136471553,  679352216, 1452259468 },
 601:keygen.c      **** 	{ 2136457217,  128630031,  824816521 },
 602:keygen.c      **** 	{ 2136422401,   19787464, 1526049830 },
 603:keygen.c      **** 	{ 2136420353,  698316836, 1530623527 },
 604:keygen.c      **** 	{ 2136371201, 1651862373, 1804812805 },
 605:keygen.c      **** 	{ 2136334337,  326596005,  336977082 },
 606:keygen.c      **** 	{ 2136322049,   63253370, 1904972151 },
 607:keygen.c      **** 	{ 2136297473,  312176076,  172182411 },
 608:keygen.c      **** 	{ 2136248321,  381261841,  369032670 },
 609:keygen.c      **** 	{ 2136242177,  358688773, 1640007994 },
 610:keygen.c      **** 	{ 2136229889,  512677188,   75585225 },
 611:keygen.c      **** 	{ 2136219649, 2095003250, 1970086149 },
 612:keygen.c      **** 	{ 2136207361, 1909650722,  537760675 },
 613:keygen.c      **** 	{ 2136176641, 1334616195, 1533487619 },
 614:keygen.c      **** 	{ 2136158209, 2096285632, 1793285210 },
 615:keygen.c      **** 	{ 2136143873, 1897347517,  293843959 },
 616:keygen.c      **** 	{ 2136133633,  923586222, 1022655978 },
 617:keygen.c      **** 	{ 2136096769, 1464868191, 1515074410 },
 618:keygen.c      **** 	{ 2136094721, 2020679520, 2061636104 },
 619:keygen.c      **** 	{ 2136076289,  290798503, 1814726809 },
 620:keygen.c      **** 	{ 2136041473,  156415894, 1250757633 },
 621:keygen.c      **** 	{ 2135996417,  297459940, 1132158924 },
 622:keygen.c      **** 	{ 2135955457,  538755304, 1688831340 },
 623:keygen.c      **** 	{ 0, 0, 0 }
 624:keygen.c      **** };
 625:keygen.c      **** 
 626:keygen.c      **** /*
 627:keygen.c      ****  * Reduce a small signed integer modulo a small prime. The source
 628:keygen.c      ****  * value x MUST be such that -p < x < p.
 629:keygen.c      ****  */
 630:keygen.c      **** static inline uint32_t
 631:keygen.c      **** modp_set(int32_t x, uint32_t p)
 632:keygen.c      **** {
 2388              		.loc 2 632 1
 2389              		.cfi_startproc
 2390              		@ args = 0, pretend = 0, frame = 16
 2391              		@ frame_needed = 1, uses_anonymous_args = 0
 2392              		@ link register save eliminated.
 2393 0000 80B4     		push	{r7}
 2394              	.LCFI33:
 2395              		.cfi_def_cfa_offset 4
 2396              		.cfi_offset 7, -4
 2397 0002 85B0     		sub	sp, sp, #20
 2398              	.LCFI34:
 2399              		.cfi_def_cfa_offset 24
 2400 0004 00AF     		add	r7, sp, #0
 2401              	.LCFI35:
 2402              		.cfi_def_cfa_register 7
 2403 0006 7860     		str	r0, [r7, #4]
 2404 0008 3960     		str	r1, [r7]
 633:keygen.c      **** 	uint32_t w;
 634:keygen.c      **** 
 635:keygen.c      **** 	w = (uint32_t)x;
 2405              		.loc 2 635 4
 2406 000a 7B68     		ldr	r3, [r7, #4]
 2407 000c FB60     		str	r3, [r7, #12]
 636:keygen.c      **** 	w += p & -(w >> 31);
 2408              		.loc 2 636 11
 2409 000e FB68     		ldr	r3, [r7, #12]
 2410 0010 DB17     		asrs	r3, r3, #31
 2411 0012 1A46     		mov	r2, r3
 2412              		.loc 2 636 9
 2413 0014 3B68     		ldr	r3, [r7]
 2414 0016 1340     		ands	r3, r3, r2
 2415              		.loc 2 636 4
 2416 0018 FA68     		ldr	r2, [r7, #12]
 2417 001a 1344     		add	r3, r3, r2
 2418 001c FB60     		str	r3, [r7, #12]
 637:keygen.c      **** 	return w;
 2419              		.loc 2 637 9
 2420 001e FB68     		ldr	r3, [r7, #12]
 638:keygen.c      **** }
 2421              		.loc 2 638 1
 2422 0020 1846     		mov	r0, r3
 2423 0022 1437     		adds	r7, r7, #20
 2424              	.LCFI36:
 2425              		.cfi_def_cfa_offset 4
 2426 0024 BD46     		mov	sp, r7
 2427              	.LCFI37:
 2428              		.cfi_def_cfa_register 13
 2429              		@ sp needed
 2430 0026 80BC     		pop	{r7}
 2431              	.LCFI38:
 2432              		.cfi_restore 7
 2433              		.cfi_def_cfa_offset 0
 2434 0028 7047     		bx	lr
 2435              		.cfi_endproc
 2436              	.LFE18:
 2438              		.section	.text.modp_norm,"ax",%progbits
 2439              		.align	1
 2440              		.syntax unified
 2441              		.thumb
 2442              		.thumb_func
 2443              		.fpu softvfp
 2445              	modp_norm:
 2446              	.LFB19:
 639:keygen.c      **** 
 640:keygen.c      **** /*
 641:keygen.c      ****  * Normalize a modular integer around 0.
 642:keygen.c      ****  */
 643:keygen.c      **** static inline int32_t
 644:keygen.c      **** modp_norm(uint32_t x, uint32_t p)
 645:keygen.c      **** {
 2447              		.loc 2 645 1
 2448              		.cfi_startproc
 2449              		@ args = 0, pretend = 0, frame = 8
 2450              		@ frame_needed = 1, uses_anonymous_args = 0
 2451              		@ link register save eliminated.
 2452 0000 80B4     		push	{r7}
 2453              	.LCFI39:
 2454              		.cfi_def_cfa_offset 4
 2455              		.cfi_offset 7, -4
 2456 0002 83B0     		sub	sp, sp, #12
 2457              	.LCFI40:
 2458              		.cfi_def_cfa_offset 16
 2459 0004 00AF     		add	r7, sp, #0
 2460              	.LCFI41:
 2461              		.cfi_def_cfa_register 7
 2462 0006 7860     		str	r0, [r7, #4]
 2463 0008 3960     		str	r1, [r7]
 646:keygen.c      **** 	return (int32_t)(x - (p & (((x - ((p + 1) >> 1)) >> 31) - 1)));
 2464              		.loc 2 646 39
 2465 000a 3B68     		ldr	r3, [r7]
 2466 000c 0133     		adds	r3, r3, #1
 2467              		.loc 2 646 44
 2468 000e 5B08     		lsrs	r3, r3, #1
 2469              		.loc 2 646 33
 2470 0010 7A68     		ldr	r2, [r7, #4]
 2471 0012 D31A     		subs	r3, r2, r3
 2472              		.loc 2 646 51
 2473 0014 DB0F     		lsrs	r3, r3, #31
 2474              		.loc 2 646 58
 2475 0016 5A1E     		subs	r2, r3, #1
 2476              		.loc 2 646 26
 2477 0018 3B68     		ldr	r3, [r7]
 2478 001a 1340     		ands	r3, r3, r2
 2479              		.loc 2 646 21
 2480 001c 7A68     		ldr	r2, [r7, #4]
 2481 001e D31A     		subs	r3, r2, r3
 647:keygen.c      **** }
 2482              		.loc 2 647 1
 2483 0020 1846     		mov	r0, r3
 2484 0022 0C37     		adds	r7, r7, #12
 2485              	.LCFI42:
 2486              		.cfi_def_cfa_offset 4
 2487 0024 BD46     		mov	sp, r7
 2488              	.LCFI43:
 2489              		.cfi_def_cfa_register 13
 2490              		@ sp needed
 2491 0026 80BC     		pop	{r7}
 2492              	.LCFI44:
 2493              		.cfi_restore 7
 2494              		.cfi_def_cfa_offset 0
 2495 0028 7047     		bx	lr
 2496              		.cfi_endproc
 2497              	.LFE19:
 2499              		.section	.text.modp_ninv31,"ax",%progbits
 2500              		.align	1
 2501              		.syntax unified
 2502              		.thumb
 2503              		.thumb_func
 2504              		.fpu softvfp
 2506              	modp_ninv31:
 2507              	.LFB20:
 648:keygen.c      **** 
 649:keygen.c      **** /*
 650:keygen.c      ****  * Compute -1/p mod 2^31. This works for all odd integers p that fit
 651:keygen.c      ****  * on 31 bits.
 652:keygen.c      ****  */
 653:keygen.c      **** static uint32_t
 654:keygen.c      **** modp_ninv31(uint32_t p)
 655:keygen.c      **** {
 2508              		.loc 2 655 1
 2509              		.cfi_startproc
 2510              		@ args = 0, pretend = 0, frame = 16
 2511              		@ frame_needed = 1, uses_anonymous_args = 0
 2512              		@ link register save eliminated.
 2513 0000 80B4     		push	{r7}
 2514              	.LCFI45:
 2515              		.cfi_def_cfa_offset 4
 2516              		.cfi_offset 7, -4
 2517 0002 85B0     		sub	sp, sp, #20
 2518              	.LCFI46:
 2519              		.cfi_def_cfa_offset 24
 2520 0004 00AF     		add	r7, sp, #0
 2521              	.LCFI47:
 2522              		.cfi_def_cfa_register 7
 2523 0006 7860     		str	r0, [r7, #4]
 656:keygen.c      **** 	uint32_t y;
 657:keygen.c      **** 
 658:keygen.c      **** 	y = 2 - p;
 2524              		.loc 2 658 4
 2525 0008 7B68     		ldr	r3, [r7, #4]
 2526 000a C3F10203 		rsb	r3, r3, #2
 2527 000e FB60     		str	r3, [r7, #12]
 659:keygen.c      **** 	y *= 2 - p * y;
 2528              		.loc 2 659 13
 2529 0010 7B68     		ldr	r3, [r7, #4]
 2530 0012 FA68     		ldr	r2, [r7, #12]
 2531 0014 02FB03F3 		mul	r3, r2, r3
 2532              		.loc 2 659 9
 2533 0018 C3F10202 		rsb	r2, r3, #2
 2534              		.loc 2 659 4
 2535 001c FB68     		ldr	r3, [r7, #12]
 2536 001e 02FB03F3 		mul	r3, r2, r3
 2537 0022 FB60     		str	r3, [r7, #12]
 660:keygen.c      **** 	y *= 2 - p * y;
 2538              		.loc 2 660 13
 2539 0024 7B68     		ldr	r3, [r7, #4]
 2540 0026 FA68     		ldr	r2, [r7, #12]
 2541 0028 02FB03F3 		mul	r3, r2, r3
 2542              		.loc 2 660 9
 2543 002c C3F10202 		rsb	r2, r3, #2
 2544              		.loc 2 660 4
 2545 0030 FB68     		ldr	r3, [r7, #12]
 2546 0032 02FB03F3 		mul	r3, r2, r3
 2547 0036 FB60     		str	r3, [r7, #12]
 661:keygen.c      **** 	y *= 2 - p * y;
 2548              		.loc 2 661 13
 2549 0038 7B68     		ldr	r3, [r7, #4]
 2550 003a FA68     		ldr	r2, [r7, #12]
 2551 003c 02FB03F3 		mul	r3, r2, r3
 2552              		.loc 2 661 9
 2553 0040 C3F10202 		rsb	r2, r3, #2
 2554              		.loc 2 661 4
 2555 0044 FB68     		ldr	r3, [r7, #12]
 2556 0046 02FB03F3 		mul	r3, r2, r3
 2557 004a FB60     		str	r3, [r7, #12]
 662:keygen.c      **** 	y *= 2 - p * y;
 2558              		.loc 2 662 13
 2559 004c 7B68     		ldr	r3, [r7, #4]
 2560 004e FA68     		ldr	r2, [r7, #12]
 2561 0050 02FB03F3 		mul	r3, r2, r3
 2562              		.loc 2 662 9
 2563 0054 C3F10202 		rsb	r2, r3, #2
 2564              		.loc 2 662 4
 2565 0058 FB68     		ldr	r3, [r7, #12]
 2566 005a 02FB03F3 		mul	r3, r2, r3
 2567 005e FB60     		str	r3, [r7, #12]
 663:keygen.c      **** 	return (uint32_t)0x7FFFFFFF & -y;
 2568              		.loc 2 663 32
 2569 0060 FB68     		ldr	r3, [r7, #12]
 2570 0062 5B42     		rsbs	r3, r3, #0
 2571              		.loc 2 663 30
 2572 0064 23F00043 		bic	r3, r3, #-2147483648
 664:keygen.c      **** }
 2573              		.loc 2 664 1
 2574 0068 1846     		mov	r0, r3
 2575 006a 1437     		adds	r7, r7, #20
 2576              	.LCFI48:
 2577              		.cfi_def_cfa_offset 4
 2578 006c BD46     		mov	sp, r7
 2579              	.LCFI49:
 2580              		.cfi_def_cfa_register 13
 2581              		@ sp needed
 2582 006e 80BC     		pop	{r7}
 2583              	.LCFI50:
 2584              		.cfi_restore 7
 2585              		.cfi_def_cfa_offset 0
 2586 0070 7047     		bx	lr
 2587              		.cfi_endproc
 2588              	.LFE20:
 2590              		.section	.text.modp_R,"ax",%progbits
 2591              		.align	1
 2592              		.syntax unified
 2593              		.thumb
 2594              		.thumb_func
 2595              		.fpu softvfp
 2597              	modp_R:
 2598              	.LFB21:
 665:keygen.c      **** 
 666:keygen.c      **** /*
 667:keygen.c      ****  * Compute R = 2^31 mod p.
 668:keygen.c      ****  */
 669:keygen.c      **** static inline uint32_t
 670:keygen.c      **** modp_R(uint32_t p)
 671:keygen.c      **** {
 2599              		.loc 2 671 1
 2600              		.cfi_startproc
 2601              		@ args = 0, pretend = 0, frame = 8
 2602              		@ frame_needed = 1, uses_anonymous_args = 0
 2603              		@ link register save eliminated.
 2604 0000 80B4     		push	{r7}
 2605              	.LCFI51:
 2606              		.cfi_def_cfa_offset 4
 2607              		.cfi_offset 7, -4
 2608 0002 83B0     		sub	sp, sp, #12
 2609              	.LCFI52:
 2610              		.cfi_def_cfa_offset 16
 2611 0004 00AF     		add	r7, sp, #0
 2612              	.LCFI53:
 2613              		.cfi_def_cfa_register 7
 2614 0006 7860     		str	r0, [r7, #4]
 672:keygen.c      **** 	/*
 673:keygen.c      **** 	 * Since 2^30 < p < 2^31, we know that 2^31 mod p is simply
 674:keygen.c      **** 	 * 2^31 - p.
 675:keygen.c      **** 	 */
 676:keygen.c      **** 	return ((uint32_t)1 << 31) - p;
 2615              		.loc 2 676 29
 2616 0008 7B68     		ldr	r3, [r7, #4]
 2617 000a C3F10043 		rsb	r3, r3, #-2147483648
 677:keygen.c      **** }
 2618              		.loc 2 677 1
 2619 000e 1846     		mov	r0, r3
 2620 0010 0C37     		adds	r7, r7, #12
 2621              	.LCFI54:
 2622              		.cfi_def_cfa_offset 4
 2623 0012 BD46     		mov	sp, r7
 2624              	.LCFI55:
 2625              		.cfi_def_cfa_register 13
 2626              		@ sp needed
 2627 0014 80BC     		pop	{r7}
 2628              	.LCFI56:
 2629              		.cfi_restore 7
 2630              		.cfi_def_cfa_offset 0
 2631 0016 7047     		bx	lr
 2632              		.cfi_endproc
 2633              	.LFE21:
 2635              		.section	.text.modp_add,"ax",%progbits
 2636              		.align	1
 2637              		.syntax unified
 2638              		.thumb
 2639              		.thumb_func
 2640              		.fpu softvfp
 2642              	modp_add:
 2643              	.LFB22:
 678:keygen.c      **** 
 679:keygen.c      **** /*
 680:keygen.c      ****  * Addition modulo p.
 681:keygen.c      ****  */
 682:keygen.c      **** static inline uint32_t
 683:keygen.c      **** modp_add(uint32_t a, uint32_t b, uint32_t p)
 684:keygen.c      **** {
 2644              		.loc 2 684 1
 2645              		.cfi_startproc
 2646              		@ args = 0, pretend = 0, frame = 24
 2647              		@ frame_needed = 1, uses_anonymous_args = 0
 2648              		@ link register save eliminated.
 2649 0000 80B4     		push	{r7}
 2650              	.LCFI57:
 2651              		.cfi_def_cfa_offset 4
 2652              		.cfi_offset 7, -4
 2653 0002 87B0     		sub	sp, sp, #28
 2654              	.LCFI58:
 2655              		.cfi_def_cfa_offset 32
 2656 0004 00AF     		add	r7, sp, #0
 2657              	.LCFI59:
 2658              		.cfi_def_cfa_register 7
 2659 0006 F860     		str	r0, [r7, #12]
 2660 0008 B960     		str	r1, [r7, #8]
 2661 000a 7A60     		str	r2, [r7, #4]
 685:keygen.c      **** 	uint32_t d;
 686:keygen.c      **** 
 687:keygen.c      **** 	d = a + b - p;
 2662              		.loc 2 687 8
 2663 000c FA68     		ldr	r2, [r7, #12]
 2664 000e BB68     		ldr	r3, [r7, #8]
 2665 0010 1A44     		add	r2, r2, r3
 2666              		.loc 2 687 4
 2667 0012 7B68     		ldr	r3, [r7, #4]
 2668 0014 D31A     		subs	r3, r2, r3
 2669 0016 7B61     		str	r3, [r7, #20]
 688:keygen.c      **** 	d += p & -(d >> 31);
 2670              		.loc 2 688 11
 2671 0018 7B69     		ldr	r3, [r7, #20]
 2672 001a DB17     		asrs	r3, r3, #31
 2673 001c 1A46     		mov	r2, r3
 2674              		.loc 2 688 9
 2675 001e 7B68     		ldr	r3, [r7, #4]
 2676 0020 1340     		ands	r3, r3, r2
 2677              		.loc 2 688 4
 2678 0022 7A69     		ldr	r2, [r7, #20]
 2679 0024 1344     		add	r3, r3, r2
 2680 0026 7B61     		str	r3, [r7, #20]
 689:keygen.c      **** 	return d;
 2681              		.loc 2 689 9
 2682 0028 7B69     		ldr	r3, [r7, #20]
 690:keygen.c      **** }
 2683              		.loc 2 690 1
 2684 002a 1846     		mov	r0, r3
 2685 002c 1C37     		adds	r7, r7, #28
 2686              	.LCFI60:
 2687              		.cfi_def_cfa_offset 4
 2688 002e BD46     		mov	sp, r7
 2689              	.LCFI61:
 2690              		.cfi_def_cfa_register 13
 2691              		@ sp needed
 2692 0030 80BC     		pop	{r7}
 2693              	.LCFI62:
 2694              		.cfi_restore 7
 2695              		.cfi_def_cfa_offset 0
 2696 0032 7047     		bx	lr
 2697              		.cfi_endproc
 2698              	.LFE22:
 2700              		.section	.text.modp_sub,"ax",%progbits
 2701              		.align	1
 2702              		.syntax unified
 2703              		.thumb
 2704              		.thumb_func
 2705              		.fpu softvfp
 2707              	modp_sub:
 2708              	.LFB23:
 691:keygen.c      **** 
 692:keygen.c      **** /*
 693:keygen.c      ****  * Subtraction modulo p.
 694:keygen.c      ****  */
 695:keygen.c      **** static inline uint32_t
 696:keygen.c      **** modp_sub(uint32_t a, uint32_t b, uint32_t p)
 697:keygen.c      **** {
 2709              		.loc 2 697 1
 2710              		.cfi_startproc
 2711              		@ args = 0, pretend = 0, frame = 24
 2712              		@ frame_needed = 1, uses_anonymous_args = 0
 2713              		@ link register save eliminated.
 2714 0000 80B4     		push	{r7}
 2715              	.LCFI63:
 2716              		.cfi_def_cfa_offset 4
 2717              		.cfi_offset 7, -4
 2718 0002 87B0     		sub	sp, sp, #28
 2719              	.LCFI64:
 2720              		.cfi_def_cfa_offset 32
 2721 0004 00AF     		add	r7, sp, #0
 2722              	.LCFI65:
 2723              		.cfi_def_cfa_register 7
 2724 0006 F860     		str	r0, [r7, #12]
 2725 0008 B960     		str	r1, [r7, #8]
 2726 000a 7A60     		str	r2, [r7, #4]
 698:keygen.c      **** 	uint32_t d;
 699:keygen.c      **** 
 700:keygen.c      **** 	d = a - b;
 2727              		.loc 2 700 4
 2728 000c FA68     		ldr	r2, [r7, #12]
 2729 000e BB68     		ldr	r3, [r7, #8]
 2730 0010 D31A     		subs	r3, r2, r3
 2731 0012 7B61     		str	r3, [r7, #20]
 701:keygen.c      **** 	d += p & -(d >> 31);
 2732              		.loc 2 701 11
 2733 0014 7B69     		ldr	r3, [r7, #20]
 2734 0016 DB17     		asrs	r3, r3, #31
 2735 0018 1A46     		mov	r2, r3
 2736              		.loc 2 701 9
 2737 001a 7B68     		ldr	r3, [r7, #4]
 2738 001c 1340     		ands	r3, r3, r2
 2739              		.loc 2 701 4
 2740 001e 7A69     		ldr	r2, [r7, #20]
 2741 0020 1344     		add	r3, r3, r2
 2742 0022 7B61     		str	r3, [r7, #20]
 702:keygen.c      **** 	return d;
 2743              		.loc 2 702 9
 2744 0024 7B69     		ldr	r3, [r7, #20]
 703:keygen.c      **** }
 2745              		.loc 2 703 1
 2746 0026 1846     		mov	r0, r3
 2747 0028 1C37     		adds	r7, r7, #28
 2748              	.LCFI66:
 2749              		.cfi_def_cfa_offset 4
 2750 002a BD46     		mov	sp, r7
 2751              	.LCFI67:
 2752              		.cfi_def_cfa_register 13
 2753              		@ sp needed
 2754 002c 80BC     		pop	{r7}
 2755              	.LCFI68:
 2756              		.cfi_restore 7
 2757              		.cfi_def_cfa_offset 0
 2758 002e 7047     		bx	lr
 2759              		.cfi_endproc
 2760              	.LFE23:
 2762              		.section	.text.modp_montymul,"ax",%progbits
 2763              		.align	1
 2764              		.syntax unified
 2765              		.thumb
 2766              		.thumb_func
 2767              		.fpu softvfp
 2769              	modp_montymul:
 2770              	.LFB24:
 704:keygen.c      **** 
 705:keygen.c      **** /*
 706:keygen.c      ****  * Halving modulo p.
 707:keygen.c      ****  */
 708:keygen.c      **** /* unused
 709:keygen.c      **** static inline uint32_t
 710:keygen.c      **** modp_half(uint32_t a, uint32_t p)
 711:keygen.c      **** {
 712:keygen.c      **** 	a += p & -(a & 1);
 713:keygen.c      **** 	return a >> 1;
 714:keygen.c      **** }
 715:keygen.c      **** */
 716:keygen.c      **** 
 717:keygen.c      **** /*
 718:keygen.c      ****  * Montgomery multiplication modulo p. The 'p0i' value is -1/p mod 2^31.
 719:keygen.c      ****  * It is required that p is an odd integer.
 720:keygen.c      ****  */
 721:keygen.c      **** static inline uint32_t
 722:keygen.c      **** modp_montymul(uint32_t a, uint32_t b, uint32_t p, uint32_t p0i)
 723:keygen.c      **** {
 2771              		.loc 2 723 1
 2772              		.cfi_startproc
 2773              		@ args = 0, pretend = 0, frame = 88
 2774              		@ frame_needed = 1, uses_anonymous_args = 0
 2775              		@ link register save eliminated.
 2776 0000 2DE9F00F 		push	{r4, r5, r6, r7, r8, r9, r10, fp}
 2777              	.LCFI69:
 2778              		.cfi_def_cfa_offset 32
 2779              		.cfi_offset 4, -32
 2780              		.cfi_offset 5, -28
 2781              		.cfi_offset 6, -24
 2782              		.cfi_offset 7, -20
 2783              		.cfi_offset 8, -16
 2784              		.cfi_offset 9, -12
 2785              		.cfi_offset 10, -8
 2786              		.cfi_offset 11, -4
 2787 0004 96B0     		sub	sp, sp, #88
 2788              	.LCFI70:
 2789              		.cfi_def_cfa_offset 120
 2790 0006 00AF     		add	r7, sp, #0
 2791              	.LCFI71:
 2792              		.cfi_def_cfa_register 7
 2793 0008 F863     		str	r0, [r7, #60]
 2794 000a B963     		str	r1, [r7, #56]
 2795 000c 7A63     		str	r2, [r7, #52]
 2796 000e 3B63     		str	r3, [r7, #48]
 724:keygen.c      **** 	uint64_t z, w;
 725:keygen.c      **** 	uint32_t d;
 726:keygen.c      **** 
 727:keygen.c      **** 	z = (uint64_t)a * (uint64_t)b;
 2797              		.loc 2 727 6
 2798 0010 FB6B     		ldr	r3, [r7, #60]
 2799 0012 0022     		movs	r2, #0
 2800 0014 BB61     		str	r3, [r7, #24]
 2801 0016 FA61     		str	r2, [r7, #28]
 2802              		.loc 2 727 20
 2803 0018 BB6B     		ldr	r3, [r7, #56]
 2804 001a 0022     		movs	r2, #0
 2805 001c BB62     		str	r3, [r7, #40]
 2806 001e FA62     		str	r2, [r7, #44]
 2807              		.loc 2 727 4
 2808 0020 D7E90601 		ldrd	r0, [r7, #24]
 2809 0024 0B46     		mov	r3, r1
 2810 0026 BA6A     		ldr	r2, [r7, #40]
 2811 0028 02FB03F2 		mul	r2, r2, r3
 2812 002c FB6A     		ldr	r3, [r7, #44]
 2813 002e 0646     		mov	r6, r0
 2814 0030 06FB03F3 		mul	r3, r6, r3
 2815 0034 1344     		add	r3, r3, r2
 2816 0036 0246     		mov	r2, r0
 2817 0038 B96A     		ldr	r1, [r7, #40]
 2818 003a A2FB0145 		umull	r4, r5, r2, r1
 2819 003e 2B44     		add	r3, r3, r5
 2820 0040 1D46     		mov	r5, r3
 2821 0042 C7E91445 		strd	r4, [r7, #80]
 2822 0046 C7E91445 		strd	r4, [r7, #80]
 728:keygen.c      **** 	w = ((z * p0i) & (uint64_t)0x7FFFFFFF) * p;
 2823              		.loc 2 728 10
 2824 004a 3B6B     		ldr	r3, [r7, #48]
 2825 004c 0022     		movs	r2, #0
 2826 004e 3B61     		str	r3, [r7, #16]
 2827 0050 7A61     		str	r2, [r7, #20]
 2828 0052 3B6D     		ldr	r3, [r7, #80]
 2829 0054 D7E90445 		ldrd	r4, [r7, #16]
 2830 0058 2A46     		mov	r2, r5
 2831 005a 02FB03F2 		mul	r2, r2, r3
 2832 005e 7B6D     		ldr	r3, [r7, #84]
 2833 0060 2146     		mov	r1, r4
 2834 0062 01FB03F3 		mul	r3, r1, r3
 2835 0066 1344     		add	r3, r3, r2
 2836 0068 3A6D     		ldr	r2, [r7, #80]
 2837 006a 2146     		mov	r1, r4
 2838 006c A2FB0121 		umull	r2, r1, r2, r1
 2839 0070 7962     		str	r1, [r7, #36]
 2840 0072 3A62     		str	r2, [r7, #32]
 2841 0074 7A6A     		ldr	r2, [r7, #36]
 2842 0076 1344     		add	r3, r3, r2
 2843 0078 7B62     		str	r3, [r7, #36]
 2844              		.loc 2 728 17
 2845 007a 3B6A     		ldr	r3, [r7, #32]
 2846 007c 23F00043 		bic	r3, r3, #-2147483648
 2847 0080 BB60     		str	r3, [r7, #8]
 2848 0082 0023     		movs	r3, #0
 2849 0084 FB60     		str	r3, [r7, #12]
 2850              		.loc 2 728 41
 2851 0086 7B6B     		ldr	r3, [r7, #52]
 2852 0088 0022     		movs	r2, #0
 2853 008a 3B60     		str	r3, [r7]
 2854 008c 7A60     		str	r2, [r7, #4]
 2855              		.loc 2 728 4
 2856 008e D7E90234 		ldrd	r3, [r7, #8]
 2857 0092 2246     		mov	r2, r4
 2858 0094 D7E90056 		ldrd	r5, [r7]
 2859 0098 2946     		mov	r1, r5
 2860 009a 01FB02F2 		mul	r2, r1, r2
 2861 009e B446     		mov	ip, r6
 2862 00a0 1846     		mov	r0, r3
 2863 00a2 2146     		mov	r1, r4
 2864 00a4 0346     		mov	r3, r0
 2865 00a6 03FB0CF3 		mul	r3, r3, ip
 2866 00aa 1344     		add	r3, r3, r2
 2867 00ac 0246     		mov	r2, r0
 2868 00ae 2946     		mov	r1, r5
 2869 00b0 A2FB0189 		umull	r8, r9, r2, r1
 2870 00b4 4B44     		add	r3, r3, r9
 2871 00b6 9946     		mov	r9, r3
 2872 00b8 C7E91289 		strd	r8, [r7, #72]
 2873 00bc C7E91289 		strd	r8, [r7, #72]
 729:keygen.c      **** 	d = (uint32_t)((z + w) >> 31) - p;
 2874              		.loc 2 729 20
 2875 00c0 D7E91401 		ldrd	r0, [r7, #80]
 2876 00c4 D7E91223 		ldrd	r2, [r7, #72]
 2877 00c8 10EB020A 		adds	r10, r0, r2
 2878 00cc 41EB030B 		adc	fp, r1, r3
 2879              		.loc 2 729 25
 2880 00d0 4FF00002 		mov	r2, #0
 2881 00d4 4FF00003 		mov	r3, #0
 2882 00d8 4FEADA72 		lsr	r2, r10, #31
 2883 00dc 42EA4B02 		orr	r2, r2, fp, lsl #1
 2884 00e0 4FEADB73 		lsr	r3, fp, #31
 2885              		.loc 2 729 4
 2886 00e4 7B6B     		ldr	r3, [r7, #52]
 2887 00e6 D31A     		subs	r3, r2, r3
 2888 00e8 7B64     		str	r3, [r7, #68]
 730:keygen.c      **** 	d += p & -(d >> 31);
 2889              		.loc 2 730 11
 2890 00ea 7B6C     		ldr	r3, [r7, #68]
 2891 00ec DB17     		asrs	r3, r3, #31
 2892 00ee 1A46     		mov	r2, r3
 2893              		.loc 2 730 9
 2894 00f0 7B6B     		ldr	r3, [r7, #52]
 2895 00f2 1340     		ands	r3, r3, r2
 2896              		.loc 2 730 4
 2897 00f4 7A6C     		ldr	r2, [r7, #68]
 2898 00f6 1344     		add	r3, r3, r2
 2899 00f8 7B64     		str	r3, [r7, #68]
 731:keygen.c      **** 	return d;
 2900              		.loc 2 731 9
 2901 00fa 7B6C     		ldr	r3, [r7, #68]
 732:keygen.c      **** }
 2902              		.loc 2 732 1
 2903 00fc 1846     		mov	r0, r3
 2904 00fe 5837     		adds	r7, r7, #88
 2905              	.LCFI72:
 2906              		.cfi_def_cfa_offset 32
 2907 0100 BD46     		mov	sp, r7
 2908              	.LCFI73:
 2909              		.cfi_def_cfa_register 13
 2910              		@ sp needed
 2911 0102 BDE8F00F 		pop	{r4, r5, r6, r7, r8, r9, r10, fp}
 2912              	.LCFI74:
 2913              		.cfi_restore 11
 2914              		.cfi_restore 10
 2915              		.cfi_restore 9
 2916              		.cfi_restore 8
 2917              		.cfi_restore 7
 2918              		.cfi_restore 6
 2919              		.cfi_restore 5
 2920              		.cfi_restore 4
 2921              		.cfi_def_cfa_offset 0
 2922 0106 7047     		bx	lr
 2923              		.cfi_endproc
 2924              	.LFE24:
 2926              		.section	.text.modp_R2,"ax",%progbits
 2927              		.align	1
 2928              		.syntax unified
 2929              		.thumb
 2930              		.thumb_func
 2931              		.fpu softvfp
 2933              	modp_R2:
 2934              	.LFB25:
 733:keygen.c      **** 
 734:keygen.c      **** /*
 735:keygen.c      ****  * Compute R2 = 2^62 mod p.
 736:keygen.c      ****  */
 737:keygen.c      **** static uint32_t
 738:keygen.c      **** modp_R2(uint32_t p, uint32_t p0i)
 739:keygen.c      **** {
 2935              		.loc 2 739 1
 2936              		.cfi_startproc
 2937              		@ args = 0, pretend = 0, frame = 16
 2938              		@ frame_needed = 1, uses_anonymous_args = 0
 2939 0000 80B5     		push	{r7, lr}
 2940              	.LCFI75:
 2941              		.cfi_def_cfa_offset 8
 2942              		.cfi_offset 7, -8
 2943              		.cfi_offset 14, -4
 2944 0002 84B0     		sub	sp, sp, #16
 2945              	.LCFI76:
 2946              		.cfi_def_cfa_offset 24
 2947 0004 00AF     		add	r7, sp, #0
 2948              	.LCFI77:
 2949              		.cfi_def_cfa_register 7
 2950 0006 7860     		str	r0, [r7, #4]
 2951 0008 3960     		str	r1, [r7]
 740:keygen.c      **** 	uint32_t z;
 741:keygen.c      **** 
 742:keygen.c      **** 	/*
 743:keygen.c      **** 	 * Compute z = 2^31 mod p (this is the value 1 in Montgomery
 744:keygen.c      **** 	 * representation), then double it with an addition.
 745:keygen.c      **** 	 */
 746:keygen.c      **** 	z = modp_R(p);
 2952              		.loc 2 746 6
 2953 000a 7868     		ldr	r0, [r7, #4]
 2954 000c FFF7FEFF 		bl	modp_R
 2955 0010 F860     		str	r0, [r7, #12]
 747:keygen.c      **** 	z = modp_add(z, z, p);
 2956              		.loc 2 747 6
 2957 0012 7A68     		ldr	r2, [r7, #4]
 2958 0014 F968     		ldr	r1, [r7, #12]
 2959 0016 F868     		ldr	r0, [r7, #12]
 2960 0018 FFF7FEFF 		bl	modp_add
 2961 001c F860     		str	r0, [r7, #12]
 748:keygen.c      **** 
 749:keygen.c      **** 	/*
 750:keygen.c      **** 	 * Square it five times to obtain 2^32 in Montgomery representation
 751:keygen.c      **** 	 * (i.e. 2^63 mod p).
 752:keygen.c      **** 	 */
 753:keygen.c      **** 	z = modp_montymul(z, z, p, p0i);
 2962              		.loc 2 753 6
 2963 001e 3B68     		ldr	r3, [r7]
 2964 0020 7A68     		ldr	r2, [r7, #4]
 2965 0022 F968     		ldr	r1, [r7, #12]
 2966 0024 F868     		ldr	r0, [r7, #12]
 2967 0026 FFF7FEFF 		bl	modp_montymul
 2968 002a F860     		str	r0, [r7, #12]
 754:keygen.c      **** 	z = modp_montymul(z, z, p, p0i);
 2969              		.loc 2 754 6
 2970 002c 3B68     		ldr	r3, [r7]
 2971 002e 7A68     		ldr	r2, [r7, #4]
 2972 0030 F968     		ldr	r1, [r7, #12]
 2973 0032 F868     		ldr	r0, [r7, #12]
 2974 0034 FFF7FEFF 		bl	modp_montymul
 2975 0038 F860     		str	r0, [r7, #12]
 755:keygen.c      **** 	z = modp_montymul(z, z, p, p0i);
 2976              		.loc 2 755 6
 2977 003a 3B68     		ldr	r3, [r7]
 2978 003c 7A68     		ldr	r2, [r7, #4]
 2979 003e F968     		ldr	r1, [r7, #12]
 2980 0040 F868     		ldr	r0, [r7, #12]
 2981 0042 FFF7FEFF 		bl	modp_montymul
 2982 0046 F860     		str	r0, [r7, #12]
 756:keygen.c      **** 	z = modp_montymul(z, z, p, p0i);
 2983              		.loc 2 756 6
 2984 0048 3B68     		ldr	r3, [r7]
 2985 004a 7A68     		ldr	r2, [r7, #4]
 2986 004c F968     		ldr	r1, [r7, #12]
 2987 004e F868     		ldr	r0, [r7, #12]
 2988 0050 FFF7FEFF 		bl	modp_montymul
 2989 0054 F860     		str	r0, [r7, #12]
 757:keygen.c      **** 	z = modp_montymul(z, z, p, p0i);
 2990              		.loc 2 757 6
 2991 0056 3B68     		ldr	r3, [r7]
 2992 0058 7A68     		ldr	r2, [r7, #4]
 2993 005a F968     		ldr	r1, [r7, #12]
 2994 005c F868     		ldr	r0, [r7, #12]
 2995 005e FFF7FEFF 		bl	modp_montymul
 2996 0062 F860     		str	r0, [r7, #12]
 758:keygen.c      **** 
 759:keygen.c      **** 	/*
 760:keygen.c      **** 	 * Halve the value mod p to get 2^62.
 761:keygen.c      **** 	 */
 762:keygen.c      **** 	z = (z + (p & -(z & 1))) >> 1;
 2997              		.loc 2 762 20
 2998 0064 FB68     		ldr	r3, [r7, #12]
 2999 0066 03F00103 		and	r3, r3, #1
 3000              		.loc 2 762 16
 3001 006a 5A42     		rsbs	r2, r3, #0
 3002              		.loc 2 762 14
 3003 006c 7B68     		ldr	r3, [r7, #4]
 3004 006e 1A40     		ands	r2, r2, r3
 3005              		.loc 2 762 9
 3006 0070 FB68     		ldr	r3, [r7, #12]
 3007 0072 1344     		add	r3, r3, r2
 3008              		.loc 2 762 4
 3009 0074 5B08     		lsrs	r3, r3, #1
 3010 0076 FB60     		str	r3, [r7, #12]
 763:keygen.c      **** 	return z;
 3011              		.loc 2 763 9
 3012 0078 FB68     		ldr	r3, [r7, #12]
 764:keygen.c      **** }
 3013              		.loc 2 764 1
 3014 007a 1846     		mov	r0, r3
 3015 007c 1037     		adds	r7, r7, #16
 3016              	.LCFI78:
 3017              		.cfi_def_cfa_offset 8
 3018 007e BD46     		mov	sp, r7
 3019              	.LCFI79:
 3020              		.cfi_def_cfa_register 13
 3021              		@ sp needed
 3022 0080 80BD     		pop	{r7, pc}
 3023              		.cfi_endproc
 3024              	.LFE25:
 3026              		.section	.text.modp_Rx,"ax",%progbits
 3027              		.align	1
 3028              		.syntax unified
 3029              		.thumb
 3030              		.thumb_func
 3031              		.fpu softvfp
 3033              	modp_Rx:
 3034              	.LFB26:
 765:keygen.c      **** 
 766:keygen.c      **** /*
 767:keygen.c      ****  * Compute 2^(31*x) modulo p. This works for integers x up to 2^11.
 768:keygen.c      ****  * p must be prime such that 2^30 < p < 2^31; p0i must be equal to
 769:keygen.c      ****  * -1/p mod 2^31; R2 must be equal to 2^62 mod p.
 770:keygen.c      ****  */
 771:keygen.c      **** static inline uint32_t
 772:keygen.c      **** modp_Rx(unsigned x, uint32_t p, uint32_t p0i, uint32_t R2)
 773:keygen.c      **** {
 3035              		.loc 2 773 1
 3036              		.cfi_startproc
 3037              		@ args = 0, pretend = 0, frame = 32
 3038              		@ frame_needed = 1, uses_anonymous_args = 0
 3039 0000 80B5     		push	{r7, lr}
 3040              	.LCFI80:
 3041              		.cfi_def_cfa_offset 8
 3042              		.cfi_offset 7, -8
 3043              		.cfi_offset 14, -4
 3044 0002 88B0     		sub	sp, sp, #32
 3045              	.LCFI81:
 3046              		.cfi_def_cfa_offset 40
 3047 0004 00AF     		add	r7, sp, #0
 3048              	.LCFI82:
 3049              		.cfi_def_cfa_register 7
 3050 0006 F860     		str	r0, [r7, #12]
 3051 0008 B960     		str	r1, [r7, #8]
 3052 000a 7A60     		str	r2, [r7, #4]
 3053 000c 3B60     		str	r3, [r7]
 774:keygen.c      **** 	int i;
 775:keygen.c      **** 	uint32_t r, z;
 776:keygen.c      **** 
 777:keygen.c      **** 	/*
 778:keygen.c      **** 	 * 2^(31*x) = (2^31)*(2^(31*(x-1))); i.e. we want the Montgomery
 779:keygen.c      **** 	 * representation of (2^31)^e mod p, where e = x-1.
 780:keygen.c      **** 	 * R2 is 2^31 in Montgomery representation.
 781:keygen.c      **** 	 */
 782:keygen.c      **** 	x --;
 3054              		.loc 2 782 4
 3055 000e FB68     		ldr	r3, [r7, #12]
 3056 0010 013B     		subs	r3, r3, #1
 3057 0012 FB60     		str	r3, [r7, #12]
 783:keygen.c      **** 	r = R2;
 3058              		.loc 2 783 4
 3059 0014 3B68     		ldr	r3, [r7]
 3060 0016 BB61     		str	r3, [r7, #24]
 784:keygen.c      **** 	z = modp_R(p);
 3061              		.loc 2 784 6
 3062 0018 B868     		ldr	r0, [r7, #8]
 3063 001a FFF7FEFF 		bl	modp_R
 3064 001e 7861     		str	r0, [r7, #20]
 785:keygen.c      **** 	for (i = 0; (1U << i) <= x; i ++) {
 3065              		.loc 2 785 9
 3066 0020 0023     		movs	r3, #0
 3067 0022 FB61     		str	r3, [r7, #28]
 3068              		.loc 2 785 2
 3069 0024 18E0     		b	.L30
 3070              	.L32:
 786:keygen.c      **** 		if ((x & (1U << i)) != 0) {
 3071              		.loc 2 786 23
 3072 0026 FA68     		ldr	r2, [r7, #12]
 3073 0028 FB69     		ldr	r3, [r7, #28]
 3074 002a 22FA03F3 		lsr	r3, r2, r3
 3075 002e 03F00103 		and	r3, r3, #1
 3076              		.loc 2 786 6
 3077 0032 002B     		cmp	r3, #0
 3078 0034 06D0     		beq	.L31
 787:keygen.c      **** 			z = modp_montymul(z, r, p, p0i);
 3079              		.loc 2 787 8
 3080 0036 7B68     		ldr	r3, [r7, #4]
 3081 0038 BA68     		ldr	r2, [r7, #8]
 3082 003a B969     		ldr	r1, [r7, #24]
 3083 003c 7869     		ldr	r0, [r7, #20]
 3084 003e FFF7FEFF 		bl	modp_montymul
 3085 0042 7861     		str	r0, [r7, #20]
 3086              	.L31:
 788:keygen.c      **** 		}
 789:keygen.c      **** 		r = modp_montymul(r, r, p, p0i);
 3087              		.loc 2 789 7 discriminator 2
 3088 0044 7B68     		ldr	r3, [r7, #4]
 3089 0046 BA68     		ldr	r2, [r7, #8]
 3090 0048 B969     		ldr	r1, [r7, #24]
 3091 004a B869     		ldr	r0, [r7, #24]
 3092 004c FFF7FEFF 		bl	modp_montymul
 3093 0050 B861     		str	r0, [r7, #24]
 785:keygen.c      **** 		if ((x & (1U << i)) != 0) {
 3094              		.loc 2 785 32 discriminator 2
 3095 0052 FB69     		ldr	r3, [r7, #28]
 3096 0054 0133     		adds	r3, r3, #1
 3097 0056 FB61     		str	r3, [r7, #28]
 3098              	.L30:
 785:keygen.c      **** 		if ((x & (1U << i)) != 0) {
 3099              		.loc 2 785 18 discriminator 1
 3100 0058 0122     		movs	r2, #1
 3101 005a FB69     		ldr	r3, [r7, #28]
 3102 005c 02FA03F3 		lsl	r3, r2, r3
 785:keygen.c      **** 		if ((x & (1U << i)) != 0) {
 3103              		.loc 2 785 2 discriminator 1
 3104 0060 FA68     		ldr	r2, [r7, #12]
 3105 0062 9A42     		cmp	r2, r3
 3106 0064 DFD2     		bcs	.L32
 790:keygen.c      **** 	}
 791:keygen.c      **** 	return z;
 3107              		.loc 2 791 9
 3108 0066 7B69     		ldr	r3, [r7, #20]
 792:keygen.c      **** }
 3109              		.loc 2 792 1
 3110 0068 1846     		mov	r0, r3
 3111 006a 2037     		adds	r7, r7, #32
 3112              	.LCFI83:
 3113              		.cfi_def_cfa_offset 8
 3114 006c BD46     		mov	sp, r7
 3115              	.LCFI84:
 3116              		.cfi_def_cfa_register 13
 3117              		@ sp needed
 3118 006e 80BD     		pop	{r7, pc}
 3119              		.cfi_endproc
 3120              	.LFE26:
 3122              		.section	.text.modp_div,"ax",%progbits
 3123              		.align	1
 3124              		.syntax unified
 3125              		.thumb
 3126              		.thumb_func
 3127              		.fpu softvfp
 3129              	modp_div:
 3130              	.LFB27:
 793:keygen.c      **** 
 794:keygen.c      **** /*
 795:keygen.c      ****  * Division modulo p. If the divisor (b) is 0, then 0 is returned.
 796:keygen.c      ****  * This function computes proper results only when p is prime.
 797:keygen.c      ****  * Parameters:
 798:keygen.c      ****  *   a     dividend
 799:keygen.c      ****  *   b     divisor
 800:keygen.c      ****  *   p     odd prime modulus
 801:keygen.c      ****  *   p0i   -1/p mod 2^31
 802:keygen.c      ****  *   R     2^31 mod R
 803:keygen.c      ****  */
 804:keygen.c      **** static uint32_t
 805:keygen.c      **** modp_div(uint32_t a, uint32_t b, uint32_t p, uint32_t p0i, uint32_t R)
 806:keygen.c      **** {
 3131              		.loc 2 806 1
 3132              		.cfi_startproc
 3133              		@ args = 4, pretend = 0, frame = 32
 3134              		@ frame_needed = 1, uses_anonymous_args = 0
 3135 0000 80B5     		push	{r7, lr}
 3136              	.LCFI85:
 3137              		.cfi_def_cfa_offset 8
 3138              		.cfi_offset 7, -8
 3139              		.cfi_offset 14, -4
 3140 0002 88B0     		sub	sp, sp, #32
 3141              	.LCFI86:
 3142              		.cfi_def_cfa_offset 40
 3143 0004 00AF     		add	r7, sp, #0
 3144              	.LCFI87:
 3145              		.cfi_def_cfa_register 7
 3146 0006 F860     		str	r0, [r7, #12]
 3147 0008 B960     		str	r1, [r7, #8]
 3148 000a 7A60     		str	r2, [r7, #4]
 3149 000c 3B60     		str	r3, [r7]
 807:keygen.c      **** 	uint32_t z, e;
 808:keygen.c      **** 	int i;
 809:keygen.c      **** 
 810:keygen.c      **** 	e = p - 2;
 3150              		.loc 2 810 4
 3151 000e 7B68     		ldr	r3, [r7, #4]
 3152 0010 023B     		subs	r3, r3, #2
 3153 0012 7B61     		str	r3, [r7, #20]
 811:keygen.c      **** 	z = R;
 3154              		.loc 2 811 4
 3155 0014 BB6A     		ldr	r3, [r7, #40]
 3156 0016 FB61     		str	r3, [r7, #28]
 812:keygen.c      **** 	for (i = 30; i >= 0; i --) {
 3157              		.loc 2 812 9
 3158 0018 1E23     		movs	r3, #30
 3159 001a BB61     		str	r3, [r7, #24]
 3160              		.loc 2 812 2
 3161 001c 1EE0     		b	.L35
 3162              	.L36:
 3163              	.LBB2:
 813:keygen.c      **** 		uint32_t z2;
 814:keygen.c      **** 
 815:keygen.c      **** 		z = modp_montymul(z, z, p, p0i);
 3164              		.loc 2 815 7 discriminator 3
 3165 001e 3B68     		ldr	r3, [r7]
 3166 0020 7A68     		ldr	r2, [r7, #4]
 3167 0022 F969     		ldr	r1, [r7, #28]
 3168 0024 F869     		ldr	r0, [r7, #28]
 3169 0026 FFF7FEFF 		bl	modp_montymul
 3170 002a F861     		str	r0, [r7, #28]
 816:keygen.c      **** 		z2 = modp_montymul(z, b, p, p0i);
 3171              		.loc 2 816 8 discriminator 3
 3172 002c 3B68     		ldr	r3, [r7]
 3173 002e 7A68     		ldr	r2, [r7, #4]
 3174 0030 B968     		ldr	r1, [r7, #8]
 3175 0032 F869     		ldr	r0, [r7, #28]
 3176 0034 FFF7FEFF 		bl	modp_montymul
 3177 0038 3861     		str	r0, [r7, #16]
 817:keygen.c      **** 		z ^= (z ^ z2) & -(uint32_t)((e >> i) & 1);
 3178              		.loc 2 817 11 discriminator 3
 3179 003a FA69     		ldr	r2, [r7, #28]
 3180 003c 3B69     		ldr	r3, [r7, #16]
 3181 003e 5A40     		eors	r2, r2, r3
 3182              		.loc 2 817 34 discriminator 3
 3183 0040 7969     		ldr	r1, [r7, #20]
 3184 0042 BB69     		ldr	r3, [r7, #24]
 3185 0044 21FA03F3 		lsr	r3, r1, r3
 3186              		.loc 2 817 20 discriminator 3
 3187 0048 03F00103 		and	r3, r3, #1
 3188              		.loc 2 817 19 discriminator 3
 3189 004c 5B42     		rsbs	r3, r3, #0
 3190              		.loc 2 817 17 discriminator 3
 3191 004e 1340     		ands	r3, r3, r2
 3192              		.loc 2 817 5 discriminator 3
 3193 0050 FA69     		ldr	r2, [r7, #28]
 3194 0052 5340     		eors	r3, r3, r2
 3195 0054 FB61     		str	r3, [r7, #28]
 3196              	.LBE2:
 812:keygen.c      **** 		uint32_t z2;
 3197              		.loc 2 812 25 discriminator 3
 3198 0056 BB69     		ldr	r3, [r7, #24]
 3199 0058 013B     		subs	r3, r3, #1
 3200 005a BB61     		str	r3, [r7, #24]
 3201              	.L35:
 812:keygen.c      **** 		uint32_t z2;
 3202              		.loc 2 812 2 discriminator 1
 3203 005c BB69     		ldr	r3, [r7, #24]
 3204 005e 002B     		cmp	r3, #0
 3205 0060 DDDA     		bge	.L36
 818:keygen.c      **** 	}
 819:keygen.c      **** 
 820:keygen.c      **** 	/*
 821:keygen.c      **** 	 * The loop above just assumed that b was in Montgomery
 822:keygen.c      **** 	 * representation, i.e. really contained b*R; under that
 823:keygen.c      **** 	 * assumption, it returns 1/b in Montgomery representation,
 824:keygen.c      **** 	 * which is R/b. But we gave it b in normal representation,
 825:keygen.c      **** 	 * so the loop really returned R/(b/R) = R^2/b.
 826:keygen.c      **** 	 *
 827:keygen.c      **** 	 * We want a/b, so we need one Montgomery multiplication with a,
 828:keygen.c      **** 	 * which also remove one of the R factors, and another such
 829:keygen.c      **** 	 * multiplication to remove the second R factor.
 830:keygen.c      **** 	 */
 831:keygen.c      **** 	z = modp_montymul(z, 1, p, p0i);
 3206              		.loc 2 831 6
 3207 0062 3B68     		ldr	r3, [r7]
 3208 0064 7A68     		ldr	r2, [r7, #4]
 3209 0066 0121     		movs	r1, #1
 3210 0068 F869     		ldr	r0, [r7, #28]
 3211 006a FFF7FEFF 		bl	modp_montymul
 3212 006e F861     		str	r0, [r7, #28]
 832:keygen.c      **** 	return modp_montymul(a, z, p, p0i);
 3213              		.loc 2 832 9
 3214 0070 3B68     		ldr	r3, [r7]
 3215 0072 7A68     		ldr	r2, [r7, #4]
 3216 0074 F969     		ldr	r1, [r7, #28]
 3217 0076 F868     		ldr	r0, [r7, #12]
 3218 0078 FFF7FEFF 		bl	modp_montymul
 3219 007c 0346     		mov	r3, r0
 833:keygen.c      **** }
 3220              		.loc 2 833 1
 3221 007e 1846     		mov	r0, r3
 3222 0080 2037     		adds	r7, r7, #32
 3223              	.LCFI88:
 3224              		.cfi_def_cfa_offset 8
 3225 0082 BD46     		mov	sp, r7
 3226              	.LCFI89:
 3227              		.cfi_def_cfa_register 13
 3228              		@ sp needed
 3229 0084 80BD     		pop	{r7, pc}
 3230              		.cfi_endproc
 3231              	.LFE27:
 3233              		.section	.rodata
 3234              		.align	2
 3237              	REV10:
 3238 19b8 0000     		.short	0
 3239 19ba 0002     		.short	512
 3240 19bc 0001     		.short	256
 3241 19be 0003     		.short	768
 3242 19c0 8000     		.short	128
 3243 19c2 8002     		.short	640
 3244 19c4 8001     		.short	384
 3245 19c6 8003     		.short	896
 3246 19c8 4000     		.short	64
 3247 19ca 4002     		.short	576
 3248 19cc 4001     		.short	320
 3249 19ce 4003     		.short	832
 3250 19d0 C000     		.short	192
 3251 19d2 C002     		.short	704
 3252 19d4 C001     		.short	448
 3253 19d6 C003     		.short	960
 3254 19d8 2000     		.short	32
 3255 19da 2002     		.short	544
 3256 19dc 2001     		.short	288
 3257 19de 2003     		.short	800
 3258 19e0 A000     		.short	160
 3259 19e2 A002     		.short	672
 3260 19e4 A001     		.short	416
 3261 19e6 A003     		.short	928
 3262 19e8 6000     		.short	96
 3263 19ea 6002     		.short	608
 3264 19ec 6001     		.short	352
 3265 19ee 6003     		.short	864
 3266 19f0 E000     		.short	224
 3267 19f2 E002     		.short	736
 3268 19f4 E001     		.short	480
 3269 19f6 E003     		.short	992
 3270 19f8 1000     		.short	16
 3271 19fa 1002     		.short	528
 3272 19fc 1001     		.short	272
 3273 19fe 1003     		.short	784
 3274 1a00 9000     		.short	144
 3275 1a02 9002     		.short	656
 3276 1a04 9001     		.short	400
 3277 1a06 9003     		.short	912
 3278 1a08 5000     		.short	80
 3279 1a0a 5002     		.short	592
 3280 1a0c 5001     		.short	336
 3281 1a0e 5003     		.short	848
 3282 1a10 D000     		.short	208
 3283 1a12 D002     		.short	720
 3284 1a14 D001     		.short	464
 3285 1a16 D003     		.short	976
 3286 1a18 3000     		.short	48
 3287 1a1a 3002     		.short	560
 3288 1a1c 3001     		.short	304
 3289 1a1e 3003     		.short	816
 3290 1a20 B000     		.short	176
 3291 1a22 B002     		.short	688
 3292 1a24 B001     		.short	432
 3293 1a26 B003     		.short	944
 3294 1a28 7000     		.short	112
 3295 1a2a 7002     		.short	624
 3296 1a2c 7001     		.short	368
 3297 1a2e 7003     		.short	880
 3298 1a30 F000     		.short	240
 3299 1a32 F002     		.short	752
 3300 1a34 F001     		.short	496
 3301 1a36 F003     		.short	1008
 3302 1a38 0800     		.short	8
 3303 1a3a 0802     		.short	520
 3304 1a3c 0801     		.short	264
 3305 1a3e 0803     		.short	776
 3306 1a40 8800     		.short	136
 3307 1a42 8802     		.short	648
 3308 1a44 8801     		.short	392
 3309 1a46 8803     		.short	904
 3310 1a48 4800     		.short	72
 3311 1a4a 4802     		.short	584
 3312 1a4c 4801     		.short	328
 3313 1a4e 4803     		.short	840
 3314 1a50 C800     		.short	200
 3315 1a52 C802     		.short	712
 3316 1a54 C801     		.short	456
 3317 1a56 C803     		.short	968
 3318 1a58 2800     		.short	40
 3319 1a5a 2802     		.short	552
 3320 1a5c 2801     		.short	296
 3321 1a5e 2803     		.short	808
 3322 1a60 A800     		.short	168
 3323 1a62 A802     		.short	680
 3324 1a64 A801     		.short	424
 3325 1a66 A803     		.short	936
 3326 1a68 6800     		.short	104
 3327 1a6a 6802     		.short	616
 3328 1a6c 6801     		.short	360
 3329 1a6e 6803     		.short	872
 3330 1a70 E800     		.short	232
 3331 1a72 E802     		.short	744
 3332 1a74 E801     		.short	488
 3333 1a76 E803     		.short	1000
 3334 1a78 1800     		.short	24
 3335 1a7a 1802     		.short	536
 3336 1a7c 1801     		.short	280
 3337 1a7e 1803     		.short	792
 3338 1a80 9800     		.short	152
 3339 1a82 9802     		.short	664
 3340 1a84 9801     		.short	408
 3341 1a86 9803     		.short	920
 3342 1a88 5800     		.short	88
 3343 1a8a 5802     		.short	600
 3344 1a8c 5801     		.short	344
 3345 1a8e 5803     		.short	856
 3346 1a90 D800     		.short	216
 3347 1a92 D802     		.short	728
 3348 1a94 D801     		.short	472
 3349 1a96 D803     		.short	984
 3350 1a98 3800     		.short	56
 3351 1a9a 3802     		.short	568
 3352 1a9c 3801     		.short	312
 3353 1a9e 3803     		.short	824
 3354 1aa0 B800     		.short	184
 3355 1aa2 B802     		.short	696
 3356 1aa4 B801     		.short	440
 3357 1aa6 B803     		.short	952
 3358 1aa8 7800     		.short	120
 3359 1aaa 7802     		.short	632
 3360 1aac 7801     		.short	376
 3361 1aae 7803     		.short	888
 3362 1ab0 F800     		.short	248
 3363 1ab2 F802     		.short	760
 3364 1ab4 F801     		.short	504
 3365 1ab6 F803     		.short	1016
 3366 1ab8 0400     		.short	4
 3367 1aba 0402     		.short	516
 3368 1abc 0401     		.short	260
 3369 1abe 0403     		.short	772
 3370 1ac0 8400     		.short	132
 3371 1ac2 8402     		.short	644
 3372 1ac4 8401     		.short	388
 3373 1ac6 8403     		.short	900
 3374 1ac8 4400     		.short	68
 3375 1aca 4402     		.short	580
 3376 1acc 4401     		.short	324
 3377 1ace 4403     		.short	836
 3378 1ad0 C400     		.short	196
 3379 1ad2 C402     		.short	708
 3380 1ad4 C401     		.short	452
 3381 1ad6 C403     		.short	964
 3382 1ad8 2400     		.short	36
 3383 1ada 2402     		.short	548
 3384 1adc 2401     		.short	292
 3385 1ade 2403     		.short	804
 3386 1ae0 A400     		.short	164
 3387 1ae2 A402     		.short	676
 3388 1ae4 A401     		.short	420
 3389 1ae6 A403     		.short	932
 3390 1ae8 6400     		.short	100
 3391 1aea 6402     		.short	612
 3392 1aec 6401     		.short	356
 3393 1aee 6403     		.short	868
 3394 1af0 E400     		.short	228
 3395 1af2 E402     		.short	740
 3396 1af4 E401     		.short	484
 3397 1af6 E403     		.short	996
 3398 1af8 1400     		.short	20
 3399 1afa 1402     		.short	532
 3400 1afc 1401     		.short	276
 3401 1afe 1403     		.short	788
 3402 1b00 9400     		.short	148
 3403 1b02 9402     		.short	660
 3404 1b04 9401     		.short	404
 3405 1b06 9403     		.short	916
 3406 1b08 5400     		.short	84
 3407 1b0a 5402     		.short	596
 3408 1b0c 5401     		.short	340
 3409 1b0e 5403     		.short	852
 3410 1b10 D400     		.short	212
 3411 1b12 D402     		.short	724
 3412 1b14 D401     		.short	468
 3413 1b16 D403     		.short	980
 3414 1b18 3400     		.short	52
 3415 1b1a 3402     		.short	564
 3416 1b1c 3401     		.short	308
 3417 1b1e 3403     		.short	820
 3418 1b20 B400     		.short	180
 3419 1b22 B402     		.short	692
 3420 1b24 B401     		.short	436
 3421 1b26 B403     		.short	948
 3422 1b28 7400     		.short	116
 3423 1b2a 7402     		.short	628
 3424 1b2c 7401     		.short	372
 3425 1b2e 7403     		.short	884
 3426 1b30 F400     		.short	244
 3427 1b32 F402     		.short	756
 3428 1b34 F401     		.short	500
 3429 1b36 F403     		.short	1012
 3430 1b38 0C00     		.short	12
 3431 1b3a 0C02     		.short	524
 3432 1b3c 0C01     		.short	268
 3433 1b3e 0C03     		.short	780
 3434 1b40 8C00     		.short	140
 3435 1b42 8C02     		.short	652
 3436 1b44 8C01     		.short	396
 3437 1b46 8C03     		.short	908
 3438 1b48 4C00     		.short	76
 3439 1b4a 4C02     		.short	588
 3440 1b4c 4C01     		.short	332
 3441 1b4e 4C03     		.short	844
 3442 1b50 CC00     		.short	204
 3443 1b52 CC02     		.short	716
 3444 1b54 CC01     		.short	460
 3445 1b56 CC03     		.short	972
 3446 1b58 2C00     		.short	44
 3447 1b5a 2C02     		.short	556
 3448 1b5c 2C01     		.short	300
 3449 1b5e 2C03     		.short	812
 3450 1b60 AC00     		.short	172
 3451 1b62 AC02     		.short	684
 3452 1b64 AC01     		.short	428
 3453 1b66 AC03     		.short	940
 3454 1b68 6C00     		.short	108
 3455 1b6a 6C02     		.short	620
 3456 1b6c 6C01     		.short	364
 3457 1b6e 6C03     		.short	876
 3458 1b70 EC00     		.short	236
 3459 1b72 EC02     		.short	748
 3460 1b74 EC01     		.short	492
 3461 1b76 EC03     		.short	1004
 3462 1b78 1C00     		.short	28
 3463 1b7a 1C02     		.short	540
 3464 1b7c 1C01     		.short	284
 3465 1b7e 1C03     		.short	796
 3466 1b80 9C00     		.short	156
 3467 1b82 9C02     		.short	668
 3468 1b84 9C01     		.short	412
 3469 1b86 9C03     		.short	924
 3470 1b88 5C00     		.short	92
 3471 1b8a 5C02     		.short	604
 3472 1b8c 5C01     		.short	348
 3473 1b8e 5C03     		.short	860
 3474 1b90 DC00     		.short	220
 3475 1b92 DC02     		.short	732
 3476 1b94 DC01     		.short	476
 3477 1b96 DC03     		.short	988
 3478 1b98 3C00     		.short	60
 3479 1b9a 3C02     		.short	572
 3480 1b9c 3C01     		.short	316
 3481 1b9e 3C03     		.short	828
 3482 1ba0 BC00     		.short	188
 3483 1ba2 BC02     		.short	700
 3484 1ba4 BC01     		.short	444
 3485 1ba6 BC03     		.short	956
 3486 1ba8 7C00     		.short	124
 3487 1baa 7C02     		.short	636
 3488 1bac 7C01     		.short	380
 3489 1bae 7C03     		.short	892
 3490 1bb0 FC00     		.short	252
 3491 1bb2 FC02     		.short	764
 3492 1bb4 FC01     		.short	508
 3493 1bb6 FC03     		.short	1020
 3494 1bb8 0200     		.short	2
 3495 1bba 0202     		.short	514
 3496 1bbc 0201     		.short	258
 3497 1bbe 0203     		.short	770
 3498 1bc0 8200     		.short	130
 3499 1bc2 8202     		.short	642
 3500 1bc4 8201     		.short	386
 3501 1bc6 8203     		.short	898
 3502 1bc8 4200     		.short	66
 3503 1bca 4202     		.short	578
 3504 1bcc 4201     		.short	322
 3505 1bce 4203     		.short	834
 3506 1bd0 C200     		.short	194
 3507 1bd2 C202     		.short	706
 3508 1bd4 C201     		.short	450
 3509 1bd6 C203     		.short	962
 3510 1bd8 2200     		.short	34
 3511 1bda 2202     		.short	546
 3512 1bdc 2201     		.short	290
 3513 1bde 2203     		.short	802
 3514 1be0 A200     		.short	162
 3515 1be2 A202     		.short	674
 3516 1be4 A201     		.short	418
 3517 1be6 A203     		.short	930
 3518 1be8 6200     		.short	98
 3519 1bea 6202     		.short	610
 3520 1bec 6201     		.short	354
 3521 1bee 6203     		.short	866
 3522 1bf0 E200     		.short	226
 3523 1bf2 E202     		.short	738
 3524 1bf4 E201     		.short	482
 3525 1bf6 E203     		.short	994
 3526 1bf8 1200     		.short	18
 3527 1bfa 1202     		.short	530
 3528 1bfc 1201     		.short	274
 3529 1bfe 1203     		.short	786
 3530 1c00 9200     		.short	146
 3531 1c02 9202     		.short	658
 3532 1c04 9201     		.short	402
 3533 1c06 9203     		.short	914
 3534 1c08 5200     		.short	82
 3535 1c0a 5202     		.short	594
 3536 1c0c 5201     		.short	338
 3537 1c0e 5203     		.short	850
 3538 1c10 D200     		.short	210
 3539 1c12 D202     		.short	722
 3540 1c14 D201     		.short	466
 3541 1c16 D203     		.short	978
 3542 1c18 3200     		.short	50
 3543 1c1a 3202     		.short	562
 3544 1c1c 3201     		.short	306
 3545 1c1e 3203     		.short	818
 3546 1c20 B200     		.short	178
 3547 1c22 B202     		.short	690
 3548 1c24 B201     		.short	434
 3549 1c26 B203     		.short	946
 3550 1c28 7200     		.short	114
 3551 1c2a 7202     		.short	626
 3552 1c2c 7201     		.short	370
 3553 1c2e 7203     		.short	882
 3554 1c30 F200     		.short	242
 3555 1c32 F202     		.short	754
 3556 1c34 F201     		.short	498
 3557 1c36 F203     		.short	1010
 3558 1c38 0A00     		.short	10
 3559 1c3a 0A02     		.short	522
 3560 1c3c 0A01     		.short	266
 3561 1c3e 0A03     		.short	778
 3562 1c40 8A00     		.short	138
 3563 1c42 8A02     		.short	650
 3564 1c44 8A01     		.short	394
 3565 1c46 8A03     		.short	906
 3566 1c48 4A00     		.short	74
 3567 1c4a 4A02     		.short	586
 3568 1c4c 4A01     		.short	330
 3569 1c4e 4A03     		.short	842
 3570 1c50 CA00     		.short	202
 3571 1c52 CA02     		.short	714
 3572 1c54 CA01     		.short	458
 3573 1c56 CA03     		.short	970
 3574 1c58 2A00     		.short	42
 3575 1c5a 2A02     		.short	554
 3576 1c5c 2A01     		.short	298
 3577 1c5e 2A03     		.short	810
 3578 1c60 AA00     		.short	170
 3579 1c62 AA02     		.short	682
 3580 1c64 AA01     		.short	426
 3581 1c66 AA03     		.short	938
 3582 1c68 6A00     		.short	106
 3583 1c6a 6A02     		.short	618
 3584 1c6c 6A01     		.short	362
 3585 1c6e 6A03     		.short	874
 3586 1c70 EA00     		.short	234
 3587 1c72 EA02     		.short	746
 3588 1c74 EA01     		.short	490
 3589 1c76 EA03     		.short	1002
 3590 1c78 1A00     		.short	26
 3591 1c7a 1A02     		.short	538
 3592 1c7c 1A01     		.short	282
 3593 1c7e 1A03     		.short	794
 3594 1c80 9A00     		.short	154
 3595 1c82 9A02     		.short	666
 3596 1c84 9A01     		.short	410
 3597 1c86 9A03     		.short	922
 3598 1c88 5A00     		.short	90
 3599 1c8a 5A02     		.short	602
 3600 1c8c 5A01     		.short	346
 3601 1c8e 5A03     		.short	858
 3602 1c90 DA00     		.short	218
 3603 1c92 DA02     		.short	730
 3604 1c94 DA01     		.short	474
 3605 1c96 DA03     		.short	986
 3606 1c98 3A00     		.short	58
 3607 1c9a 3A02     		.short	570
 3608 1c9c 3A01     		.short	314
 3609 1c9e 3A03     		.short	826
 3610 1ca0 BA00     		.short	186
 3611 1ca2 BA02     		.short	698
 3612 1ca4 BA01     		.short	442
 3613 1ca6 BA03     		.short	954
 3614 1ca8 7A00     		.short	122
 3615 1caa 7A02     		.short	634
 3616 1cac 7A01     		.short	378
 3617 1cae 7A03     		.short	890
 3618 1cb0 FA00     		.short	250
 3619 1cb2 FA02     		.short	762
 3620 1cb4 FA01     		.short	506
 3621 1cb6 FA03     		.short	1018
 3622 1cb8 0600     		.short	6
 3623 1cba 0602     		.short	518
 3624 1cbc 0601     		.short	262
 3625 1cbe 0603     		.short	774
 3626 1cc0 8600     		.short	134
 3627 1cc2 8602     		.short	646
 3628 1cc4 8601     		.short	390
 3629 1cc6 8603     		.short	902
 3630 1cc8 4600     		.short	70
 3631 1cca 4602     		.short	582
 3632 1ccc 4601     		.short	326
 3633 1cce 4603     		.short	838
 3634 1cd0 C600     		.short	198
 3635 1cd2 C602     		.short	710
 3636 1cd4 C601     		.short	454
 3637 1cd6 C603     		.short	966
 3638 1cd8 2600     		.short	38
 3639 1cda 2602     		.short	550
 3640 1cdc 2601     		.short	294
 3641 1cde 2603     		.short	806
 3642 1ce0 A600     		.short	166
 3643 1ce2 A602     		.short	678
 3644 1ce4 A601     		.short	422
 3645 1ce6 A603     		.short	934
 3646 1ce8 6600     		.short	102
 3647 1cea 6602     		.short	614
 3648 1cec 6601     		.short	358
 3649 1cee 6603     		.short	870
 3650 1cf0 E600     		.short	230
 3651 1cf2 E602     		.short	742
 3652 1cf4 E601     		.short	486
 3653 1cf6 E603     		.short	998
 3654 1cf8 1600     		.short	22
 3655 1cfa 1602     		.short	534
 3656 1cfc 1601     		.short	278
 3657 1cfe 1603     		.short	790
 3658 1d00 9600     		.short	150
 3659 1d02 9602     		.short	662
 3660 1d04 9601     		.short	406
 3661 1d06 9603     		.short	918
 3662 1d08 5600     		.short	86
 3663 1d0a 5602     		.short	598
 3664 1d0c 5601     		.short	342
 3665 1d0e 5603     		.short	854
 3666 1d10 D600     		.short	214
 3667 1d12 D602     		.short	726
 3668 1d14 D601     		.short	470
 3669 1d16 D603     		.short	982
 3670 1d18 3600     		.short	54
 3671 1d1a 3602     		.short	566
 3672 1d1c 3601     		.short	310
 3673 1d1e 3603     		.short	822
 3674 1d20 B600     		.short	182
 3675 1d22 B602     		.short	694
 3676 1d24 B601     		.short	438
 3677 1d26 B603     		.short	950
 3678 1d28 7600     		.short	118
 3679 1d2a 7602     		.short	630
 3680 1d2c 7601     		.short	374
 3681 1d2e 7603     		.short	886
 3682 1d30 F600     		.short	246
 3683 1d32 F602     		.short	758
 3684 1d34 F601     		.short	502
 3685 1d36 F603     		.short	1014
 3686 1d38 0E00     		.short	14
 3687 1d3a 0E02     		.short	526
 3688 1d3c 0E01     		.short	270
 3689 1d3e 0E03     		.short	782
 3690 1d40 8E00     		.short	142
 3691 1d42 8E02     		.short	654
 3692 1d44 8E01     		.short	398
 3693 1d46 8E03     		.short	910
 3694 1d48 4E00     		.short	78
 3695 1d4a 4E02     		.short	590
 3696 1d4c 4E01     		.short	334
 3697 1d4e 4E03     		.short	846
 3698 1d50 CE00     		.short	206
 3699 1d52 CE02     		.short	718
 3700 1d54 CE01     		.short	462
 3701 1d56 CE03     		.short	974
 3702 1d58 2E00     		.short	46
 3703 1d5a 2E02     		.short	558
 3704 1d5c 2E01     		.short	302
 3705 1d5e 2E03     		.short	814
 3706 1d60 AE00     		.short	174
 3707 1d62 AE02     		.short	686
 3708 1d64 AE01     		.short	430
 3709 1d66 AE03     		.short	942
 3710 1d68 6E00     		.short	110
 3711 1d6a 6E02     		.short	622
 3712 1d6c 6E01     		.short	366
 3713 1d6e 6E03     		.short	878
 3714 1d70 EE00     		.short	238
 3715 1d72 EE02     		.short	750
 3716 1d74 EE01     		.short	494
 3717 1d76 EE03     		.short	1006
 3718 1d78 1E00     		.short	30
 3719 1d7a 1E02     		.short	542
 3720 1d7c 1E01     		.short	286
 3721 1d7e 1E03     		.short	798
 3722 1d80 9E00     		.short	158
 3723 1d82 9E02     		.short	670
 3724 1d84 9E01     		.short	414
 3725 1d86 9E03     		.short	926
 3726 1d88 5E00     		.short	94
 3727 1d8a 5E02     		.short	606
 3728 1d8c 5E01     		.short	350
 3729 1d8e 5E03     		.short	862
 3730 1d90 DE00     		.short	222
 3731 1d92 DE02     		.short	734
 3732 1d94 DE01     		.short	478
 3733 1d96 DE03     		.short	990
 3734 1d98 3E00     		.short	62
 3735 1d9a 3E02     		.short	574
 3736 1d9c 3E01     		.short	318
 3737 1d9e 3E03     		.short	830
 3738 1da0 BE00     		.short	190
 3739 1da2 BE02     		.short	702
 3740 1da4 BE01     		.short	446
 3741 1da6 BE03     		.short	958
 3742 1da8 7E00     		.short	126
 3743 1daa 7E02     		.short	638
 3744 1dac 7E01     		.short	382
 3745 1dae 7E03     		.short	894
 3746 1db0 FE00     		.short	254
 3747 1db2 FE02     		.short	766
 3748 1db4 FE01     		.short	510
 3749 1db6 FE03     		.short	1022
 3750 1db8 0100     		.short	1
 3751 1dba 0102     		.short	513
 3752 1dbc 0101     		.short	257
 3753 1dbe 0103     		.short	769
 3754 1dc0 8100     		.short	129
 3755 1dc2 8102     		.short	641
 3756 1dc4 8101     		.short	385
 3757 1dc6 8103     		.short	897
 3758 1dc8 4100     		.short	65
 3759 1dca 4102     		.short	577
 3760 1dcc 4101     		.short	321
 3761 1dce 4103     		.short	833
 3762 1dd0 C100     		.short	193
 3763 1dd2 C102     		.short	705
 3764 1dd4 C101     		.short	449
 3765 1dd6 C103     		.short	961
 3766 1dd8 2100     		.short	33
 3767 1dda 2102     		.short	545
 3768 1ddc 2101     		.short	289
 3769 1dde 2103     		.short	801
 3770 1de0 A100     		.short	161
 3771 1de2 A102     		.short	673
 3772 1de4 A101     		.short	417
 3773 1de6 A103     		.short	929
 3774 1de8 6100     		.short	97
 3775 1dea 6102     		.short	609
 3776 1dec 6101     		.short	353
 3777 1dee 6103     		.short	865
 3778 1df0 E100     		.short	225
 3779 1df2 E102     		.short	737
 3780 1df4 E101     		.short	481
 3781 1df6 E103     		.short	993
 3782 1df8 1100     		.short	17
 3783 1dfa 1102     		.short	529
 3784 1dfc 1101     		.short	273
 3785 1dfe 1103     		.short	785
 3786 1e00 9100     		.short	145
 3787 1e02 9102     		.short	657
 3788 1e04 9101     		.short	401
 3789 1e06 9103     		.short	913
 3790 1e08 5100     		.short	81
 3791 1e0a 5102     		.short	593
 3792 1e0c 5101     		.short	337
 3793 1e0e 5103     		.short	849
 3794 1e10 D100     		.short	209
 3795 1e12 D102     		.short	721
 3796 1e14 D101     		.short	465
 3797 1e16 D103     		.short	977
 3798 1e18 3100     		.short	49
 3799 1e1a 3102     		.short	561
 3800 1e1c 3101     		.short	305
 3801 1e1e 3103     		.short	817
 3802 1e20 B100     		.short	177
 3803 1e22 B102     		.short	689
 3804 1e24 B101     		.short	433
 3805 1e26 B103     		.short	945
 3806 1e28 7100     		.short	113
 3807 1e2a 7102     		.short	625
 3808 1e2c 7101     		.short	369
 3809 1e2e 7103     		.short	881
 3810 1e30 F100     		.short	241
 3811 1e32 F102     		.short	753
 3812 1e34 F101     		.short	497
 3813 1e36 F103     		.short	1009
 3814 1e38 0900     		.short	9
 3815 1e3a 0902     		.short	521
 3816 1e3c 0901     		.short	265
 3817 1e3e 0903     		.short	777
 3818 1e40 8900     		.short	137
 3819 1e42 8902     		.short	649
 3820 1e44 8901     		.short	393
 3821 1e46 8903     		.short	905
 3822 1e48 4900     		.short	73
 3823 1e4a 4902     		.short	585
 3824 1e4c 4901     		.short	329
 3825 1e4e 4903     		.short	841
 3826 1e50 C900     		.short	201
 3827 1e52 C902     		.short	713
 3828 1e54 C901     		.short	457
 3829 1e56 C903     		.short	969
 3830 1e58 2900     		.short	41
 3831 1e5a 2902     		.short	553
 3832 1e5c 2901     		.short	297
 3833 1e5e 2903     		.short	809
 3834 1e60 A900     		.short	169
 3835 1e62 A902     		.short	681
 3836 1e64 A901     		.short	425
 3837 1e66 A903     		.short	937
 3838 1e68 6900     		.short	105
 3839 1e6a 6902     		.short	617
 3840 1e6c 6901     		.short	361
 3841 1e6e 6903     		.short	873
 3842 1e70 E900     		.short	233
 3843 1e72 E902     		.short	745
 3844 1e74 E901     		.short	489
 3845 1e76 E903     		.short	1001
 3846 1e78 1900     		.short	25
 3847 1e7a 1902     		.short	537
 3848 1e7c 1901     		.short	281
 3849 1e7e 1903     		.short	793
 3850 1e80 9900     		.short	153
 3851 1e82 9902     		.short	665
 3852 1e84 9901     		.short	409
 3853 1e86 9903     		.short	921
 3854 1e88 5900     		.short	89
 3855 1e8a 5902     		.short	601
 3856 1e8c 5901     		.short	345
 3857 1e8e 5903     		.short	857
 3858 1e90 D900     		.short	217
 3859 1e92 D902     		.short	729
 3860 1e94 D901     		.short	473
 3861 1e96 D903     		.short	985
 3862 1e98 3900     		.short	57
 3863 1e9a 3902     		.short	569
 3864 1e9c 3901     		.short	313
 3865 1e9e 3903     		.short	825
 3866 1ea0 B900     		.short	185
 3867 1ea2 B902     		.short	697
 3868 1ea4 B901     		.short	441
 3869 1ea6 B903     		.short	953
 3870 1ea8 7900     		.short	121
 3871 1eaa 7902     		.short	633
 3872 1eac 7901     		.short	377
 3873 1eae 7903     		.short	889
 3874 1eb0 F900     		.short	249
 3875 1eb2 F902     		.short	761
 3876 1eb4 F901     		.short	505
 3877 1eb6 F903     		.short	1017
 3878 1eb8 0500     		.short	5
 3879 1eba 0502     		.short	517
 3880 1ebc 0501     		.short	261
 3881 1ebe 0503     		.short	773
 3882 1ec0 8500     		.short	133
 3883 1ec2 8502     		.short	645
 3884 1ec4 8501     		.short	389
 3885 1ec6 8503     		.short	901
 3886 1ec8 4500     		.short	69
 3887 1eca 4502     		.short	581
 3888 1ecc 4501     		.short	325
 3889 1ece 4503     		.short	837
 3890 1ed0 C500     		.short	197
 3891 1ed2 C502     		.short	709
 3892 1ed4 C501     		.short	453
 3893 1ed6 C503     		.short	965
 3894 1ed8 2500     		.short	37
 3895 1eda 2502     		.short	549
 3896 1edc 2501     		.short	293
 3897 1ede 2503     		.short	805
 3898 1ee0 A500     		.short	165
 3899 1ee2 A502     		.short	677
 3900 1ee4 A501     		.short	421
 3901 1ee6 A503     		.short	933
 3902 1ee8 6500     		.short	101
 3903 1eea 6502     		.short	613
 3904 1eec 6501     		.short	357
 3905 1eee 6503     		.short	869
 3906 1ef0 E500     		.short	229
 3907 1ef2 E502     		.short	741
 3908 1ef4 E501     		.short	485
 3909 1ef6 E503     		.short	997
 3910 1ef8 1500     		.short	21
 3911 1efa 1502     		.short	533
 3912 1efc 1501     		.short	277
 3913 1efe 1503     		.short	789
 3914 1f00 9500     		.short	149
 3915 1f02 9502     		.short	661
 3916 1f04 9501     		.short	405
 3917 1f06 9503     		.short	917
 3918 1f08 5500     		.short	85
 3919 1f0a 5502     		.short	597
 3920 1f0c 5501     		.short	341
 3921 1f0e 5503     		.short	853
 3922 1f10 D500     		.short	213
 3923 1f12 D502     		.short	725
 3924 1f14 D501     		.short	469
 3925 1f16 D503     		.short	981
 3926 1f18 3500     		.short	53
 3927 1f1a 3502     		.short	565
 3928 1f1c 3501     		.short	309
 3929 1f1e 3503     		.short	821
 3930 1f20 B500     		.short	181
 3931 1f22 B502     		.short	693
 3932 1f24 B501     		.short	437
 3933 1f26 B503     		.short	949
 3934 1f28 7500     		.short	117
 3935 1f2a 7502     		.short	629
 3936 1f2c 7501     		.short	373
 3937 1f2e 7503     		.short	885
 3938 1f30 F500     		.short	245
 3939 1f32 F502     		.short	757
 3940 1f34 F501     		.short	501
 3941 1f36 F503     		.short	1013
 3942 1f38 0D00     		.short	13
 3943 1f3a 0D02     		.short	525
 3944 1f3c 0D01     		.short	269
 3945 1f3e 0D03     		.short	781
 3946 1f40 8D00     		.short	141
 3947 1f42 8D02     		.short	653
 3948 1f44 8D01     		.short	397
 3949 1f46 8D03     		.short	909
 3950 1f48 4D00     		.short	77
 3951 1f4a 4D02     		.short	589
 3952 1f4c 4D01     		.short	333
 3953 1f4e 4D03     		.short	845
 3954 1f50 CD00     		.short	205
 3955 1f52 CD02     		.short	717
 3956 1f54 CD01     		.short	461
 3957 1f56 CD03     		.short	973
 3958 1f58 2D00     		.short	45
 3959 1f5a 2D02     		.short	557
 3960 1f5c 2D01     		.short	301
 3961 1f5e 2D03     		.short	813
 3962 1f60 AD00     		.short	173
 3963 1f62 AD02     		.short	685
 3964 1f64 AD01     		.short	429
 3965 1f66 AD03     		.short	941
 3966 1f68 6D00     		.short	109
 3967 1f6a 6D02     		.short	621
 3968 1f6c 6D01     		.short	365
 3969 1f6e 6D03     		.short	877
 3970 1f70 ED00     		.short	237
 3971 1f72 ED02     		.short	749
 3972 1f74 ED01     		.short	493
 3973 1f76 ED03     		.short	1005
 3974 1f78 1D00     		.short	29
 3975 1f7a 1D02     		.short	541
 3976 1f7c 1D01     		.short	285
 3977 1f7e 1D03     		.short	797
 3978 1f80 9D00     		.short	157
 3979 1f82 9D02     		.short	669
 3980 1f84 9D01     		.short	413
 3981 1f86 9D03     		.short	925
 3982 1f88 5D00     		.short	93
 3983 1f8a 5D02     		.short	605
 3984 1f8c 5D01     		.short	349
 3985 1f8e 5D03     		.short	861
 3986 1f90 DD00     		.short	221
 3987 1f92 DD02     		.short	733
 3988 1f94 DD01     		.short	477
 3989 1f96 DD03     		.short	989
 3990 1f98 3D00     		.short	61
 3991 1f9a 3D02     		.short	573
 3992 1f9c 3D01     		.short	317
 3993 1f9e 3D03     		.short	829
 3994 1fa0 BD00     		.short	189
 3995 1fa2 BD02     		.short	701
 3996 1fa4 BD01     		.short	445
 3997 1fa6 BD03     		.short	957
 3998 1fa8 7D00     		.short	125
 3999 1faa 7D02     		.short	637
 4000 1fac 7D01     		.short	381
 4001 1fae 7D03     		.short	893
 4002 1fb0 FD00     		.short	253
 4003 1fb2 FD02     		.short	765
 4004 1fb4 FD01     		.short	509
 4005 1fb6 FD03     		.short	1021
 4006 1fb8 0300     		.short	3
 4007 1fba 0302     		.short	515
 4008 1fbc 0301     		.short	259
 4009 1fbe 0303     		.short	771
 4010 1fc0 8300     		.short	131
 4011 1fc2 8302     		.short	643
 4012 1fc4 8301     		.short	387
 4013 1fc6 8303     		.short	899
 4014 1fc8 4300     		.short	67
 4015 1fca 4302     		.short	579
 4016 1fcc 4301     		.short	323
 4017 1fce 4303     		.short	835
 4018 1fd0 C300     		.short	195
 4019 1fd2 C302     		.short	707
 4020 1fd4 C301     		.short	451
 4021 1fd6 C303     		.short	963
 4022 1fd8 2300     		.short	35
 4023 1fda 2302     		.short	547
 4024 1fdc 2301     		.short	291
 4025 1fde 2303     		.short	803
 4026 1fe0 A300     		.short	163
 4027 1fe2 A302     		.short	675
 4028 1fe4 A301     		.short	419
 4029 1fe6 A303     		.short	931
 4030 1fe8 6300     		.short	99
 4031 1fea 6302     		.short	611
 4032 1fec 6301     		.short	355
 4033 1fee 6303     		.short	867
 4034 1ff0 E300     		.short	227
 4035 1ff2 E302     		.short	739
 4036 1ff4 E301     		.short	483
 4037 1ff6 E303     		.short	995
 4038 1ff8 1300     		.short	19
 4039 1ffa 1302     		.short	531
 4040 1ffc 1301     		.short	275
 4041 1ffe 1303     		.short	787
 4042 2000 9300     		.short	147
 4043 2002 9302     		.short	659
 4044 2004 9301     		.short	403
 4045 2006 9303     		.short	915
 4046 2008 5300     		.short	83
 4047 200a 5302     		.short	595
 4048 200c 5301     		.short	339
 4049 200e 5303     		.short	851
 4050 2010 D300     		.short	211
 4051 2012 D302     		.short	723
 4052 2014 D301     		.short	467
 4053 2016 D303     		.short	979
 4054 2018 3300     		.short	51
 4055 201a 3302     		.short	563
 4056 201c 3301     		.short	307
 4057 201e 3303     		.short	819
 4058 2020 B300     		.short	179
 4059 2022 B302     		.short	691
 4060 2024 B301     		.short	435
 4061 2026 B303     		.short	947
 4062 2028 7300     		.short	115
 4063 202a 7302     		.short	627
 4064 202c 7301     		.short	371
 4065 202e 7303     		.short	883
 4066 2030 F300     		.short	243
 4067 2032 F302     		.short	755
 4068 2034 F301     		.short	499
 4069 2036 F303     		.short	1011
 4070 2038 0B00     		.short	11
 4071 203a 0B02     		.short	523
 4072 203c 0B01     		.short	267
 4073 203e 0B03     		.short	779
 4074 2040 8B00     		.short	139
 4075 2042 8B02     		.short	651
 4076 2044 8B01     		.short	395
 4077 2046 8B03     		.short	907
 4078 2048 4B00     		.short	75
 4079 204a 4B02     		.short	587
 4080 204c 4B01     		.short	331
 4081 204e 4B03     		.short	843
 4082 2050 CB00     		.short	203
 4083 2052 CB02     		.short	715
 4084 2054 CB01     		.short	459
 4085 2056 CB03     		.short	971
 4086 2058 2B00     		.short	43
 4087 205a 2B02     		.short	555
 4088 205c 2B01     		.short	299
 4089 205e 2B03     		.short	811
 4090 2060 AB00     		.short	171
 4091 2062 AB02     		.short	683
 4092 2064 AB01     		.short	427
 4093 2066 AB03     		.short	939
 4094 2068 6B00     		.short	107
 4095 206a 6B02     		.short	619
 4096 206c 6B01     		.short	363
 4097 206e 6B03     		.short	875
 4098 2070 EB00     		.short	235
 4099 2072 EB02     		.short	747
 4100 2074 EB01     		.short	491
 4101 2076 EB03     		.short	1003
 4102 2078 1B00     		.short	27
 4103 207a 1B02     		.short	539
 4104 207c 1B01     		.short	283
 4105 207e 1B03     		.short	795
 4106 2080 9B00     		.short	155
 4107 2082 9B02     		.short	667
 4108 2084 9B01     		.short	411
 4109 2086 9B03     		.short	923
 4110 2088 5B00     		.short	91
 4111 208a 5B02     		.short	603
 4112 208c 5B01     		.short	347
 4113 208e 5B03     		.short	859
 4114 2090 DB00     		.short	219
 4115 2092 DB02     		.short	731
 4116 2094 DB01     		.short	475
 4117 2096 DB03     		.short	987
 4118 2098 3B00     		.short	59
 4119 209a 3B02     		.short	571
 4120 209c 3B01     		.short	315
 4121 209e 3B03     		.short	827
 4122 20a0 BB00     		.short	187
 4123 20a2 BB02     		.short	699
 4124 20a4 BB01     		.short	443
 4125 20a6 BB03     		.short	955
 4126 20a8 7B00     		.short	123
 4127 20aa 7B02     		.short	635
 4128 20ac 7B01     		.short	379
 4129 20ae 7B03     		.short	891
 4130 20b0 FB00     		.short	251
 4131 20b2 FB02     		.short	763
 4132 20b4 FB01     		.short	507
 4133 20b6 FB03     		.short	1019
 4134 20b8 0700     		.short	7
 4135 20ba 0702     		.short	519
 4136 20bc 0701     		.short	263
 4137 20be 0703     		.short	775
 4138 20c0 8700     		.short	135
 4139 20c2 8702     		.short	647
 4140 20c4 8701     		.short	391
 4141 20c6 8703     		.short	903
 4142 20c8 4700     		.short	71
 4143 20ca 4702     		.short	583
 4144 20cc 4701     		.short	327
 4145 20ce 4703     		.short	839
 4146 20d0 C700     		.short	199
 4147 20d2 C702     		.short	711
 4148 20d4 C701     		.short	455
 4149 20d6 C703     		.short	967
 4150 20d8 2700     		.short	39
 4151 20da 2702     		.short	551
 4152 20dc 2701     		.short	295
 4153 20de 2703     		.short	807
 4154 20e0 A700     		.short	167
 4155 20e2 A702     		.short	679
 4156 20e4 A701     		.short	423
 4157 20e6 A703     		.short	935
 4158 20e8 6700     		.short	103
 4159 20ea 6702     		.short	615
 4160 20ec 6701     		.short	359
 4161 20ee 6703     		.short	871
 4162 20f0 E700     		.short	231
 4163 20f2 E702     		.short	743
 4164 20f4 E701     		.short	487
 4165 20f6 E703     		.short	999
 4166 20f8 1700     		.short	23
 4167 20fa 1702     		.short	535
 4168 20fc 1701     		.short	279
 4169 20fe 1703     		.short	791
 4170 2100 9700     		.short	151
 4171 2102 9702     		.short	663
 4172 2104 9701     		.short	407
 4173 2106 9703     		.short	919
 4174 2108 5700     		.short	87
 4175 210a 5702     		.short	599
 4176 210c 5701     		.short	343
 4177 210e 5703     		.short	855
 4178 2110 D700     		.short	215
 4179 2112 D702     		.short	727
 4180 2114 D701     		.short	471
 4181 2116 D703     		.short	983
 4182 2118 3700     		.short	55
 4183 211a 3702     		.short	567
 4184 211c 3701     		.short	311
 4185 211e 3703     		.short	823
 4186 2120 B700     		.short	183
 4187 2122 B702     		.short	695
 4188 2124 B701     		.short	439
 4189 2126 B703     		.short	951
 4190 2128 7700     		.short	119
 4191 212a 7702     		.short	631
 4192 212c 7701     		.short	375
 4193 212e 7703     		.short	887
 4194 2130 F700     		.short	247
 4195 2132 F702     		.short	759
 4196 2134 F701     		.short	503
 4197 2136 F703     		.short	1015
 4198 2138 0F00     		.short	15
 4199 213a 0F02     		.short	527
 4200 213c 0F01     		.short	271
 4201 213e 0F03     		.short	783
 4202 2140 8F00     		.short	143
 4203 2142 8F02     		.short	655
 4204 2144 8F01     		.short	399
 4205 2146 8F03     		.short	911
 4206 2148 4F00     		.short	79
 4207 214a 4F02     		.short	591
 4208 214c 4F01     		.short	335
 4209 214e 4F03     		.short	847
 4210 2150 CF00     		.short	207
 4211 2152 CF02     		.short	719
 4212 2154 CF01     		.short	463
 4213 2156 CF03     		.short	975
 4214 2158 2F00     		.short	47
 4215 215a 2F02     		.short	559
 4216 215c 2F01     		.short	303
 4217 215e 2F03     		.short	815
 4218 2160 AF00     		.short	175
 4219 2162 AF02     		.short	687
 4220 2164 AF01     		.short	431
 4221 2166 AF03     		.short	943
 4222 2168 6F00     		.short	111
 4223 216a 6F02     		.short	623
 4224 216c 6F01     		.short	367
 4225 216e 6F03     		.short	879
 4226 2170 EF00     		.short	239
 4227 2172 EF02     		.short	751
 4228 2174 EF01     		.short	495
 4229 2176 EF03     		.short	1007
 4230 2178 1F00     		.short	31
 4231 217a 1F02     		.short	543
 4232 217c 1F01     		.short	287
 4233 217e 1F03     		.short	799
 4234 2180 9F00     		.short	159
 4235 2182 9F02     		.short	671
 4236 2184 9F01     		.short	415
 4237 2186 9F03     		.short	927
 4238 2188 5F00     		.short	95
 4239 218a 5F02     		.short	607
 4240 218c 5F01     		.short	351
 4241 218e 5F03     		.short	863
 4242 2190 DF00     		.short	223
 4243 2192 DF02     		.short	735
 4244 2194 DF01     		.short	479
 4245 2196 DF03     		.short	991
 4246 2198 3F00     		.short	63
 4247 219a 3F02     		.short	575
 4248 219c 3F01     		.short	319
 4249 219e 3F03     		.short	831
 4250 21a0 BF00     		.short	191
 4251 21a2 BF02     		.short	703
 4252 21a4 BF01     		.short	447
 4253 21a6 BF03     		.short	959
 4254 21a8 7F00     		.short	127
 4255 21aa 7F02     		.short	639
 4256 21ac 7F01     		.short	383
 4257 21ae 7F03     		.short	895
 4258 21b0 FF00     		.short	255
 4259 21b2 FF02     		.short	767
 4260 21b4 FF01     		.short	511
 4261 21b6 FF03     		.short	1023
 4262              		.section	.text.modp_mkgm2,"ax",%progbits
 4263              		.align	1
 4264              		.syntax unified
 4265              		.thumb
 4266              		.thumb_func
 4267              		.fpu softvfp
 4269              	modp_mkgm2:
 4270              	.LFB28:
 834:keygen.c      **** 
 835:keygen.c      **** /*
 836:keygen.c      ****  * Bit-reversal index table.
 837:keygen.c      ****  */
 838:keygen.c      **** static const uint16_t REV10[] = {
 839:keygen.c      **** 	   0,  512,  256,  768,  128,  640,  384,  896,   64,  576,  320,  832,
 840:keygen.c      **** 	 192,  704,  448,  960,   32,  544,  288,  800,  160,  672,  416,  928,
 841:keygen.c      **** 	  96,  608,  352,  864,  224,  736,  480,  992,   16,  528,  272,  784,
 842:keygen.c      **** 	 144,  656,  400,  912,   80,  592,  336,  848,  208,  720,  464,  976,
 843:keygen.c      **** 	  48,  560,  304,  816,  176,  688,  432,  944,  112,  624,  368,  880,
 844:keygen.c      **** 	 240,  752,  496, 1008,    8,  520,  264,  776,  136,  648,  392,  904,
 845:keygen.c      **** 	  72,  584,  328,  840,  200,  712,  456,  968,   40,  552,  296,  808,
 846:keygen.c      **** 	 168,  680,  424,  936,  104,  616,  360,  872,  232,  744,  488, 1000,
 847:keygen.c      **** 	  24,  536,  280,  792,  152,  664,  408,  920,   88,  600,  344,  856,
 848:keygen.c      **** 	 216,  728,  472,  984,   56,  568,  312,  824,  184,  696,  440,  952,
 849:keygen.c      **** 	 120,  632,  376,  888,  248,  760,  504, 1016,    4,  516,  260,  772,
 850:keygen.c      **** 	 132,  644,  388,  900,   68,  580,  324,  836,  196,  708,  452,  964,
 851:keygen.c      **** 	  36,  548,  292,  804,  164,  676,  420,  932,  100,  612,  356,  868,
 852:keygen.c      **** 	 228,  740,  484,  996,   20,  532,  276,  788,  148,  660,  404,  916,
 853:keygen.c      **** 	  84,  596,  340,  852,  212,  724,  468,  980,   52,  564,  308,  820,
 854:keygen.c      **** 	 180,  692,  436,  948,  116,  628,  372,  884,  244,  756,  500, 1012,
 855:keygen.c      **** 	  12,  524,  268,  780,  140,  652,  396,  908,   76,  588,  332,  844,
 856:keygen.c      **** 	 204,  716,  460,  972,   44,  556,  300,  812,  172,  684,  428,  940,
 857:keygen.c      **** 	 108,  620,  364,  876,  236,  748,  492, 1004,   28,  540,  284,  796,
 858:keygen.c      **** 	 156,  668,  412,  924,   92,  604,  348,  860,  220,  732,  476,  988,
 859:keygen.c      **** 	  60,  572,  316,  828,  188,  700,  444,  956,  124,  636,  380,  892,
 860:keygen.c      **** 	 252,  764,  508, 1020,    2,  514,  258,  770,  130,  642,  386,  898,
 861:keygen.c      **** 	  66,  578,  322,  834,  194,  706,  450,  962,   34,  546,  290,  802,
 862:keygen.c      **** 	 162,  674,  418,  930,   98,  610,  354,  866,  226,  738,  482,  994,
 863:keygen.c      **** 	  18,  530,  274,  786,  146,  658,  402,  914,   82,  594,  338,  850,
 864:keygen.c      **** 	 210,  722,  466,  978,   50,  562,  306,  818,  178,  690,  434,  946,
 865:keygen.c      **** 	 114,  626,  370,  882,  242,  754,  498, 1010,   10,  522,  266,  778,
 866:keygen.c      **** 	 138,  650,  394,  906,   74,  586,  330,  842,  202,  714,  458,  970,
 867:keygen.c      **** 	  42,  554,  298,  810,  170,  682,  426,  938,  106,  618,  362,  874,
 868:keygen.c      **** 	 234,  746,  490, 1002,   26,  538,  282,  794,  154,  666,  410,  922,
 869:keygen.c      **** 	  90,  602,  346,  858,  218,  730,  474,  986,   58,  570,  314,  826,
 870:keygen.c      **** 	 186,  698,  442,  954,  122,  634,  378,  890,  250,  762,  506, 1018,
 871:keygen.c      **** 	   6,  518,  262,  774,  134,  646,  390,  902,   70,  582,  326,  838,
 872:keygen.c      **** 	 198,  710,  454,  966,   38,  550,  294,  806,  166,  678,  422,  934,
 873:keygen.c      **** 	 102,  614,  358,  870,  230,  742,  486,  998,   22,  534,  278,  790,
 874:keygen.c      **** 	 150,  662,  406,  918,   86,  598,  342,  854,  214,  726,  470,  982,
 875:keygen.c      **** 	  54,  566,  310,  822,  182,  694,  438,  950,  118,  630,  374,  886,
 876:keygen.c      **** 	 246,  758,  502, 1014,   14,  526,  270,  782,  142,  654,  398,  910,
 877:keygen.c      **** 	  78,  590,  334,  846,  206,  718,  462,  974,   46,  558,  302,  814,
 878:keygen.c      **** 	 174,  686,  430,  942,  110,  622,  366,  878,  238,  750,  494, 1006,
 879:keygen.c      **** 	  30,  542,  286,  798,  158,  670,  414,  926,   94,  606,  350,  862,
 880:keygen.c      **** 	 222,  734,  478,  990,   62,  574,  318,  830,  190,  702,  446,  958,
 881:keygen.c      **** 	 126,  638,  382,  894,  254,  766,  510, 1022,    1,  513,  257,  769,
 882:keygen.c      **** 	 129,  641,  385,  897,   65,  577,  321,  833,  193,  705,  449,  961,
 883:keygen.c      **** 	  33,  545,  289,  801,  161,  673,  417,  929,   97,  609,  353,  865,
 884:keygen.c      **** 	 225,  737,  481,  993,   17,  529,  273,  785,  145,  657,  401,  913,
 885:keygen.c      **** 	  81,  593,  337,  849,  209,  721,  465,  977,   49,  561,  305,  817,
 886:keygen.c      **** 	 177,  689,  433,  945,  113,  625,  369,  881,  241,  753,  497, 1009,
 887:keygen.c      **** 	   9,  521,  265,  777,  137,  649,  393,  905,   73,  585,  329,  841,
 888:keygen.c      **** 	 201,  713,  457,  969,   41,  553,  297,  809,  169,  681,  425,  937,
 889:keygen.c      **** 	 105,  617,  361,  873,  233,  745,  489, 1001,   25,  537,  281,  793,
 890:keygen.c      **** 	 153,  665,  409,  921,   89,  601,  345,  857,  217,  729,  473,  985,
 891:keygen.c      **** 	  57,  569,  313,  825,  185,  697,  441,  953,  121,  633,  377,  889,
 892:keygen.c      **** 	 249,  761,  505, 1017,    5,  517,  261,  773,  133,  645,  389,  901,
 893:keygen.c      **** 	  69,  581,  325,  837,  197,  709,  453,  965,   37,  549,  293,  805,
 894:keygen.c      **** 	 165,  677,  421,  933,  101,  613,  357,  869,  229,  741,  485,  997,
 895:keygen.c      **** 	  21,  533,  277,  789,  149,  661,  405,  917,   85,  597,  341,  853,
 896:keygen.c      **** 	 213,  725,  469,  981,   53,  565,  309,  821,  181,  693,  437,  949,
 897:keygen.c      **** 	 117,  629,  373,  885,  245,  757,  501, 1013,   13,  525,  269,  781,
 898:keygen.c      **** 	 141,  653,  397,  909,   77,  589,  333,  845,  205,  717,  461,  973,
 899:keygen.c      **** 	  45,  557,  301,  813,  173,  685,  429,  941,  109,  621,  365,  877,
 900:keygen.c      **** 	 237,  749,  493, 1005,   29,  541,  285,  797,  157,  669,  413,  925,
 901:keygen.c      **** 	  93,  605,  349,  861,  221,  733,  477,  989,   61,  573,  317,  829,
 902:keygen.c      **** 	 189,  701,  445,  957,  125,  637,  381,  893,  253,  765,  509, 1021,
 903:keygen.c      **** 	   3,  515,  259,  771,  131,  643,  387,  899,   67,  579,  323,  835,
 904:keygen.c      **** 	 195,  707,  451,  963,   35,  547,  291,  803,  163,  675,  419,  931,
 905:keygen.c      **** 	  99,  611,  355,  867,  227,  739,  483,  995,   19,  531,  275,  787,
 906:keygen.c      **** 	 147,  659,  403,  915,   83,  595,  339,  851,  211,  723,  467,  979,
 907:keygen.c      **** 	  51,  563,  307,  819,  179,  691,  435,  947,  115,  627,  371,  883,
 908:keygen.c      **** 	 243,  755,  499, 1011,   11,  523,  267,  779,  139,  651,  395,  907,
 909:keygen.c      **** 	  75,  587,  331,  843,  203,  715,  459,  971,   43,  555,  299,  811,
 910:keygen.c      **** 	 171,  683,  427,  939,  107,  619,  363,  875,  235,  747,  491, 1003,
 911:keygen.c      **** 	  27,  539,  283,  795,  155,  667,  411,  923,   91,  603,  347,  859,
 912:keygen.c      **** 	 219,  731,  475,  987,   59,  571,  315,  827,  187,  699,  443,  955,
 913:keygen.c      **** 	 123,  635,  379,  891,  251,  763,  507, 1019,    7,  519,  263,  775,
 914:keygen.c      **** 	 135,  647,  391,  903,   71,  583,  327,  839,  199,  711,  455,  967,
 915:keygen.c      **** 	  39,  551,  295,  807,  167,  679,  423,  935,  103,  615,  359,  871,
 916:keygen.c      **** 	 231,  743,  487,  999,   23,  535,  279,  791,  151,  663,  407,  919,
 917:keygen.c      **** 	  87,  599,  343,  855,  215,  727,  471,  983,   55,  567,  311,  823,
 918:keygen.c      **** 	 183,  695,  439,  951,  119,  631,  375,  887,  247,  759,  503, 1015,
 919:keygen.c      **** 	  15,  527,  271,  783,  143,  655,  399,  911,   79,  591,  335,  847,
 920:keygen.c      **** 	 207,  719,  463,  975,   47,  559,  303,  815,  175,  687,  431,  943,
 921:keygen.c      **** 	 111,  623,  367,  879,  239,  751,  495, 1007,   31,  543,  287,  799,
 922:keygen.c      **** 	 159,  671,  415,  927,   95,  607,  351,  863,  223,  735,  479,  991,
 923:keygen.c      **** 	  63,  575,  319,  831,  191,  703,  447,  959,  127,  639,  383,  895,
 924:keygen.c      **** 	 255,  767,  511, 1023
 925:keygen.c      **** };
 926:keygen.c      **** 
 927:keygen.c      **** /*
 928:keygen.c      ****  * Compute the roots for NTT and inverse NTT (binary case). Input
 929:keygen.c      ****  * parameter g is a primitive 2048-th root of 1 modulo p (i.e. g^1024 =
 930:keygen.c      ****  * -1 mod p). This fills gm[] and igm[] with powers of g and 1/g:
 931:keygen.c      ****  *   gm[rev(i)] = g^i mod p
 932:keygen.c      ****  *   igm[rev(i)] = (1/g)^i mod p
 933:keygen.c      ****  * where rev() is the "bit reversal" function over 10 bits. It fills
 934:keygen.c      ****  * the arrays only up to N = 2^logn values.
 935:keygen.c      ****  *
 936:keygen.c      ****  * The values stored in gm[] and igm[] are in Montgomery representation.
 937:keygen.c      ****  *
 938:keygen.c      ****  * p must be a prime such that p = 1 mod 2048.
 939:keygen.c      ****  */
 940:keygen.c      **** static void
 941:keygen.c      **** modp_mkgm2(uint32_t *restrict gm, uint32_t *restrict igm, unsigned logn,
 942:keygen.c      **** 	uint32_t g, uint32_t p, uint32_t p0i)
 943:keygen.c      **** {
 4271              		.loc 2 943 1
 4272              		.cfi_startproc
 4273              		@ args = 8, pretend = 0, frame = 48
 4274              		@ frame_needed = 1, uses_anonymous_args = 0
 4275 0000 80B5     		push	{r7, lr}
 4276              	.LCFI90:
 4277              		.cfi_def_cfa_offset 8
 4278              		.cfi_offset 7, -8
 4279              		.cfi_offset 14, -4
 4280 0002 8EB0     		sub	sp, sp, #56
 4281              	.LCFI91:
 4282              		.cfi_def_cfa_offset 64
 4283 0004 02AF     		add	r7, sp, #8
 4284              	.LCFI92:
 4285              		.cfi_def_cfa 7, 56
 4286 0006 F860     		str	r0, [r7, #12]
 4287 0008 B960     		str	r1, [r7, #8]
 4288 000a 7A60     		str	r2, [r7, #4]
 4289 000c 3B60     		str	r3, [r7]
 944:keygen.c      **** 	size_t u, n;
 945:keygen.c      **** 	unsigned k;
 946:keygen.c      **** 	uint32_t ig, x1, x2, R2;
 947:keygen.c      **** 
 948:keygen.c      **** 	n = (size_t)1 << logn;
 4290              		.loc 2 948 4
 4291 000e 0122     		movs	r2, #1
 4292 0010 7B68     		ldr	r3, [r7, #4]
 4293 0012 02FA03F3 		lsl	r3, r2, r3
 4294 0016 FB61     		str	r3, [r7, #28]
 949:keygen.c      **** 
 950:keygen.c      **** 	/*
 951:keygen.c      **** 	 * We want g such that g^(2N) = 1 mod p, but the provided
 952:keygen.c      **** 	 * generator has order 2048. We must square it a few times.
 953:keygen.c      **** 	 */
 954:keygen.c      **** 	R2 = modp_R2(p, p0i);
 4295              		.loc 2 954 7
 4296 0018 F96B     		ldr	r1, [r7, #60]
 4297 001a B86B     		ldr	r0, [r7, #56]
 4298 001c FFF7FEFF 		bl	modp_R2
 4299 0020 B861     		str	r0, [r7, #24]
 955:keygen.c      **** 	g = modp_montymul(g, R2, p, p0i);
 4300              		.loc 2 955 6
 4301 0022 FB6B     		ldr	r3, [r7, #60]
 4302 0024 BA6B     		ldr	r2, [r7, #56]
 4303 0026 B969     		ldr	r1, [r7, #24]
 4304 0028 3868     		ldr	r0, [r7]
 4305 002a FFF7FEFF 		bl	modp_montymul
 4306 002e 3860     		str	r0, [r7]
 956:keygen.c      **** 	for (k = logn; k < 10; k ++) {
 4307              		.loc 2 956 9
 4308 0030 7B68     		ldr	r3, [r7, #4]
 4309 0032 BB62     		str	r3, [r7, #40]
 4310              		.loc 2 956 2
 4311 0034 09E0     		b	.L39
 4312              	.L40:
 957:keygen.c      **** 		g = modp_montymul(g, g, p, p0i);
 4313              		.loc 2 957 7 discriminator 3
 4314 0036 FB6B     		ldr	r3, [r7, #60]
 4315 0038 BA6B     		ldr	r2, [r7, #56]
 4316 003a 3968     		ldr	r1, [r7]
 4317 003c 3868     		ldr	r0, [r7]
 4318 003e FFF7FEFF 		bl	modp_montymul
 4319 0042 3860     		str	r0, [r7]
 956:keygen.c      **** 	for (k = logn; k < 10; k ++) {
 4320              		.loc 2 956 27 discriminator 3
 4321 0044 BB6A     		ldr	r3, [r7, #40]
 4322 0046 0133     		adds	r3, r3, #1
 4323 0048 BB62     		str	r3, [r7, #40]
 4324              	.L39:
 956:keygen.c      **** 	for (k = logn; k < 10; k ++) {
 4325              		.loc 2 956 2 discriminator 1
 4326 004a BB6A     		ldr	r3, [r7, #40]
 4327 004c 092B     		cmp	r3, #9
 4328 004e F2D9     		bls	.L40
 958:keygen.c      **** 	}
 959:keygen.c      **** 
 960:keygen.c      **** 	ig = modp_div(R2, g, p, p0i, modp_R(p));
 4329              		.loc 2 960 7
 4330 0050 B86B     		ldr	r0, [r7, #56]
 4331 0052 FFF7FEFF 		bl	modp_R
 4332 0056 0346     		mov	r3, r0
 4333 0058 0093     		str	r3, [sp]
 4334 005a FB6B     		ldr	r3, [r7, #60]
 4335 005c BA6B     		ldr	r2, [r7, #56]
 4336 005e 3968     		ldr	r1, [r7]
 4337 0060 B869     		ldr	r0, [r7, #24]
 4338 0062 FFF7FEFF 		bl	modp_div
 4339 0066 7861     		str	r0, [r7, #20]
 961:keygen.c      **** 	k = 10 - logn;
 4340              		.loc 2 961 4
 4341 0068 7B68     		ldr	r3, [r7, #4]
 4342 006a C3F10A03 		rsb	r3, r3, #10
 4343 006e BB62     		str	r3, [r7, #40]
 962:keygen.c      **** 	x1 = x2 = modp_R(p);
 4344              		.loc 2 962 12
 4345 0070 B86B     		ldr	r0, [r7, #56]
 4346 0072 FFF7FEFF 		bl	modp_R
 4347 0076 3862     		str	r0, [r7, #32]
 4348              		.loc 2 962 5
 4349 0078 3B6A     		ldr	r3, [r7, #32]
 4350 007a 7B62     		str	r3, [r7, #36]
 963:keygen.c      **** 	for (u = 0; u < n; u ++) {
 4351              		.loc 2 963 9
 4352 007c 0023     		movs	r3, #0
 4353 007e FB62     		str	r3, [r7, #44]
 4354              		.loc 2 963 2
 4355 0080 24E0     		b	.L41
 4356              	.L42:
 4357              	.LBB3:
 964:keygen.c      **** 		size_t v;
 965:keygen.c      **** 
 966:keygen.c      **** 		v = REV10[u << k];
 4358              		.loc 2 966 15 discriminator 3
 4359 0082 FA6A     		ldr	r2, [r7, #44]
 4360 0084 BB6A     		ldr	r3, [r7, #40]
 4361 0086 02FA03F3 		lsl	r3, r2, r3
 4362              		.loc 2 966 12 discriminator 3
 4363 008a 154A     		ldr	r2, .L43
 4364 008c 32F81330 		ldrh	r3, [r2, r3, lsl #1]
 4365              		.loc 2 966 5 discriminator 3
 4366 0090 3B61     		str	r3, [r7, #16]
 967:keygen.c      **** 		gm[v] = x1;
 4367              		.loc 2 967 5 discriminator 3
 4368 0092 3B69     		ldr	r3, [r7, #16]
 4369 0094 9B00     		lsls	r3, r3, #2
 4370 0096 FA68     		ldr	r2, [r7, #12]
 4371 0098 1344     		add	r3, r3, r2
 4372              		.loc 2 967 9 discriminator 3
 4373 009a 7A6A     		ldr	r2, [r7, #36]
 4374 009c 1A60     		str	r2, [r3]
 968:keygen.c      **** 		igm[v] = x2;
 4375              		.loc 2 968 6 discriminator 3
 4376 009e 3B69     		ldr	r3, [r7, #16]
 4377 00a0 9B00     		lsls	r3, r3, #2
 4378 00a2 BA68     		ldr	r2, [r7, #8]
 4379 00a4 1344     		add	r3, r3, r2
 4380              		.loc 2 968 10 discriminator 3
 4381 00a6 3A6A     		ldr	r2, [r7, #32]
 4382 00a8 1A60     		str	r2, [r3]
 969:keygen.c      **** 		x1 = modp_montymul(x1, g, p, p0i);
 4383              		.loc 2 969 8 discriminator 3
 4384 00aa FB6B     		ldr	r3, [r7, #60]
 4385 00ac BA6B     		ldr	r2, [r7, #56]
 4386 00ae 3968     		ldr	r1, [r7]
 4387 00b0 786A     		ldr	r0, [r7, #36]
 4388 00b2 FFF7FEFF 		bl	modp_montymul
 4389 00b6 7862     		str	r0, [r7, #36]
 970:keygen.c      **** 		x2 = modp_montymul(x2, ig, p, p0i);
 4390              		.loc 2 970 8 discriminator 3
 4391 00b8 FB6B     		ldr	r3, [r7, #60]
 4392 00ba BA6B     		ldr	r2, [r7, #56]
 4393 00bc 7969     		ldr	r1, [r7, #20]
 4394 00be 386A     		ldr	r0, [r7, #32]
 4395 00c0 FFF7FEFF 		bl	modp_montymul
 4396 00c4 3862     		str	r0, [r7, #32]
 4397              	.LBE3:
 963:keygen.c      **** 		size_t v;
 4398              		.loc 2 963 23 discriminator 3
 4399 00c6 FB6A     		ldr	r3, [r7, #44]
 4400 00c8 0133     		adds	r3, r3, #1
 4401 00ca FB62     		str	r3, [r7, #44]
 4402              	.L41:
 963:keygen.c      **** 		size_t v;
 4403              		.loc 2 963 2 discriminator 1
 4404 00cc FA6A     		ldr	r2, [r7, #44]
 4405 00ce FB69     		ldr	r3, [r7, #28]
 4406 00d0 9A42     		cmp	r2, r3
 4407 00d2 D6D3     		bcc	.L42
 971:keygen.c      **** 	}
 972:keygen.c      **** }
 4408              		.loc 2 972 1
 4409 00d4 00BF     		nop
 4410 00d6 00BF     		nop
 4411 00d8 3037     		adds	r7, r7, #48
 4412              	.LCFI93:
 4413              		.cfi_def_cfa_offset 8
 4414 00da BD46     		mov	sp, r7
 4415              	.LCFI94:
 4416              		.cfi_def_cfa_register 13
 4417              		@ sp needed
 4418 00dc 80BD     		pop	{r7, pc}
 4419              	.L44:
 4420 00de 00BF     		.align	2
 4421              	.L43:
 4422 00e0 B8190000 		.word	REV10
 4423              		.cfi_endproc
 4424              	.LFE28:
 4426              		.section	.text.modp_NTT2_ext,"ax",%progbits
 4427              		.align	1
 4428              		.syntax unified
 4429              		.thumb
 4430              		.thumb_func
 4431              		.fpu softvfp
 4433              	modp_NTT2_ext:
 4434              	.LFB29:
 973:keygen.c      **** 
 974:keygen.c      **** /*
 975:keygen.c      ****  * Compute the NTT over a polynomial (binary case). Polynomial elements
 976:keygen.c      ****  * are a[0], a[stride], a[2 * stride]...
 977:keygen.c      ****  */
 978:keygen.c      **** static void
 979:keygen.c      **** modp_NTT2_ext(uint32_t *a, size_t stride, const uint32_t *gm, unsigned logn,
 980:keygen.c      **** 	uint32_t p, uint32_t p0i)
 981:keygen.c      **** {
 4435              		.loc 2 981 1
 4436              		.cfi_startproc
 4437              		@ args = 8, pretend = 0, frame = 64
 4438              		@ frame_needed = 1, uses_anonymous_args = 0
 4439 0000 80B5     		push	{r7, lr}
 4440              	.LCFI95:
 4441              		.cfi_def_cfa_offset 8
 4442              		.cfi_offset 7, -8
 4443              		.cfi_offset 14, -4
 4444 0002 90B0     		sub	sp, sp, #64
 4445              	.LCFI96:
 4446              		.cfi_def_cfa_offset 72
 4447 0004 00AF     		add	r7, sp, #0
 4448              	.LCFI97:
 4449              		.cfi_def_cfa_register 7
 4450 0006 F860     		str	r0, [r7, #12]
 4451 0008 B960     		str	r1, [r7, #8]
 4452 000a 7A60     		str	r2, [r7, #4]
 4453 000c 3B60     		str	r3, [r7]
 982:keygen.c      **** 	size_t t, m, n;
 983:keygen.c      **** 
 984:keygen.c      **** 	if (logn == 0) {
 4454              		.loc 2 984 5
 4455 000e 3B68     		ldr	r3, [r7]
 4456 0010 002B     		cmp	r3, #0
 4457 0012 6DD0     		beq	.L54
 985:keygen.c      **** 		return;
 986:keygen.c      **** 	}
 987:keygen.c      **** 	n = (size_t)1 << logn;
 4458              		.loc 2 987 4
 4459 0014 0122     		movs	r2, #1
 4460 0016 3B68     		ldr	r3, [r7]
 4461 0018 02FA03F3 		lsl	r3, r2, r3
 4462 001c 3B62     		str	r3, [r7, #32]
 988:keygen.c      **** 	t = n;
 4463              		.loc 2 988 4
 4464 001e 3B6A     		ldr	r3, [r7, #32]
 4465 0020 FB63     		str	r3, [r7, #60]
 989:keygen.c      **** 	for (m = 1; m < n; m <<= 1) {
 4466              		.loc 2 989 9
 4467 0022 0123     		movs	r3, #1
 4468 0024 BB63     		str	r3, [r7, #56]
 4469              		.loc 2 989 2
 4470 0026 5EE0     		b	.L48
 4471              	.L53:
 4472              	.LBB4:
 990:keygen.c      **** 		size_t ht, u, v1;
 991:keygen.c      **** 
 992:keygen.c      **** 		ht = t >> 1;
 4473              		.loc 2 992 6
 4474 0028 FB6B     		ldr	r3, [r7, #60]
 4475 002a 5B08     		lsrs	r3, r3, #1
 4476 002c FB61     		str	r3, [r7, #28]
 993:keygen.c      **** 		for (u = 0, v1 = 0; u < m; u ++, v1 += t) {
 4477              		.loc 2 993 10
 4478 002e 0023     		movs	r3, #0
 4479 0030 7B63     		str	r3, [r7, #52]
 4480              		.loc 2 993 18
 4481 0032 0023     		movs	r3, #0
 4482 0034 3B63     		str	r3, [r7, #48]
 4483              		.loc 2 993 3
 4484 0036 4DE0     		b	.L49
 4485              	.L52:
 4486              	.LBB5:
 994:keygen.c      **** 			uint32_t s;
 995:keygen.c      **** 			size_t v;
 996:keygen.c      **** 			uint32_t *r1, *r2;
 997:keygen.c      **** 
 998:keygen.c      **** 			s = gm[m + u];
 4487              		.loc 2 998 13
 4488 0038 BA6B     		ldr	r2, [r7, #56]
 4489 003a 7B6B     		ldr	r3, [r7, #52]
 4490 003c 1344     		add	r3, r3, r2
 4491              		.loc 2 998 10
 4492 003e 9B00     		lsls	r3, r3, #2
 4493 0040 7A68     		ldr	r2, [r7, #4]
 4494 0042 1344     		add	r3, r3, r2
 4495              		.loc 2 998 6
 4496 0044 1B68     		ldr	r3, [r3]
 4497 0046 BB61     		str	r3, [r7, #24]
 999:keygen.c      **** 			r1 = a + v1 * stride;
 4498              		.loc 2 999 16
 4499 0048 3B6B     		ldr	r3, [r7, #48]
 4500 004a BA68     		ldr	r2, [r7, #8]
 4501 004c 02FB03F3 		mul	r3, r2, r3
 4502              		.loc 2 999 11
 4503 0050 9B00     		lsls	r3, r3, #2
 4504              		.loc 2 999 7
 4505 0052 FA68     		ldr	r2, [r7, #12]
 4506 0054 1344     		add	r3, r3, r2
 4507 0056 BB62     		str	r3, [r7, #40]
1000:keygen.c      **** 			r2 = r1 + ht * stride;
 4508              		.loc 2 1000 17
 4509 0058 FB69     		ldr	r3, [r7, #28]
 4510 005a BA68     		ldr	r2, [r7, #8]
 4511 005c 02FB03F3 		mul	r3, r2, r3
 4512              		.loc 2 1000 12
