   1              		.cpu cortex-m4
   2              		.eabi_attribute 20, 1
   3              		.eabi_attribute 21, 1
   4              		.eabi_attribute 23, 3
   5              		.eabi_attribute 24, 1
   6              		.eabi_attribute 25, 1
   7              		.eabi_attribute 26, 1
   8              		.eabi_attribute 30, 6
   9              		.eabi_attribute 34, 1
  10              		.eabi_attribute 18, 4
  11              		.file	"shake.c"
  12              		.text
  13              	.Ltext0:
  14              		.cfi_sections	.debug_frame
  15              		.section	.rodata
  16              		.align	3
  19              	fpr_q:
  20 0000 00000000 		.word	0
  21 0004 8000C840 		.word	1086849152
  22              		.align	3
  25              	fpr_inverse_of_q:
  26 0008 82A79790 		.word	-1869109374
  27 000c E354153F 		.word	1058362595
  28              		.align	3
  31              	fpr_inv_2sqrsigma0:
  32 0010 C2BB83C1 		.word	-1048331326
  33 0014 8B4FC33F 		.word	1069764491
  34              		.align	3
  37              	fpr_inv_sigma:
  38 0018 00000000 		.word	0
  39 001c 00000000 		.word	0
  40 0020 9A16247E 		.word	2116294298
  41 0024 EB487C3F 		.word	1065109739
  42 0028 D9AE8C54 		.word	1418505945
  43 002c 0AE57B3F 		.word	1065084170
  44 0030 2C769EE0 		.word	-526485972
  45 0034 2E857B3F 		.word	1065059630
  46 0038 36DACAD3 		.word	-741680586
  47 003c 5EFC7A3F 		.word	1065024606
  48 0040 EDB37609 		.word	158774253
  49 0044 3B7B7A3F 		.word	1064991547
  50 0048 989CCA82 		.word	-2100650856
  51 004c 12017A3F 		.word	1064960274
  52 0050 36275FCE 		.word	-832624842
  53 0054 498D793F 		.word	1064930633
  54 0058 EED96EC5 		.word	-982590994
  55 005c 571F793F 		.word	1064902487
  56 0060 CAC764DE 		.word	-563820598
  57 0064 C2B6783F 		.word	1064875714
  58 0068 E31A31F6 		.word	-164554013
  59 006c 1E53783F 		.word	1064850206
  60              		.align	3
  63              	fpr_sigma_min:
  64 0070 00000000 		.word	0
  65 0074 00000000 		.word	0
  66 0078 8B564406 		.word	105141899
  67 007c 38DDF13F 		.word	1072815416
  68 0080 2686ADDC 		.word	-592607706
  69 0084 2E1DF23F 		.word	1072831790
  70 0088 7A7CAAE1 		.word	-508920710
  71 008c 465CF23F 		.word	1072847942
  72 0090 25FB4A57 		.word	1464531749
  73 0094 5CB9F23F 		.word	1072871772
  74 0098 B622FEC7 		.word	-939646282
  75 009c AB14F33F 		.word	1072895147
  76 00a0 C3D77534 		.word	880138179
  77 00a4 4E6EF33F 		.word	1072918094
  78 00a8 24C2A166 		.word	1721877028
  79 00ac 5AC6F33F 		.word	1072940634
  80 00b0 A0B38C35 		.word	898413472
  81 00b4 E51CF43F 		.word	1072962789
  82 00b8 757A1FBF 		.word	-1088456075
  83 00bc 0172F43F 		.word	1072984577
  84 00c0 64C79099 		.word	-1718565020
  85 00c4 C1C5F43F 		.word	1073006017
  86              		.align	3
  89              	fpr_log2:
  90 00c8 EF39FAFE 		.word	-17155601
  91 00cc 422EE63F 		.word	1072049730
  92              		.align	3
  95              	fpr_inv_log2:
  96 00d0 FE822B65 		.word	1697350398
  97 00d4 4715F73F 		.word	1073157447
  98              		.align	3
 101              	fpr_bnorm_max:
 102 00d8 ACADD85F 		.word	1608035756
 103 00dc 9A6DD040 		.word	1087401370
 104              		.align	3
 107              	fpr_zero:
 108 00e0 00000000 		.space	8
 108      00000000 
 109              		.align	3
 112              	fpr_one:
 113 00e8 00000000 		.word	0
 114 00ec 0000F03F 		.word	1072693248
 115              		.align	3
 118              	fpr_two:
 119 00f0 00000000 		.word	0
 120 00f4 00000040 		.word	1073741824
 121              		.align	3
 124              	fpr_onehalf:
 125 00f8 00000000 		.word	0
 126 00fc 0000E03F 		.word	1071644672
 127              		.align	3
 130              	fpr_invsqrt2:
 131 0100 CD3B7F66 		.word	1719614413
 132 0104 9EA0E63F 		.word	1072079006
 133              		.align	3
 136              	fpr_invsqrt8:
 137 0108 CD3B7F66 		.word	1719614413
 138 010c 9EA0D63F 		.word	1071030430
 139              		.align	3
 142              	fpr_ptwo31:
 143 0110 00000000 		.word	0
 144 0114 0000E041 		.word	1105199104
 145              		.align	3
 148              	fpr_ptwo31m1:
 149 0118 0000C0FF 		.word	-4194304
 150 011c FFFFDF41 		.word	1105199103
 151              		.align	3
 154              	fpr_mtwo31m1:
 155 0120 0000C0FF 		.word	-4194304
 156 0124 FFFFDFC1 		.word	-1042284545
 157              		.align	3
 160              	fpr_ptwo63m1:
 161 0128 00000000 		.word	0
 162 012c 0000E043 		.word	1138753536
 163              		.align	3
 166              	fpr_mtwo63m1:
 167 0130 00000000 		.word	0
 168 0134 0000E0C3 		.word	-1008730112
 169              		.align	3
 172              	fpr_ptwo63:
 173 0138 00000000 		.word	0
 174 013c 0000E043 		.word	1138753536
 175              		.align	3
 178              	RC:
 179 0140 01000000 		.word	1
 180 0144 00000000 		.word	0
 181 0148 82800000 		.word	32898
 182 014c 00000000 		.word	0
 183 0150 8A800000 		.word	32906
 184 0154 00000080 		.word	-2147483648
 185 0158 00800080 		.word	-2147450880
 186 015c 00000080 		.word	-2147483648
 187 0160 8B800000 		.word	32907
 188 0164 00000000 		.word	0
 189 0168 01000080 		.word	-2147483647
 190 016c 00000000 		.word	0
 191 0170 81800080 		.word	-2147450751
 192 0174 00000080 		.word	-2147483648
 193 0178 09800000 		.word	32777
 194 017c 00000080 		.word	-2147483648
 195 0180 8A000000 		.word	138
 196 0184 00000000 		.word	0
 197 0188 88000000 		.word	136
 198 018c 00000000 		.word	0
 199 0190 09800080 		.word	-2147450871
 200 0194 00000000 		.word	0
 201 0198 0A000080 		.word	-2147483638
 202 019c 00000000 		.word	0
 203 01a0 8B800080 		.word	-2147450741
 204 01a4 00000000 		.word	0
 205 01a8 8B000000 		.word	139
 206 01ac 00000080 		.word	-2147483648
 207 01b0 89800000 		.word	32905
 208 01b4 00000080 		.word	-2147483648
 209 01b8 03800000 		.word	32771
 210 01bc 00000080 		.word	-2147483648
 211 01c0 02800000 		.word	32770
 212 01c4 00000080 		.word	-2147483648
 213 01c8 80000000 		.word	128
 214 01cc 00000080 		.word	-2147483648
 215 01d0 0A800000 		.word	32778
 216 01d4 00000000 		.word	0
 217 01d8 0A000080 		.word	-2147483638
 218 01dc 00000080 		.word	-2147483648
 219 01e0 81800080 		.word	-2147450751
 220 01e4 00000080 		.word	-2147483648
 221 01e8 80800000 		.word	32896
 222 01ec 00000080 		.word	-2147483648
 223 01f0 01000080 		.word	-2147483647
 224 01f4 00000000 		.word	0
 225 01f8 08800080 		.word	-2147450872
 226 01fc 00000080 		.word	-2147483648
 227              		.section	.text.process_block,"ax",%progbits
 228              		.align	1
 229              		.arch armv7e-m
 230              		.syntax unified
 231              		.thumb
 232              		.thumb_func
 233              		.fpu softvfp
 235              	process_block:
 236              	.LFB18:
 237              		.file 1 "shake.c"
   1:shake.c       **** /*
   2:shake.c       ****  * SHAKE implementation.
   3:shake.c       ****  *
   4:shake.c       ****  * ==========================(LICENSE BEGIN)============================
   5:shake.c       ****  *
   6:shake.c       ****  * Copyright (c) 2017-2019  Falcon Project
   7:shake.c       ****  *
   8:shake.c       ****  * Permission is hereby granted, free of charge, to any person obtaining
   9:shake.c       ****  * a copy of this software and associated documentation files (the
  10:shake.c       ****  * "Software"), to deal in the Software without restriction, including
  11:shake.c       ****  * without limitation the rights to use, copy, modify, merge, publish,
  12:shake.c       ****  * distribute, sublicense, and/or sell copies of the Software, and to
  13:shake.c       ****  * permit persons to whom the Software is furnished to do so, subject to
  14:shake.c       ****  * the following conditions:
  15:shake.c       ****  *
  16:shake.c       ****  * The above copyright notice and this permission notice shall be
  17:shake.c       ****  * included in all copies or substantial portions of the Software.
  18:shake.c       ****  *
  19:shake.c       ****  * THE SOFTWARE IS PROVIDED "AS IS", WITHOUT WARRANTY OF ANY KIND,
  20:shake.c       ****  * EXPRESS OR IMPLIED, INCLUDING BUT NOT LIMITED TO THE WARRANTIES OF
  21:shake.c       ****  * MERCHANTABILITY, FITNESS FOR A PARTICULAR PURPOSE AND NONINFRINGEMENT.
  22:shake.c       ****  * IN NO EVENT SHALL THE AUTHORS OR COPYRIGHT HOLDERS BE LIABLE FOR ANY
  23:shake.c       ****  * CLAIM, DAMAGES OR OTHER LIABILITY, WHETHER IN AN ACTION OF CONTRACT,
  24:shake.c       ****  * TORT OR OTHERWISE, ARISING FROM, OUT OF OR IN CONNECTION WITH THE
  25:shake.c       ****  * SOFTWARE OR THE USE OR OTHER DEALINGS IN THE SOFTWARE.
  26:shake.c       ****  *
  27:shake.c       ****  * ===========================(LICENSE END)=============================
  28:shake.c       ****  *
  29:shake.c       ****  * @author   Thomas Pornin <thomas.pornin@nccgroup.com>
  30:shake.c       ****  */
  31:shake.c       **** 
  32:shake.c       **** #include <string.h>
  33:shake.c       **** 
  34:shake.c       **** #include "inner.h"
  35:shake.c       **** 
  36:shake.c       **** 
  37:shake.c       **** /*
  38:shake.c       ****  * Round constants.
  39:shake.c       ****  */
  40:shake.c       **** static const uint64_t RC[] = {
  41:shake.c       **** 	0x0000000000000001, 0x0000000000008082,
  42:shake.c       **** 	0x800000000000808A, 0x8000000080008000,
  43:shake.c       **** 	0x000000000000808B, 0x0000000080000001,
  44:shake.c       **** 	0x8000000080008081, 0x8000000000008009,
  45:shake.c       **** 	0x000000000000008A, 0x0000000000000088,
  46:shake.c       **** 	0x0000000080008009, 0x000000008000000A,
  47:shake.c       **** 	0x000000008000808B, 0x800000000000008B,
  48:shake.c       **** 	0x8000000000008089, 0x8000000000008003,
  49:shake.c       **** 	0x8000000000008002, 0x8000000000000080,
  50:shake.c       **** 	0x000000000000800A, 0x800000008000000A,
  51:shake.c       **** 	0x8000000080008081, 0x8000000000008080,
  52:shake.c       **** 	0x0000000080000001, 0x8000000080008008
  53:shake.c       **** };
  54:shake.c       **** 
  55:shake.c       **** /*
  56:shake.c       ****  * Process the provided state.
  57:shake.c       ****  */
  58:shake.c       **** static void
  59:shake.c       **** process_block(uint64_t *A)
  60:shake.c       **** {
 238              		.loc 1 60 1
 239              		.cfi_startproc
 240              		@ args = 0, pretend = 0, frame = 2704
 241              		@ frame_needed = 1, uses_anonymous_args = 0
 242              		@ link register save eliminated.
 243 0000 2DE9B00F 		push	{r4, r5, r7, r8, r9, r10, fp}
 244              	.LCFI0:
 245              		.cfi_def_cfa_offset 28
 246              		.cfi_offset 4, -28
 247              		.cfi_offset 5, -24
 248              		.cfi_offset 7, -20
 249              		.cfi_offset 8, -16
 250              		.cfi_offset 9, -12
 251              		.cfi_offset 10, -8
 252              		.cfi_offset 11, -4
 253 0004 ADF6942D 		subw	sp, sp, #2708
 254              	.LCFI1:
 255              		.cfi_def_cfa_offset 2736
 256 0008 00AF     		add	r7, sp, #0
 257              	.LCFI2:
 258              		.cfi_def_cfa_register 7
 259 000a C7F8FC09 		str	r0, [r7, #2556]
  61:shake.c       **** 	uint64_t t0, t1, t2, t3, t4;
  62:shake.c       **** 	uint64_t tt0, tt1, tt2, tt3;
  63:shake.c       **** 	uint64_t t, kt;
  64:shake.c       **** 	uint64_t c0, c1, c2, c3, c4, bnn;
  65:shake.c       **** 	int j;
  66:shake.c       **** 
  67:shake.c       **** 	/*
  68:shake.c       **** 	 * Invert some words (alternate internal representation, which
  69:shake.c       **** 	 * saves some operations).
  70:shake.c       **** 	 */
  71:shake.c       **** 	A[ 1] = ~A[ 1];
 260              		.loc 1 71 12
 261 000e D7F8FC39 		ldr	r3, [r7, #2556]
 262 0012 0833     		adds	r3, r3, #8
 263 0014 D3E90001 		ldrd	r0, [r3]
 264              		.loc 1 71 3
 265 0018 D7F8FC39 		ldr	r3, [r7, #2556]
 266 001c 0833     		adds	r3, r3, #8
 267              		.loc 1 71 10
 268 001e C443     		mvns	r4, r0
 269 0020 CD43     		mvns	r5, r1
 270              		.loc 1 71 8
 271 0022 C3E90045 		strd	r4, [r3]
  72:shake.c       **** 	A[ 2] = ~A[ 2];
 272              		.loc 1 72 12
 273 0026 D7F8FC39 		ldr	r3, [r7, #2556]
 274 002a 1033     		adds	r3, r3, #16
 275 002c D3E90001 		ldrd	r0, [r3]
 276              		.loc 1 72 3
 277 0030 D7F8FC39 		ldr	r3, [r7, #2556]
 278 0034 1033     		adds	r3, r3, #16
 279              		.loc 1 72 10
 280 0036 6FEA0008 		mvn	r8, r0
 281 003a 6FEA0109 		mvn	r9, r1
 282              		.loc 1 72 8
 283 003e C3E90089 		strd	r8, [r3]
  73:shake.c       **** 	A[ 8] = ~A[ 8];
 284              		.loc 1 73 12
 285 0042 D7F8FC39 		ldr	r3, [r7, #2556]
 286 0046 4033     		adds	r3, r3, #64
 287 0048 D3E90001 		ldrd	r0, [r3]
 288              		.loc 1 73 3
 289 004c D7F8FC39 		ldr	r3, [r7, #2556]
 290 0050 4033     		adds	r3, r3, #64
 291              		.loc 1 73 10
 292 0052 6FEA000A 		mvn	r10, r0
 293 0056 6FEA010B 		mvn	fp, r1
 294              		.loc 1 73 8
 295 005a C3E900AB 		strd	r10, [r3]
  74:shake.c       **** 	A[12] = ~A[12];
 296              		.loc 1 74 12
 297 005e D7F8FC39 		ldr	r3, [r7, #2556]
 298 0062 6033     		adds	r3, r3, #96
 299 0064 D3E90001 		ldrd	r0, [r3]
 300              		.loc 1 74 3
 301 0068 D7F8FC39 		ldr	r3, [r7, #2556]
 302 006c 6033     		adds	r3, r3, #96
 303              		.loc 1 74 10
 304 006e C243     		mvns	r2, r0
 305 0070 C7F8F029 		str	r2, [r7, #2544]
 306 0074 CA43     		mvns	r2, r1
 307 0076 C7F8F429 		str	r2, [r7, #2548]
 308              		.loc 1 74 8
 309 007a 07F51F62 		add	r2, r7, #2544
 310 007e D2E90012 		ldrd	r1, [r2]
 311 0082 C3E90012 		strd	r1, [r3]
  75:shake.c       **** 	A[17] = ~A[17];
 312              		.loc 1 75 12
 313 0086 D7F8FC39 		ldr	r3, [r7, #2556]
 314 008a 8833     		adds	r3, r3, #136
 315 008c D3E90001 		ldrd	r0, [r3]
 316              		.loc 1 75 3
 317 0090 D7F8FC39 		ldr	r3, [r7, #2556]
 318 0094 8833     		adds	r3, r3, #136
 319              		.loc 1 75 10
 320 0096 C243     		mvns	r2, r0
 321 0098 C7F8E829 		str	r2, [r7, #2536]
 322 009c CA43     		mvns	r2, r1
 323 009e C7F8EC29 		str	r2, [r7, #2540]
 324              		.loc 1 75 8
 325 00a2 07F6E812 		addw	r2, r7, #2536
 326 00a6 D2E90012 		ldrd	r1, [r2]
 327 00aa C3E90012 		strd	r1, [r3]
  76:shake.c       **** 	A[20] = ~A[20];
 328              		.loc 1 76 12
 329 00ae D7F8FC39 		ldr	r3, [r7, #2556]
 330 00b2 A033     		adds	r3, r3, #160
 331 00b4 D3E90001 		ldrd	r0, [r3]
 332              		.loc 1 76 3
 333 00b8 D7F8FC39 		ldr	r3, [r7, #2556]
 334 00bc A033     		adds	r3, r3, #160
 335              		.loc 1 76 10
 336 00be C243     		mvns	r2, r0
 337 00c0 C7F8E029 		str	r2, [r7, #2528]
 338 00c4 CA43     		mvns	r2, r1
 339 00c6 C7F8E429 		str	r2, [r7, #2532]
 340              		.loc 1 76 8
 341 00ca 07F51E62 		add	r2, r7, #2528
 342 00ce D2E90012 		ldrd	r1, [r2]
 343 00d2 C3E90012 		strd	r1, [r3]
  77:shake.c       **** 
  78:shake.c       **** 	/*
  79:shake.c       **** 	 * Compute the 24 rounds. This loop is partially unrolled (each
  80:shake.c       **** 	 * iteration computes two rounds).
  81:shake.c       **** 	 */
  82:shake.c       **** 	for (j = 0; j < 24; j += 2) {
 344              		.loc 1 82 9
 345 00d6 0023     		movs	r3, #0
 346 00d8 C7F88C3A 		str	r3, [r7, #2700]
 347              		.loc 1 82 2
 348 00dc 03F034BF 		b	.L2
 349              	.L3:
  83:shake.c       **** 
  84:shake.c       **** 		tt0 = A[ 1] ^ A[ 6];
 350              		.loc 1 84 10 discriminator 3
 351 00e0 D7F8FC39 		ldr	r3, [r7, #2556]
 352 00e4 0833     		adds	r3, r3, #8
 353 00e6 D3E90001 		ldrd	r0, [r3]
 354              		.loc 1 84 18 discriminator 3
 355 00ea D7F8FC39 		ldr	r3, [r7, #2556]
 356 00ee 3033     		adds	r3, r3, #48
 357 00f0 D3E90023 		ldrd	r2, [r3]
 358              		.loc 1 84 7 discriminator 3
 359 00f4 80EA0204 		eor	r4, r0, r2
 360 00f8 C7F83846 		str	r4, [r7, #1592]
 361 00fc 4B40     		eors	r3, r3, r1
 362 00fe C7F83C36 		str	r3, [r7, #1596]
 363 0102 07F5C763 		add	r3, r7, #1592
 364 0106 D3E90034 		ldrd	r3, [r3]
 365 010a 07F52862 		add	r2, r7, #2688
 366 010e C2E90034 		strd	r3, [r2]
  85:shake.c       **** 		tt1 = A[11] ^ A[16];
 367              		.loc 1 85 10 discriminator 3
 368 0112 D7F8FC39 		ldr	r3, [r7, #2556]
 369 0116 5833     		adds	r3, r3, #88
 370 0118 D3E90001 		ldrd	r0, [r3]
 371              		.loc 1 85 18 discriminator 3
 372 011c D7F8FC39 		ldr	r3, [r7, #2556]
 373 0120 8033     		adds	r3, r3, #128
 374 0122 D3E90023 		ldrd	r2, [r3]
 375              		.loc 1 85 7 discriminator 3
 376 0126 80EA0204 		eor	r4, r0, r2
 377 012a C7F83046 		str	r4, [r7, #1584]
 378 012e 4B40     		eors	r3, r3, r1
 379 0130 C7F83436 		str	r3, [r7, #1588]
 380 0134 07F5C663 		add	r3, r7, #1584
 381 0138 D3E90034 		ldrd	r3, [r3]
 382 013c 07F67822 		addw	r2, r7, #2680
 383 0140 C2E90034 		strd	r3, [r2]
  86:shake.c       **** 		tt0 ^= A[21] ^ tt1;
 384              		.loc 1 86 11 discriminator 3
 385 0144 D7F8FC39 		ldr	r3, [r7, #2556]
 386 0148 A833     		adds	r3, r3, #168
 387 014a D3E90001 		ldrd	r0, [r3]
 388              		.loc 1 86 16 discriminator 3
 389 014e 07F67823 		addw	r3, r7, #2680
 390 0152 D3E90023 		ldrd	r2, [r3]
 391 0156 80EA0204 		eor	r4, r0, r2
 392 015a C7F8D849 		str	r4, [r7, #2520]
 393 015e 4B40     		eors	r3, r3, r1
 394 0160 C7F8DC39 		str	r3, [r7, #2524]
 395              		.loc 1 86 7 discriminator 3
 396 0164 07F52863 		add	r3, r7, #2688
 397 0168 D3E90023 		ldrd	r2, [r3]
 398 016c 07F6D811 		addw	r1, r7, #2520
 399 0170 D1E90001 		ldrd	r0, [r1]
 400 0174 0446     		mov	r4, r0
 401 0176 5440     		eors	r4, r4, r2
 402 0178 C7F82846 		str	r4, [r7, #1576]
 403 017c 4B40     		eors	r3, r3, r1
 404 017e C7F82C36 		str	r3, [r7, #1580]
 405 0182 07F5C563 		add	r3, r7, #1576
 406 0186 D3E90034 		ldrd	r3, [r3]
 407 018a 07F52862 		add	r2, r7, #2688
 408 018e C2E90034 		strd	r3, [r2]
  87:shake.c       **** 		tt0 = (tt0 << 1) | (tt0 >> 63);
 409              		.loc 1 87 7 discriminator 3
 410 0192 D7F8803A 		ldr	r3, [r7, #2688]
 411 0196 DA0F     		lsrs	r2, r3, #31
 412 0198 D7F8843A 		ldr	r3, [r7, #2692]
 413 019c 5B00     		lsls	r3, r3, #1
 414 019e 1343     		orrs	r3, r3, r2
 415 01a0 C7F82436 		str	r3, [r7, #1572]
 416 01a4 D7F8843A 		ldr	r3, [r7, #2692]
 417 01a8 DA0F     		lsrs	r2, r3, #31
 418 01aa D7F8803A 		ldr	r3, [r7, #2688]
 419 01ae 5B00     		lsls	r3, r3, #1
 420 01b0 1343     		orrs	r3, r3, r2
 421 01b2 C7F82036 		str	r3, [r7, #1568]
 422 01b6 07F5C463 		add	r3, r7, #1568
 423 01ba D3E90034 		ldrd	r3, [r3]
 424 01be 07F52862 		add	r2, r7, #2688
 425 01c2 C2E90034 		strd	r3, [r2]
  88:shake.c       **** 		tt2 = A[ 4] ^ A[ 9];
 426              		.loc 1 88 10 discriminator 3
 427 01c6 D7F8FC39 		ldr	r3, [r7, #2556]
 428 01ca 2033     		adds	r3, r3, #32
 429 01cc D3E90001 		ldrd	r0, [r3]
 430              		.loc 1 88 18 discriminator 3
 431 01d0 D7F8FC39 		ldr	r3, [r7, #2556]
 432 01d4 4833     		adds	r3, r3, #72
 433 01d6 D3E90023 		ldrd	r2, [r3]
 434              		.loc 1 88 7 discriminator 3
 435 01da 80EA0204 		eor	r4, r0, r2
 436 01de C7F81846 		str	r4, [r7, #1560]
 437 01e2 4B40     		eors	r3, r3, r1
 438 01e4 C7F81C36 		str	r3, [r7, #1564]
 439 01e8 07F5C363 		add	r3, r7, #1560
 440 01ec D3E90034 		ldrd	r3, [r3]
 441 01f0 07F52762 		add	r2, r7, #2672
 442 01f4 C2E90034 		strd	r3, [r2]
  89:shake.c       **** 		tt3 = A[14] ^ A[19];
 443              		.loc 1 89 10 discriminator 3
 444 01f8 D7F8FC39 		ldr	r3, [r7, #2556]
 445 01fc 7033     		adds	r3, r3, #112
 446 01fe D3E90001 		ldrd	r0, [r3]
 447              		.loc 1 89 18 discriminator 3
 448 0202 D7F8FC39 		ldr	r3, [r7, #2556]
 449 0206 9833     		adds	r3, r3, #152
 450 0208 D3E90023 		ldrd	r2, [r3]
 451              		.loc 1 89 7 discriminator 3
 452 020c 80EA0204 		eor	r4, r0, r2
 453 0210 C7F81046 		str	r4, [r7, #1552]
 454 0214 4B40     		eors	r3, r3, r1
 455 0216 C7F81436 		str	r3, [r7, #1556]
 456 021a 07F5C263 		add	r3, r7, #1552
 457 021e D3E90034 		ldrd	r3, [r3]
 458 0222 07F66822 		addw	r2, r7, #2664
 459 0226 C2E90034 		strd	r3, [r2]
  90:shake.c       **** 		tt0 ^= A[24];
 460              		.loc 1 90 11 discriminator 3
 461 022a D7F8FC39 		ldr	r3, [r7, #2556]
 462 022e C033     		adds	r3, r3, #192
 463 0230 D3E90001 		ldrd	r0, [r3]
 464              		.loc 1 90 7 discriminator 3
 465 0234 07F52863 		add	r3, r7, #2688
 466 0238 D3E90023 		ldrd	r2, [r3]
 467 023c 82EA0004 		eor	r4, r2, r0
 468 0240 C7F80846 		str	r4, [r7, #1544]
 469 0244 4B40     		eors	r3, r3, r1
 470 0246 C7F80C36 		str	r3, [r7, #1548]
 471 024a 07F5C163 		add	r3, r7, #1544
 472 024e D3E90034 		ldrd	r3, [r3]
 473 0252 07F52862 		add	r2, r7, #2688
 474 0256 C2E90034 		strd	r3, [r2]
  91:shake.c       **** 		tt2 ^= tt3;
 475              		.loc 1 91 7 discriminator 3
 476 025a 07F52763 		add	r3, r7, #2672
 477 025e D3E90001 		ldrd	r0, [r3]
 478 0262 07F66823 		addw	r3, r7, #2664
 479 0266 D3E90023 		ldrd	r2, [r3]
 480 026a 80EA0204 		eor	r4, r0, r2
 481 026e C7F80046 		str	r4, [r7, #1536]
 482 0272 4B40     		eors	r3, r3, r1
 483 0274 C7F80436 		str	r3, [r7, #1540]
 484 0278 07F5C063 		add	r3, r7, #1536
 485 027c D3E90034 		ldrd	r3, [r3]
 486 0280 07F52762 		add	r2, r7, #2672
 487 0284 C2E90034 		strd	r3, [r2]
  92:shake.c       **** 		t0 = tt0 ^ tt2;
 488              		.loc 1 92 6 discriminator 3
 489 0288 07F52863 		add	r3, r7, #2688
 490 028c D3E90001 		ldrd	r0, [r3]
 491 0290 07F52763 		add	r3, r7, #2672
 492 0294 D3E90023 		ldrd	r2, [r3]
 493 0298 80EA0204 		eor	r4, r0, r2
 494 029c C7F8F845 		str	r4, [r7, #1528]
 495 02a0 4B40     		eors	r3, r3, r1
 496 02a2 C7F8FC35 		str	r3, [r7, #1532]
 497 02a6 07F5BF63 		add	r3, r7, #1528
 498 02aa D3E90034 		ldrd	r3, [r3]
 499 02ae 07F52662 		add	r2, r7, #2656
 500 02b2 C2E90034 		strd	r3, [r2]
  93:shake.c       **** 
  94:shake.c       **** 		tt0 = A[ 2] ^ A[ 7];
 501              		.loc 1 94 10 discriminator 3
 502 02b6 D7F8FC39 		ldr	r3, [r7, #2556]
 503 02ba 1033     		adds	r3, r3, #16
 504 02bc D3E90001 		ldrd	r0, [r3]
 505              		.loc 1 94 18 discriminator 3
 506 02c0 D7F8FC39 		ldr	r3, [r7, #2556]
 507 02c4 3833     		adds	r3, r3, #56
 508 02c6 D3E90023 		ldrd	r2, [r3]
 509              		.loc 1 94 7 discriminator 3
 510 02ca 80EA0204 		eor	r4, r0, r2
 511 02ce C7F8F045 		str	r4, [r7, #1520]
 512 02d2 4B40     		eors	r3, r3, r1
 513 02d4 C7F8F435 		str	r3, [r7, #1524]
 514 02d8 07F5BE63 		add	r3, r7, #1520
 515 02dc D3E90034 		ldrd	r3, [r3]
 516 02e0 07F52862 		add	r2, r7, #2688
 517 02e4 C2E90034 		strd	r3, [r2]
  95:shake.c       **** 		tt1 = A[12] ^ A[17];
 518              		.loc 1 95 10 discriminator 3
 519 02e8 D7F8FC39 		ldr	r3, [r7, #2556]
 520 02ec 6033     		adds	r3, r3, #96
 521 02ee D3E90001 		ldrd	r0, [r3]
 522              		.loc 1 95 18 discriminator 3
 523 02f2 D7F8FC39 		ldr	r3, [r7, #2556]
 524 02f6 8833     		adds	r3, r3, #136
 525 02f8 D3E90023 		ldrd	r2, [r3]
 526              		.loc 1 95 7 discriminator 3
 527 02fc 80EA0204 		eor	r4, r0, r2
 528 0300 C7F8E845 		str	r4, [r7, #1512]
 529 0304 4B40     		eors	r3, r3, r1
 530 0306 C7F8EC35 		str	r3, [r7, #1516]
 531 030a 07F5BD63 		add	r3, r7, #1512
 532 030e D3E90034 		ldrd	r3, [r3]
 533 0312 07F67822 		addw	r2, r7, #2680
 534 0316 C2E90034 		strd	r3, [r2]
  96:shake.c       **** 		tt0 ^= A[22] ^ tt1;
 535              		.loc 1 96 11 discriminator 3
 536 031a D7F8FC39 		ldr	r3, [r7, #2556]
 537 031e B033     		adds	r3, r3, #176
 538 0320 D3E90001 		ldrd	r0, [r3]
 539              		.loc 1 96 16 discriminator 3
 540 0324 07F67823 		addw	r3, r7, #2680
 541 0328 D3E90023 		ldrd	r2, [r3]
 542 032c 80EA0204 		eor	r4, r0, r2
 543 0330 C7F8D049 		str	r4, [r7, #2512]
 544 0334 4B40     		eors	r3, r3, r1
 545 0336 C7F8D439 		str	r3, [r7, #2516]
 546              		.loc 1 96 7 discriminator 3
 547 033a 07F52863 		add	r3, r7, #2688
 548 033e D3E90023 		ldrd	r2, [r3]
 549 0342 07F51D61 		add	r1, r7, #2512
 550 0346 D1E90001 		ldrd	r0, [r1]
 551 034a 0446     		mov	r4, r0
 552 034c 5440     		eors	r4, r4, r2
 553 034e C7F8E045 		str	r4, [r7, #1504]
 554 0352 4B40     		eors	r3, r3, r1
 555 0354 C7F8E435 		str	r3, [r7, #1508]
 556 0358 07F5BC63 		add	r3, r7, #1504
 557 035c D3E90034 		ldrd	r3, [r3]
 558 0360 07F52862 		add	r2, r7, #2688
 559 0364 C2E90034 		strd	r3, [r2]
  97:shake.c       **** 		tt0 = (tt0 << 1) | (tt0 >> 63);
 560              		.loc 1 97 7 discriminator 3
 561 0368 D7F8803A 		ldr	r3, [r7, #2688]
 562 036c DA0F     		lsrs	r2, r3, #31
 563 036e D7F8843A 		ldr	r3, [r7, #2692]
 564 0372 5B00     		lsls	r3, r3, #1
 565 0374 1343     		orrs	r3, r3, r2
 566 0376 C7F8DC35 		str	r3, [r7, #1500]
 567 037a D7F8843A 		ldr	r3, [r7, #2692]
 568 037e DA0F     		lsrs	r2, r3, #31
 569 0380 D7F8803A 		ldr	r3, [r7, #2688]
 570 0384 5B00     		lsls	r3, r3, #1
 571 0386 1343     		orrs	r3, r3, r2
 572 0388 C7F8D835 		str	r3, [r7, #1496]
 573 038c 07F5BB63 		add	r3, r7, #1496
 574 0390 D3E90034 		ldrd	r3, [r3]
 575 0394 07F52862 		add	r2, r7, #2688
 576 0398 C2E90034 		strd	r3, [r2]
  98:shake.c       **** 		tt2 = A[ 0] ^ A[ 5];
 577              		.loc 1 98 10 discriminator 3
 578 039c D7F8FC39 		ldr	r3, [r7, #2556]
 579 03a0 D3E90001 		ldrd	r0, [r3]
 580              		.loc 1 98 18 discriminator 3
 581 03a4 D7F8FC39 		ldr	r3, [r7, #2556]
 582 03a8 2833     		adds	r3, r3, #40
 583 03aa D3E90023 		ldrd	r2, [r3]
 584              		.loc 1 98 7 discriminator 3
 585 03ae 80EA0204 		eor	r4, r0, r2
 586 03b2 C7F8D045 		str	r4, [r7, #1488]
 587 03b6 4B40     		eors	r3, r3, r1
 588 03b8 C7F8D435 		str	r3, [r7, #1492]
 589 03bc 07F5BA63 		add	r3, r7, #1488
 590 03c0 D3E90034 		ldrd	r3, [r3]
 591 03c4 07F52762 		add	r2, r7, #2672
 592 03c8 C2E90034 		strd	r3, [r2]
  99:shake.c       **** 		tt3 = A[10] ^ A[15];
 593              		.loc 1 99 10 discriminator 3
 594 03cc D7F8FC39 		ldr	r3, [r7, #2556]
 595 03d0 5033     		adds	r3, r3, #80
 596 03d2 D3E90001 		ldrd	r0, [r3]
 597              		.loc 1 99 18 discriminator 3
 598 03d6 D7F8FC39 		ldr	r3, [r7, #2556]
 599 03da 7833     		adds	r3, r3, #120
 600 03dc D3E90023 		ldrd	r2, [r3]
 601              		.loc 1 99 7 discriminator 3
 602 03e0 80EA0204 		eor	r4, r0, r2
 603 03e4 C7F8C845 		str	r4, [r7, #1480]
 604 03e8 4B40     		eors	r3, r3, r1
 605 03ea C7F8CC35 		str	r3, [r7, #1484]
 606 03ee 07F5B963 		add	r3, r7, #1480
 607 03f2 D3E90034 		ldrd	r3, [r3]
 608 03f6 07F66822 		addw	r2, r7, #2664
 609 03fa C2E90034 		strd	r3, [r2]
 100:shake.c       **** 		tt0 ^= A[20];
 610              		.loc 1 100 11 discriminator 3
 611 03fe D7F8FC39 		ldr	r3, [r7, #2556]
 612 0402 A033     		adds	r3, r3, #160
 613 0404 D3E90001 		ldrd	r0, [r3]
 614              		.loc 1 100 7 discriminator 3
 615 0408 07F52863 		add	r3, r7, #2688
 616 040c D3E90023 		ldrd	r2, [r3]
 617 0410 82EA0004 		eor	r4, r2, r0
 618 0414 C7F8C045 		str	r4, [r7, #1472]
 619 0418 4B40     		eors	r3, r3, r1
 620 041a C7F8C435 		str	r3, [r7, #1476]
 621 041e 07F5B863 		add	r3, r7, #1472
 622 0422 D3E90034 		ldrd	r3, [r3]
 623 0426 07F52862 		add	r2, r7, #2688
 624 042a C2E90034 		strd	r3, [r2]
 101:shake.c       **** 		tt2 ^= tt3;
 625              		.loc 1 101 7 discriminator 3
 626 042e 07F52763 		add	r3, r7, #2672
 627 0432 D3E90001 		ldrd	r0, [r3]
 628 0436 07F66823 		addw	r3, r7, #2664
 629 043a D3E90023 		ldrd	r2, [r3]
 630 043e 80EA0204 		eor	r4, r0, r2
 631 0442 C7F8B845 		str	r4, [r7, #1464]
 632 0446 4B40     		eors	r3, r3, r1
 633 0448 C7F8BC35 		str	r3, [r7, #1468]
 634 044c 07F5B763 		add	r3, r7, #1464
 635 0450 D3E90034 		ldrd	r3, [r3]
 636 0454 07F52762 		add	r2, r7, #2672
 637 0458 C2E90034 		strd	r3, [r2]
 102:shake.c       **** 		t1 = tt0 ^ tt2;
 638              		.loc 1 102 6 discriminator 3
 639 045c 07F52863 		add	r3, r7, #2688
 640 0460 D3E90001 		ldrd	r0, [r3]
 641 0464 07F52763 		add	r3, r7, #2672
 642 0468 D3E90023 		ldrd	r2, [r3]
 643 046c 80EA0204 		eor	r4, r0, r2
 644 0470 C7F8B045 		str	r4, [r7, #1456]
 645 0474 4B40     		eors	r3, r3, r1
 646 0476 C7F8B435 		str	r3, [r7, #1460]
 647 047a 07F5B663 		add	r3, r7, #1456
 648 047e D3E90034 		ldrd	r3, [r3]
 649 0482 07F65822 		addw	r2, r7, #2648
 650 0486 C2E90034 		strd	r3, [r2]
 103:shake.c       **** 
 104:shake.c       **** 		tt0 = A[ 3] ^ A[ 8];
 651              		.loc 1 104 10 discriminator 3
 652 048a D7F8FC39 		ldr	r3, [r7, #2556]
 653 048e 1833     		adds	r3, r3, #24
 654 0490 D3E90001 		ldrd	r0, [r3]
 655              		.loc 1 104 18 discriminator 3
 656 0494 D7F8FC39 		ldr	r3, [r7, #2556]
 657 0498 4033     		adds	r3, r3, #64
 658 049a D3E90023 		ldrd	r2, [r3]
 659              		.loc 1 104 7 discriminator 3
 660 049e 80EA0204 		eor	r4, r0, r2
 661 04a2 C7F8A845 		str	r4, [r7, #1448]
 662 04a6 4B40     		eors	r3, r3, r1
 663 04a8 C7F8AC35 		str	r3, [r7, #1452]
 664 04ac 07F5B563 		add	r3, r7, #1448
 665 04b0 D3E90034 		ldrd	r3, [r3]
 666 04b4 07F52862 		add	r2, r7, #2688
 667 04b8 C2E90034 		strd	r3, [r2]
 105:shake.c       **** 		tt1 = A[13] ^ A[18];
 668              		.loc 1 105 10 discriminator 3
 669 04bc D7F8FC39 		ldr	r3, [r7, #2556]
 670 04c0 6833     		adds	r3, r3, #104
 671 04c2 D3E90001 		ldrd	r0, [r3]
 672              		.loc 1 105 18 discriminator 3
 673 04c6 D7F8FC39 		ldr	r3, [r7, #2556]
 674 04ca 9033     		adds	r3, r3, #144
 675 04cc D3E90023 		ldrd	r2, [r3]
 676              		.loc 1 105 7 discriminator 3
 677 04d0 80EA0204 		eor	r4, r0, r2
 678 04d4 C7F8A045 		str	r4, [r7, #1440]
 679 04d8 4B40     		eors	r3, r3, r1
 680 04da C7F8A435 		str	r3, [r7, #1444]
 681 04de 07F5B463 		add	r3, r7, #1440
 682 04e2 D3E90034 		ldrd	r3, [r3]
 683 04e6 07F67822 		addw	r2, r7, #2680
 684 04ea C2E90034 		strd	r3, [r2]
 106:shake.c       **** 		tt0 ^= A[23] ^ tt1;
 685              		.loc 1 106 11 discriminator 3
 686 04ee D7F8FC39 		ldr	r3, [r7, #2556]
 687 04f2 B833     		adds	r3, r3, #184
 688 04f4 D3E90001 		ldrd	r0, [r3]
 689              		.loc 1 106 16 discriminator 3
 690 04f8 07F67823 		addw	r3, r7, #2680
 691 04fc D3E90023 		ldrd	r2, [r3]
 692 0500 80EA0204 		eor	r4, r0, r2
 693 0504 C7F8C849 		str	r4, [r7, #2504]
 694 0508 4B40     		eors	r3, r3, r1
 695 050a C7F8CC39 		str	r3, [r7, #2508]
 696              		.loc 1 106 7 discriminator 3
 697 050e 07F52863 		add	r3, r7, #2688
 698 0512 D3E90023 		ldrd	r2, [r3]
 699 0516 07F6C811 		addw	r1, r7, #2504
 700 051a D1E90001 		ldrd	r0, [r1]
 701 051e 0446     		mov	r4, r0
 702 0520 5440     		eors	r4, r4, r2
 703 0522 C7F89845 		str	r4, [r7, #1432]
 704 0526 4B40     		eors	r3, r3, r1
 705 0528 C7F89C35 		str	r3, [r7, #1436]
 706 052c 07F5B363 		add	r3, r7, #1432
 707 0530 D3E90034 		ldrd	r3, [r3]
 708 0534 07F52862 		add	r2, r7, #2688
 709 0538 C2E90034 		strd	r3, [r2]
 107:shake.c       **** 		tt0 = (tt0 << 1) | (tt0 >> 63);
 710              		.loc 1 107 7 discriminator 3
 711 053c D7F8803A 		ldr	r3, [r7, #2688]
 712 0540 DA0F     		lsrs	r2, r3, #31
 713 0542 D7F8843A 		ldr	r3, [r7, #2692]
 714 0546 5B00     		lsls	r3, r3, #1
 715 0548 1343     		orrs	r3, r3, r2
 716 054a C7F89435 		str	r3, [r7, #1428]
 717 054e D7F8843A 		ldr	r3, [r7, #2692]
 718 0552 DA0F     		lsrs	r2, r3, #31
 719 0554 D7F8803A 		ldr	r3, [r7, #2688]
 720 0558 5B00     		lsls	r3, r3, #1
 721 055a 1343     		orrs	r3, r3, r2
 722 055c C7F89035 		str	r3, [r7, #1424]
 723 0560 07F5B263 		add	r3, r7, #1424
 724 0564 D3E90034 		ldrd	r3, [r3]
 725 0568 07F52862 		add	r2, r7, #2688
 726 056c C2E90034 		strd	r3, [r2]
 108:shake.c       **** 		tt2 = A[ 1] ^ A[ 6];
 727              		.loc 1 108 10 discriminator 3
 728 0570 D7F8FC39 		ldr	r3, [r7, #2556]
 729 0574 0833     		adds	r3, r3, #8
 730 0576 D3E90001 		ldrd	r0, [r3]
 731              		.loc 1 108 18 discriminator 3
 732 057a D7F8FC39 		ldr	r3, [r7, #2556]
 733 057e 3033     		adds	r3, r3, #48
 734 0580 D3E90023 		ldrd	r2, [r3]
 735              		.loc 1 108 7 discriminator 3
 736 0584 80EA0204 		eor	r4, r0, r2
 737 0588 C7F88845 		str	r4, [r7, #1416]
 738 058c 4B40     		eors	r3, r3, r1
 739 058e C7F88C35 		str	r3, [r7, #1420]
 740 0592 07F5B163 		add	r3, r7, #1416
 741 0596 D3E90034 		ldrd	r3, [r3]
 742 059a 07F52762 		add	r2, r7, #2672
 743 059e C2E90034 		strd	r3, [r2]
 109:shake.c       **** 		tt3 = A[11] ^ A[16];
 744              		.loc 1 109 10 discriminator 3
 745 05a2 D7F8FC39 		ldr	r3, [r7, #2556]
 746 05a6 5833     		adds	r3, r3, #88
 747 05a8 D3E90001 		ldrd	r0, [r3]
 748              		.loc 1 109 18 discriminator 3
 749 05ac D7F8FC39 		ldr	r3, [r7, #2556]
 750 05b0 8033     		adds	r3, r3, #128
 751 05b2 D3E90023 		ldrd	r2, [r3]
 752              		.loc 1 109 7 discriminator 3
 753 05b6 80EA0204 		eor	r4, r0, r2
 754 05ba C7F88045 		str	r4, [r7, #1408]
 755 05be 4B40     		eors	r3, r3, r1
 756 05c0 C7F88435 		str	r3, [r7, #1412]
 757 05c4 07F5B063 		add	r3, r7, #1408
 758 05c8 D3E90034 		ldrd	r3, [r3]
 759 05cc 07F66822 		addw	r2, r7, #2664
 760 05d0 C2E90034 		strd	r3, [r2]
 110:shake.c       **** 		tt0 ^= A[21];
 761              		.loc 1 110 11 discriminator 3
 762 05d4 D7F8FC39 		ldr	r3, [r7, #2556]
 763 05d8 A833     		adds	r3, r3, #168
 764 05da D3E90001 		ldrd	r0, [r3]
 765              		.loc 1 110 7 discriminator 3
 766 05de 07F52863 		add	r3, r7, #2688
 767 05e2 D3E90023 		ldrd	r2, [r3]
 768 05e6 82EA0004 		eor	r4, r2, r0
 769 05ea C7F87845 		str	r4, [r7, #1400]
 770 05ee 4B40     		eors	r3, r3, r1
 771 05f0 C7F87C35 		str	r3, [r7, #1404]
 772 05f4 07F5AF63 		add	r3, r7, #1400
 773 05f8 D3E90034 		ldrd	r3, [r3]
 774 05fc 07F52862 		add	r2, r7, #2688
 775 0600 C2E90034 		strd	r3, [r2]
 111:shake.c       **** 		tt2 ^= tt3;
 776              		.loc 1 111 7 discriminator 3
 777 0604 07F52763 		add	r3, r7, #2672
 778 0608 D3E90001 		ldrd	r0, [r3]
 779 060c 07F66823 		addw	r3, r7, #2664
 780 0610 D3E90023 		ldrd	r2, [r3]
 781 0614 80EA0204 		eor	r4, r0, r2
 782 0618 C7F87045 		str	r4, [r7, #1392]
 783 061c 4B40     		eors	r3, r3, r1
 784 061e C7F87435 		str	r3, [r7, #1396]
 785 0622 07F5AE63 		add	r3, r7, #1392
 786 0626 D3E90034 		ldrd	r3, [r3]
 787 062a 07F52762 		add	r2, r7, #2672
 788 062e C2E90034 		strd	r3, [r2]
 112:shake.c       **** 		t2 = tt0 ^ tt2;
 789              		.loc 1 112 6 discriminator 3
 790 0632 07F52863 		add	r3, r7, #2688
 791 0636 D3E90001 		ldrd	r0, [r3]
 792 063a 07F52763 		add	r3, r7, #2672
 793 063e D3E90023 		ldrd	r2, [r3]
 794 0642 80EA0204 		eor	r4, r0, r2
 795 0646 C7F86845 		str	r4, [r7, #1384]
 796 064a 4B40     		eors	r3, r3, r1
 797 064c C7F86C35 		str	r3, [r7, #1388]
 798 0650 07F5AD63 		add	r3, r7, #1384
 799 0654 D3E90034 		ldrd	r3, [r3]
 800 0658 07F52562 		add	r2, r7, #2640
 801 065c C2E90034 		strd	r3, [r2]
 113:shake.c       **** 
 114:shake.c       **** 		tt0 = A[ 4] ^ A[ 9];
 802              		.loc 1 114 10 discriminator 3
 803 0660 D7F8FC39 		ldr	r3, [r7, #2556]
 804 0664 2033     		adds	r3, r3, #32
 805 0666 D3E90001 		ldrd	r0, [r3]
 806              		.loc 1 114 18 discriminator 3
 807 066a D7F8FC39 		ldr	r3, [r7, #2556]
 808 066e 4833     		adds	r3, r3, #72
 809 0670 D3E90023 		ldrd	r2, [r3]
 810              		.loc 1 114 7 discriminator 3
 811 0674 80EA0204 		eor	r4, r0, r2
 812 0678 C7F86045 		str	r4, [r7, #1376]
 813 067c 4B40     		eors	r3, r3, r1
 814 067e C7F86435 		str	r3, [r7, #1380]
 815 0682 07F5AC63 		add	r3, r7, #1376
 816 0686 D3E90034 		ldrd	r3, [r3]
 817 068a 07F52862 		add	r2, r7, #2688
 818 068e C2E90034 		strd	r3, [r2]
 115:shake.c       **** 		tt1 = A[14] ^ A[19];
 819              		.loc 1 115 10 discriminator 3
 820 0692 D7F8FC39 		ldr	r3, [r7, #2556]
 821 0696 7033     		adds	r3, r3, #112
 822 0698 D3E90001 		ldrd	r0, [r3]
 823              		.loc 1 115 18 discriminator 3
 824 069c D7F8FC39 		ldr	r3, [r7, #2556]
 825 06a0 9833     		adds	r3, r3, #152
 826 06a2 D3E90023 		ldrd	r2, [r3]
 827              		.loc 1 115 7 discriminator 3
 828 06a6 80EA0204 		eor	r4, r0, r2
 829 06aa C7F85845 		str	r4, [r7, #1368]
 830 06ae 4B40     		eors	r3, r3, r1
 831 06b0 C7F85C35 		str	r3, [r7, #1372]
 832 06b4 07F5AB63 		add	r3, r7, #1368
 833 06b8 D3E90034 		ldrd	r3, [r3]
 834 06bc 07F67822 		addw	r2, r7, #2680
 835 06c0 C2E90034 		strd	r3, [r2]
 116:shake.c       **** 		tt0 ^= A[24] ^ tt1;
 836              		.loc 1 116 11 discriminator 3
 837 06c4 D7F8FC39 		ldr	r3, [r7, #2556]
 838 06c8 C033     		adds	r3, r3, #192
 839 06ca D3E90001 		ldrd	r0, [r3]
 840              		.loc 1 116 16 discriminator 3
 841 06ce 07F67823 		addw	r3, r7, #2680
 842 06d2 D3E90023 		ldrd	r2, [r3]
 843 06d6 80EA0204 		eor	r4, r0, r2
 844 06da C7F8C049 		str	r4, [r7, #2496]
 845 06de 4B40     		eors	r3, r3, r1
 846 06e0 C7F8C439 		str	r3, [r7, #2500]
 847              		.loc 1 116 7 discriminator 3
 848 06e4 07F52863 		add	r3, r7, #2688
 849 06e8 D3E90023 		ldrd	r2, [r3]
 850 06ec 07F51C61 		add	r1, r7, #2496
 851 06f0 D1E90001 		ldrd	r0, [r1]
 852 06f4 0446     		mov	r4, r0
 853 06f6 5440     		eors	r4, r4, r2
 854 06f8 C7F85045 		str	r4, [r7, #1360]
 855 06fc 4B40     		eors	r3, r3, r1
 856 06fe C7F85435 		str	r3, [r7, #1364]
 857 0702 07F5AA63 		add	r3, r7, #1360
 858 0706 D3E90034 		ldrd	r3, [r3]
 859 070a 07F52862 		add	r2, r7, #2688
 860 070e C2E90034 		strd	r3, [r2]
 117:shake.c       **** 		tt0 = (tt0 << 1) | (tt0 >> 63);
 861              		.loc 1 117 7 discriminator 3
 862 0712 D7F8803A 		ldr	r3, [r7, #2688]
 863 0716 DA0F     		lsrs	r2, r3, #31
 864 0718 D7F8843A 		ldr	r3, [r7, #2692]
 865 071c 5B00     		lsls	r3, r3, #1
 866 071e 1343     		orrs	r3, r3, r2
 867 0720 C7F84C35 		str	r3, [r7, #1356]
 868 0724 D7F8843A 		ldr	r3, [r7, #2692]
 869 0728 DA0F     		lsrs	r2, r3, #31
 870 072a D7F8803A 		ldr	r3, [r7, #2688]
 871 072e 5B00     		lsls	r3, r3, #1
 872 0730 1343     		orrs	r3, r3, r2
 873 0732 C7F84835 		str	r3, [r7, #1352]
 874 0736 07F5A963 		add	r3, r7, #1352
 875 073a D3E90034 		ldrd	r3, [r3]
 876 073e 07F52862 		add	r2, r7, #2688
 877 0742 C2E90034 		strd	r3, [r2]
 118:shake.c       **** 		tt2 = A[ 2] ^ A[ 7];
 878              		.loc 1 118 10 discriminator 3
 879 0746 D7F8FC39 		ldr	r3, [r7, #2556]
 880 074a 1033     		adds	r3, r3, #16
 881 074c D3E90001 		ldrd	r0, [r3]
 882              		.loc 1 118 18 discriminator 3
 883 0750 D7F8FC39 		ldr	r3, [r7, #2556]
 884 0754 3833     		adds	r3, r3, #56
 885 0756 D3E90023 		ldrd	r2, [r3]
 886              		.loc 1 118 7 discriminator 3
 887 075a 80EA0204 		eor	r4, r0, r2
 888 075e C7F84045 		str	r4, [r7, #1344]
 889 0762 4B40     		eors	r3, r3, r1
 890 0764 C7F84435 		str	r3, [r7, #1348]
 891 0768 07F5A863 		add	r3, r7, #1344
 892 076c D3E90034 		ldrd	r3, [r3]
 893 0770 07F52762 		add	r2, r7, #2672
 894 0774 C2E90034 		strd	r3, [r2]
 119:shake.c       **** 		tt3 = A[12] ^ A[17];
 895              		.loc 1 119 10 discriminator 3
 896 0778 D7F8FC39 		ldr	r3, [r7, #2556]
 897 077c 6033     		adds	r3, r3, #96
 898 077e D3E90001 		ldrd	r0, [r3]
 899              		.loc 1 119 18 discriminator 3
 900 0782 D7F8FC39 		ldr	r3, [r7, #2556]
 901 0786 8833     		adds	r3, r3, #136
 902 0788 D3E90023 		ldrd	r2, [r3]
 903              		.loc 1 119 7 discriminator 3
 904 078c 80EA0204 		eor	r4, r0, r2
 905 0790 C7F83845 		str	r4, [r7, #1336]
 906 0794 4B40     		eors	r3, r3, r1
 907 0796 C7F83C35 		str	r3, [r7, #1340]
 908 079a 07F5A763 		add	r3, r7, #1336
 909 079e D3E90034 		ldrd	r3, [r3]
 910 07a2 07F66822 		addw	r2, r7, #2664
 911 07a6 C2E90034 		strd	r3, [r2]
 120:shake.c       **** 		tt0 ^= A[22];
 912              		.loc 1 120 11 discriminator 3
 913 07aa D7F8FC39 		ldr	r3, [r7, #2556]
 914 07ae B033     		adds	r3, r3, #176
 915 07b0 D3E90001 		ldrd	r0, [r3]
 916              		.loc 1 120 7 discriminator 3
 917 07b4 07F52863 		add	r3, r7, #2688
 918 07b8 D3E90023 		ldrd	r2, [r3]
 919 07bc 82EA0004 		eor	r4, r2, r0
 920 07c0 C7F83045 		str	r4, [r7, #1328]
 921 07c4 4B40     		eors	r3, r3, r1
 922 07c6 C7F83435 		str	r3, [r7, #1332]
 923 07ca 07F5A663 		add	r3, r7, #1328
 924 07ce D3E90034 		ldrd	r3, [r3]
 925 07d2 07F52862 		add	r2, r7, #2688
 926 07d6 C2E90034 		strd	r3, [r2]
 121:shake.c       **** 		tt2 ^= tt3;
 927              		.loc 1 121 7 discriminator 3
 928 07da 07F52763 		add	r3, r7, #2672
 929 07de D3E90001 		ldrd	r0, [r3]
 930 07e2 07F66823 		addw	r3, r7, #2664
 931 07e6 D3E90023 		ldrd	r2, [r3]
 932 07ea 80EA0204 		eor	r4, r0, r2
 933 07ee C7F82845 		str	r4, [r7, #1320]
 934 07f2 4B40     		eors	r3, r3, r1
 935 07f4 C7F82C35 		str	r3, [r7, #1324]
 936 07f8 07F5A563 		add	r3, r7, #1320
 937 07fc D3E90034 		ldrd	r3, [r3]
 938 0800 07F52762 		add	r2, r7, #2672
 939 0804 C2E90034 		strd	r3, [r2]
 122:shake.c       **** 		t3 = tt0 ^ tt2;
 940              		.loc 1 122 6 discriminator 3
 941 0808 07F52863 		add	r3, r7, #2688
 942 080c D3E90001 		ldrd	r0, [r3]
 943 0810 07F52763 		add	r3, r7, #2672
 944 0814 D3E90023 		ldrd	r2, [r3]
 945 0818 80EA0204 		eor	r4, r0, r2
 946 081c C7F82045 		str	r4, [r7, #1312]
 947 0820 4B40     		eors	r3, r3, r1
 948 0822 C7F82435 		str	r3, [r7, #1316]
 949 0826 07F5A463 		add	r3, r7, #1312
 950 082a D3E90034 		ldrd	r3, [r3]
 951 082e 07F64822 		addw	r2, r7, #2632
 952 0832 C2E90034 		strd	r3, [r2]
 123:shake.c       **** 
 124:shake.c       **** 		tt0 = A[ 0] ^ A[ 5];
 953              		.loc 1 124 10 discriminator 3
 954 0836 D7F8FC39 		ldr	r3, [r7, #2556]
 955 083a D3E90001 		ldrd	r0, [r3]
 956              		.loc 1 124 18 discriminator 3
 957 083e D7F8FC39 		ldr	r3, [r7, #2556]
 958 0842 2833     		adds	r3, r3, #40
 959 0844 D3E90023 		ldrd	r2, [r3]
 960              		.loc 1 124 7 discriminator 3
 961 0848 80EA0204 		eor	r4, r0, r2
 962 084c C7F81845 		str	r4, [r7, #1304]
 963 0850 4B40     		eors	r3, r3, r1
 964 0852 C7F81C35 		str	r3, [r7, #1308]
 965 0856 07F5A363 		add	r3, r7, #1304
 966 085a D3E90034 		ldrd	r3, [r3]
 967 085e 07F52862 		add	r2, r7, #2688
 968 0862 C2E90034 		strd	r3, [r2]
 125:shake.c       **** 		tt1 = A[10] ^ A[15];
 969              		.loc 1 125 10 discriminator 3
 970 0866 D7F8FC39 		ldr	r3, [r7, #2556]
 971 086a 5033     		adds	r3, r3, #80
 972 086c D3E90001 		ldrd	r0, [r3]
 973              		.loc 1 125 18 discriminator 3
 974 0870 D7F8FC39 		ldr	r3, [r7, #2556]
 975 0874 7833     		adds	r3, r3, #120
 976 0876 D3E90023 		ldrd	r2, [r3]
 977              		.loc 1 125 7 discriminator 3
 978 087a 80EA0204 		eor	r4, r0, r2
 979 087e C7F81045 		str	r4, [r7, #1296]
 980 0882 4B40     		eors	r3, r3, r1
 981 0884 C7F81435 		str	r3, [r7, #1300]
 982 0888 07F5A263 		add	r3, r7, #1296
 983 088c D3E90034 		ldrd	r3, [r3]
 984 0890 07F67822 		addw	r2, r7, #2680
 985 0894 C2E90034 		strd	r3, [r2]
 126:shake.c       **** 		tt0 ^= A[20] ^ tt1;
 986              		.loc 1 126 11 discriminator 3
 987 0898 D7F8FC39 		ldr	r3, [r7, #2556]
 988 089c A033     		adds	r3, r3, #160
 989 089e D3E90001 		ldrd	r0, [r3]
 990              		.loc 1 126 16 discriminator 3
 991 08a2 07F67823 		addw	r3, r7, #2680
 992 08a6 D3E90023 		ldrd	r2, [r3]
 993 08aa 80EA0204 		eor	r4, r0, r2
 994 08ae C7F8B849 		str	r4, [r7, #2488]
 995 08b2 4B40     		eors	r3, r3, r1
 996 08b4 C7F8BC39 		str	r3, [r7, #2492]
 997              		.loc 1 126 7 discriminator 3
 998 08b8 07F52863 		add	r3, r7, #2688
 999 08bc D3E90023 		ldrd	r2, [r3]
 1000 08c0 07F6B811 		addw	r1, r7, #2488
 1001 08c4 D1E90001 		ldrd	r0, [r1]
 1002 08c8 0446     		mov	r4, r0
 1003 08ca 5440     		eors	r4, r4, r2
 1004 08cc C7F80845 		str	r4, [r7, #1288]
 1005 08d0 4B40     		eors	r3, r3, r1
 1006 08d2 C7F80C35 		str	r3, [r7, #1292]
 1007 08d6 07F5A163 		add	r3, r7, #1288
 1008 08da D3E90034 		ldrd	r3, [r3]
 1009 08de 07F52862 		add	r2, r7, #2688
 1010 08e2 C2E90034 		strd	r3, [r2]
 127:shake.c       **** 		tt0 = (tt0 << 1) | (tt0 >> 63);
 1011              		.loc 1 127 7 discriminator 3
 1012 08e6 D7F8803A 		ldr	r3, [r7, #2688]
 1013 08ea DA0F     		lsrs	r2, r3, #31
 1014 08ec D7F8843A 		ldr	r3, [r7, #2692]
 1015 08f0 5B00     		lsls	r3, r3, #1
 1016 08f2 1343     		orrs	r3, r3, r2
 1017 08f4 C7F80435 		str	r3, [r7, #1284]
 1018 08f8 D7F8843A 		ldr	r3, [r7, #2692]
 1019 08fc DA0F     		lsrs	r2, r3, #31
 1020 08fe D7F8803A 		ldr	r3, [r7, #2688]
 1021 0902 5B00     		lsls	r3, r3, #1
 1022 0904 1343     		orrs	r3, r3, r2
 1023 0906 C7F80035 		str	r3, [r7, #1280]
 1024 090a 07F5A063 		add	r3, r7, #1280
 1025 090e D3E90034 		ldrd	r3, [r3]
 1026 0912 07F52862 		add	r2, r7, #2688
 1027 0916 C2E90034 		strd	r3, [r2]
 128:shake.c       **** 		tt2 = A[ 3] ^ A[ 8];
 1028              		.loc 1 128 10 discriminator 3
 1029 091a D7F8FC39 		ldr	r3, [r7, #2556]
 1030 091e 1833     		adds	r3, r3, #24
 1031 0920 D3E90001 		ldrd	r0, [r3]
 1032              		.loc 1 128 18 discriminator 3
 1033 0924 D7F8FC39 		ldr	r3, [r7, #2556]
 1034 0928 4033     		adds	r3, r3, #64
 1035 092a D3E90023 		ldrd	r2, [r3]
 1036              		.loc 1 128 7 discriminator 3
 1037 092e 80EA0204 		eor	r4, r0, r2
 1038 0932 C7F8F844 		str	r4, [r7, #1272]
 1039 0936 4B40     		eors	r3, r3, r1
 1040 0938 C7F8FC34 		str	r3, [r7, #1276]
 1041 093c 07F59F63 		add	r3, r7, #1272
 1042 0940 D3E90034 		ldrd	r3, [r3]
 1043 0944 07F52762 		add	r2, r7, #2672
 1044 0948 C2E90034 		strd	r3, [r2]
 129:shake.c       **** 		tt3 = A[13] ^ A[18];
 1045              		.loc 1 129 10 discriminator 3
 1046 094c D7F8FC39 		ldr	r3, [r7, #2556]
 1047 0950 6833     		adds	r3, r3, #104
 1048 0952 D3E90001 		ldrd	r0, [r3]
 1049              		.loc 1 129 18 discriminator 3
 1050 0956 D7F8FC39 		ldr	r3, [r7, #2556]
 1051 095a 9033     		adds	r3, r3, #144
 1052 095c D3E90023 		ldrd	r2, [r3]
 1053              		.loc 1 129 7 discriminator 3
 1054 0960 80EA0204 		eor	r4, r0, r2
 1055 0964 C7F8F044 		str	r4, [r7, #1264]
 1056 0968 4B40     		eors	r3, r3, r1
 1057 096a C7F8F434 		str	r3, [r7, #1268]
 1058 096e 07F59E63 		add	r3, r7, #1264
 1059 0972 D3E90034 		ldrd	r3, [r3]
 1060 0976 07F66822 		addw	r2, r7, #2664
 1061 097a C2E90034 		strd	r3, [r2]
 130:shake.c       **** 		tt0 ^= A[23];
 1062              		.loc 1 130 11 discriminator 3
 1063 097e D7F8FC39 		ldr	r3, [r7, #2556]
 1064 0982 B833     		adds	r3, r3, #184
 1065 0984 D3E90001 		ldrd	r0, [r3]
 1066              		.loc 1 130 7 discriminator 3
 1067 0988 07F52863 		add	r3, r7, #2688
 1068 098c D3E90023 		ldrd	r2, [r3]
 1069 0990 82EA0004 		eor	r4, r2, r0
 1070 0994 C7F8E844 		str	r4, [r7, #1256]
 1071 0998 4B40     		eors	r3, r3, r1
 1072 099a C7F8EC34 		str	r3, [r7, #1260]
 1073 099e 07F59D63 		add	r3, r7, #1256
 1074 09a2 D3E90034 		ldrd	r3, [r3]
 1075 09a6 07F52862 		add	r2, r7, #2688
 1076 09aa C2E90034 		strd	r3, [r2]
 131:shake.c       **** 		tt2 ^= tt3;
 1077              		.loc 1 131 7 discriminator 3
 1078 09ae 07F52763 		add	r3, r7, #2672
 1079 09b2 D3E90001 		ldrd	r0, [r3]
 1080 09b6 07F66823 		addw	r3, r7, #2664
 1081 09ba D3E90023 		ldrd	r2, [r3]
 1082 09be 80EA0204 		eor	r4, r0, r2
 1083 09c2 C7F8E044 		str	r4, [r7, #1248]
 1084 09c6 4B40     		eors	r3, r3, r1
 1085 09c8 C7F8E434 		str	r3, [r7, #1252]
 1086 09cc 07F59C63 		add	r3, r7, #1248
 1087 09d0 D3E90034 		ldrd	r3, [r3]
 1088 09d4 07F52762 		add	r2, r7, #2672
 1089 09d8 C2E90034 		strd	r3, [r2]
 132:shake.c       **** 		t4 = tt0 ^ tt2;
 1090              		.loc 1 132 6 discriminator 3
 1091 09dc 07F52863 		add	r3, r7, #2688
 1092 09e0 D3E90001 		ldrd	r0, [r3]
 1093 09e4 07F52763 		add	r3, r7, #2672
 1094 09e8 D3E90023 		ldrd	r2, [r3]
 1095 09ec 80EA0204 		eor	r4, r0, r2
 1096 09f0 C7F8D844 		str	r4, [r7, #1240]
 1097 09f4 4B40     		eors	r3, r3, r1
 1098 09f6 C7F8DC34 		str	r3, [r7, #1244]
 1099 09fa 07F59B63 		add	r3, r7, #1240
 1100 09fe D3E90034 		ldrd	r3, [r3]
 1101 0a02 07F52462 		add	r2, r7, #2624
 1102 0a06 C2E90034 		strd	r3, [r2]
 133:shake.c       **** 
 134:shake.c       **** 		A[ 0] = A[ 0] ^ t0;
 1103              		.loc 1 134 12 discriminator 3
 1104 0a0a D7F8FC39 		ldr	r3, [r7, #2556]
 1105 0a0e D3E90001 		ldrd	r0, [r3]
 1106              		.loc 1 134 17 discriminator 3
 1107 0a12 07F52663 		add	r3, r7, #2656
 1108 0a16 D3E90023 		ldrd	r2, [r3]
 1109 0a1a 80EA0204 		eor	r4, r0, r2
 1110 0a1e C7F8B049 		str	r4, [r7, #2480]
 1111 0a22 4B40     		eors	r3, r3, r1
 1112 0a24 C7F8B439 		str	r3, [r7, #2484]
 1113              		.loc 1 134 9 discriminator 3
 1114 0a28 D7F8FC39 		ldr	r3, [r7, #2556]
 1115 0a2c 07F51B62 		add	r2, r7, #2480
 1116 0a30 D2E90012 		ldrd	r1, [r2]
 1117 0a34 C3E90012 		strd	r1, [r3]
 135:shake.c       **** 		A[ 5] = A[ 5] ^ t0;
 1118              		.loc 1 135 12 discriminator 3
 1119 0a38 D7F8FC39 		ldr	r3, [r7, #2556]
 1120 0a3c 2833     		adds	r3, r3, #40
 1121 0a3e D3E90001 		ldrd	r0, [r3]
 1122              		.loc 1 135 4 discriminator 3
 1123 0a42 D7F8FC39 		ldr	r3, [r7, #2556]
 1124 0a46 03F12804 		add	r4, r3, #40
 1125              		.loc 1 135 17 discriminator 3
 1126 0a4a 07F52663 		add	r3, r7, #2656
 1127 0a4e D3E90023 		ldrd	r2, [r3]
 1128 0a52 80EA0205 		eor	r5, r0, r2
 1129 0a56 C7F8A859 		str	r5, [r7, #2472]
 1130 0a5a 4B40     		eors	r3, r3, r1
 1131 0a5c C7F8AC39 		str	r3, [r7, #2476]
 1132              		.loc 1 135 9 discriminator 3
 1133 0a60 07F6A813 		addw	r3, r7, #2472
 1134 0a64 D3E90023 		ldrd	r2, [r3]
 1135 0a68 C4E90023 		strd	r2, [r4]
 136:shake.c       **** 		A[10] = A[10] ^ t0;
 1136              		.loc 1 136 12 discriminator 3
 1137 0a6c D7F8FC39 		ldr	r3, [r7, #2556]
 1138 0a70 5033     		adds	r3, r3, #80
 1139 0a72 D3E90001 		ldrd	r0, [r3]
 1140              		.loc 1 136 4 discriminator 3
 1141 0a76 D7F8FC39 		ldr	r3, [r7, #2556]
 1142 0a7a 03F15004 		add	r4, r3, #80
 1143              		.loc 1 136 17 discriminator 3
 1144 0a7e 07F52663 		add	r3, r7, #2656
 1145 0a82 D3E90023 		ldrd	r2, [r3]
 1146 0a86 80EA0205 		eor	r5, r0, r2
 1147 0a8a C7F8A059 		str	r5, [r7, #2464]
 1148 0a8e 4B40     		eors	r3, r3, r1
 1149 0a90 C7F8A439 		str	r3, [r7, #2468]
 1150              		.loc 1 136 9 discriminator 3
 1151 0a94 07F51A63 		add	r3, r7, #2464
 1152 0a98 D3E90023 		ldrd	r2, [r3]
 1153 0a9c C4E90023 		strd	r2, [r4]
 137:shake.c       **** 		A[15] = A[15] ^ t0;
 1154              		.loc 1 137 12 discriminator 3
 1155 0aa0 D7F8FC39 		ldr	r3, [r7, #2556]
 1156 0aa4 7833     		adds	r3, r3, #120
 1157 0aa6 D3E90001 		ldrd	r0, [r3]
 1158              		.loc 1 137 4 discriminator 3
 1159 0aaa D7F8FC39 		ldr	r3, [r7, #2556]
 1160 0aae 03F17804 		add	r4, r3, #120
 1161              		.loc 1 137 17 discriminator 3
 1162 0ab2 07F52663 		add	r3, r7, #2656
 1163 0ab6 D3E90023 		ldrd	r2, [r3]
 1164 0aba 80EA0205 		eor	r5, r0, r2
 1165 0abe C7F89859 		str	r5, [r7, #2456]
 1166 0ac2 4B40     		eors	r3, r3, r1
 1167 0ac4 C7F89C39 		str	r3, [r7, #2460]
 1168              		.loc 1 137 9 discriminator 3
 1169 0ac8 07F69813 		addw	r3, r7, #2456
 1170 0acc D3E90023 		ldrd	r2, [r3]
 1171 0ad0 C4E90023 		strd	r2, [r4]
 138:shake.c       **** 		A[20] = A[20] ^ t0;
 1172              		.loc 1 138 12 discriminator 3
 1173 0ad4 D7F8FC39 		ldr	r3, [r7, #2556]
 1174 0ad8 A033     		adds	r3, r3, #160
 1175 0ada D3E90001 		ldrd	r0, [r3]
 1176              		.loc 1 138 4 discriminator 3
 1177 0ade D7F8FC39 		ldr	r3, [r7, #2556]
 1178 0ae2 03F1A004 		add	r4, r3, #160
 1179              		.loc 1 138 17 discriminator 3
 1180 0ae6 07F52663 		add	r3, r7, #2656
 1181 0aea D3E90023 		ldrd	r2, [r3]
 1182 0aee 80EA0205 		eor	r5, r0, r2
 1183 0af2 C7F89059 		str	r5, [r7, #2448]
 1184 0af6 4B40     		eors	r3, r3, r1
 1185 0af8 C7F89439 		str	r3, [r7, #2452]
 1186              		.loc 1 138 9 discriminator 3
 1187 0afc 07F51963 		add	r3, r7, #2448
 1188 0b00 D3E90023 		ldrd	r2, [r3]
 1189 0b04 C4E90023 		strd	r2, [r4]
 139:shake.c       **** 		A[ 1] = A[ 1] ^ t1;
 1190              		.loc 1 139 12 discriminator 3
 1191 0b08 D7F8FC39 		ldr	r3, [r7, #2556]
 1192 0b0c 0833     		adds	r3, r3, #8
 1193 0b0e D3E90001 		ldrd	r0, [r3]
 1194              		.loc 1 139 4 discriminator 3
 1195 0b12 D7F8FC39 		ldr	r3, [r7, #2556]
 1196 0b16 03F10804 		add	r4, r3, #8
 1197              		.loc 1 139 17 discriminator 3
 1198 0b1a 07F65823 		addw	r3, r7, #2648
 1199 0b1e D3E90023 		ldrd	r2, [r3]
 1200 0b22 80EA0205 		eor	r5, r0, r2
 1201 0b26 C7F88859 		str	r5, [r7, #2440]
 1202 0b2a 4B40     		eors	r3, r3, r1
 1203 0b2c C7F88C39 		str	r3, [r7, #2444]
 1204              		.loc 1 139 9 discriminator 3
 1205 0b30 07F68813 		addw	r3, r7, #2440
 1206 0b34 D3E90023 		ldrd	r2, [r3]
 1207 0b38 C4E90023 		strd	r2, [r4]
 140:shake.c       **** 		A[ 6] = A[ 6] ^ t1;
 1208              		.loc 1 140 12 discriminator 3
 1209 0b3c D7F8FC39 		ldr	r3, [r7, #2556]
 1210 0b40 3033     		adds	r3, r3, #48
 1211 0b42 D3E90001 		ldrd	r0, [r3]
 1212              		.loc 1 140 4 discriminator 3
 1213 0b46 D7F8FC39 		ldr	r3, [r7, #2556]
 1214 0b4a 03F13004 		add	r4, r3, #48
 1215              		.loc 1 140 17 discriminator 3
 1216 0b4e 07F65823 		addw	r3, r7, #2648
 1217 0b52 D3E90023 		ldrd	r2, [r3]
 1218 0b56 80EA0205 		eor	r5, r0, r2
 1219 0b5a C7F88059 		str	r5, [r7, #2432]
 1220 0b5e 4B40     		eors	r3, r3, r1
 1221 0b60 C7F88439 		str	r3, [r7, #2436]
 1222              		.loc 1 140 9 discriminator 3
 1223 0b64 07F51863 		add	r3, r7, #2432
 1224 0b68 D3E90023 		ldrd	r2, [r3]
 1225 0b6c C4E90023 		strd	r2, [r4]
 141:shake.c       **** 		A[11] = A[11] ^ t1;
 1226              		.loc 1 141 12 discriminator 3
 1227 0b70 D7F8FC39 		ldr	r3, [r7, #2556]
 1228 0b74 5833     		adds	r3, r3, #88
 1229 0b76 D3E90001 		ldrd	r0, [r3]
 1230              		.loc 1 141 4 discriminator 3
 1231 0b7a D7F8FC39 		ldr	r3, [r7, #2556]
 1232 0b7e 03F15804 		add	r4, r3, #88
 1233              		.loc 1 141 17 discriminator 3
 1234 0b82 07F65823 		addw	r3, r7, #2648
 1235 0b86 D3E90023 		ldrd	r2, [r3]
 1236 0b8a 80EA0205 		eor	r5, r0, r2
 1237 0b8e C7F87859 		str	r5, [r7, #2424]
 1238 0b92 4B40     		eors	r3, r3, r1
 1239 0b94 C7F87C39 		str	r3, [r7, #2428]
 1240              		.loc 1 141 9 discriminator 3
 1241 0b98 07F67813 		addw	r3, r7, #2424
 1242 0b9c D3E90023 		ldrd	r2, [r3]
 1243 0ba0 C4E90023 		strd	r2, [r4]
 142:shake.c       **** 		A[16] = A[16] ^ t1;
 1244              		.loc 1 142 12 discriminator 3
 1245 0ba4 D7F8FC39 		ldr	r3, [r7, #2556]
 1246 0ba8 8033     		adds	r3, r3, #128
 1247 0baa D3E90001 		ldrd	r0, [r3]
 1248              		.loc 1 142 4 discriminator 3
 1249 0bae D7F8FC39 		ldr	r3, [r7, #2556]
 1250 0bb2 03F18004 		add	r4, r3, #128
 1251              		.loc 1 142 17 discriminator 3
 1252 0bb6 07F65823 		addw	r3, r7, #2648
 1253 0bba D3E90023 		ldrd	r2, [r3]
 1254 0bbe 80EA0205 		eor	r5, r0, r2
 1255 0bc2 C7F87059 		str	r5, [r7, #2416]
 1256 0bc6 4B40     		eors	r3, r3, r1
 1257 0bc8 C7F87439 		str	r3, [r7, #2420]
 1258              		.loc 1 142 9 discriminator 3
 1259 0bcc 07F51763 		add	r3, r7, #2416
 1260 0bd0 D3E90023 		ldrd	r2, [r3]
 1261 0bd4 C4E90023 		strd	r2, [r4]
 143:shake.c       **** 		A[21] = A[21] ^ t1;
 1262              		.loc 1 143 12 discriminator 3
 1263 0bd8 D7F8FC39 		ldr	r3, [r7, #2556]
 1264 0bdc A833     		adds	r3, r3, #168
 1265 0bde D3E90001 		ldrd	r0, [r3]
 1266              		.loc 1 143 4 discriminator 3
 1267 0be2 D7F8FC39 		ldr	r3, [r7, #2556]
 1268 0be6 03F1A804 		add	r4, r3, #168
 1269              		.loc 1 143 17 discriminator 3
 1270 0bea 07F65823 		addw	r3, r7, #2648
 1271 0bee D3E90023 		ldrd	r2, [r3]
 1272 0bf2 80EA0205 		eor	r5, r0, r2
 1273 0bf6 C7F86859 		str	r5, [r7, #2408]
 1274 0bfa 4B40     		eors	r3, r3, r1
 1275 0bfc C7F86C39 		str	r3, [r7, #2412]
 1276              		.loc 1 143 9 discriminator 3
 1277 0c00 07F66813 		addw	r3, r7, #2408
 1278 0c04 D3E90023 		ldrd	r2, [r3]
 1279 0c08 C4E90023 		strd	r2, [r4]
 144:shake.c       **** 		A[ 2] = A[ 2] ^ t2;
 1280              		.loc 1 144 12 discriminator 3
 1281 0c0c D7F8FC39 		ldr	r3, [r7, #2556]
 1282 0c10 1033     		adds	r3, r3, #16
 1283 0c12 D3E90001 		ldrd	r0, [r3]
 1284              		.loc 1 144 4 discriminator 3
 1285 0c16 D7F8FC39 		ldr	r3, [r7, #2556]
 1286 0c1a 03F11004 		add	r4, r3, #16
 1287              		.loc 1 144 17 discriminator 3
 1288 0c1e 07F52563 		add	r3, r7, #2640
 1289 0c22 D3E90023 		ldrd	r2, [r3]
 1290 0c26 80EA0205 		eor	r5, r0, r2
 1291 0c2a C7F86059 		str	r5, [r7, #2400]
 1292 0c2e 4B40     		eors	r3, r3, r1
 1293 0c30 C7F86439 		str	r3, [r7, #2404]
 1294              		.loc 1 144 9 discriminator 3
 1295 0c34 07F51663 		add	r3, r7, #2400
 1296 0c38 D3E90023 		ldrd	r2, [r3]
 1297 0c3c C4E90023 		strd	r2, [r4]
 145:shake.c       **** 		A[ 7] = A[ 7] ^ t2;
 1298              		.loc 1 145 12 discriminator 3
 1299 0c40 D7F8FC39 		ldr	r3, [r7, #2556]
 1300 0c44 3833     		adds	r3, r3, #56
 1301 0c46 D3E90001 		ldrd	r0, [r3]
 1302              		.loc 1 145 4 discriminator 3
 1303 0c4a D7F8FC39 		ldr	r3, [r7, #2556]
 1304 0c4e 03F13804 		add	r4, r3, #56
 1305              		.loc 1 145 17 discriminator 3
 1306 0c52 07F52563 		add	r3, r7, #2640
 1307 0c56 D3E90023 		ldrd	r2, [r3]
 1308 0c5a 80EA0205 		eor	r5, r0, r2
 1309 0c5e C7F85859 		str	r5, [r7, #2392]
 1310 0c62 4B40     		eors	r3, r3, r1
 1311 0c64 C7F85C39 		str	r3, [r7, #2396]
 1312              		.loc 1 145 9 discriminator 3
 1313 0c68 07F65813 		addw	r3, r7, #2392
 1314 0c6c D3E90023 		ldrd	r2, [r3]
 1315 0c70 C4E90023 		strd	r2, [r4]
 146:shake.c       **** 		A[12] = A[12] ^ t2;
 1316              		.loc 1 146 12 discriminator 3
 1317 0c74 D7F8FC39 		ldr	r3, [r7, #2556]
 1318 0c78 6033     		adds	r3, r3, #96
 1319 0c7a D3E90001 		ldrd	r0, [r3]
 1320              		.loc 1 146 4 discriminator 3
 1321 0c7e D7F8FC39 		ldr	r3, [r7, #2556]
 1322 0c82 03F16004 		add	r4, r3, #96
 1323              		.loc 1 146 17 discriminator 3
 1324 0c86 07F52563 		add	r3, r7, #2640
 1325 0c8a D3E90023 		ldrd	r2, [r3]
 1326 0c8e 80EA0205 		eor	r5, r0, r2
 1327 0c92 C7F85059 		str	r5, [r7, #2384]
 1328 0c96 4B40     		eors	r3, r3, r1
 1329 0c98 C7F85439 		str	r3, [r7, #2388]
 1330              		.loc 1 146 9 discriminator 3
 1331 0c9c 07F51563 		add	r3, r7, #2384
 1332 0ca0 D3E90023 		ldrd	r2, [r3]
 1333 0ca4 C4E90023 		strd	r2, [r4]
 147:shake.c       **** 		A[17] = A[17] ^ t2;
 1334              		.loc 1 147 12 discriminator 3
 1335 0ca8 D7F8FC39 		ldr	r3, [r7, #2556]
 1336 0cac 8833     		adds	r3, r3, #136
 1337 0cae D3E90001 		ldrd	r0, [r3]
 1338              		.loc 1 147 4 discriminator 3
 1339 0cb2 D7F8FC39 		ldr	r3, [r7, #2556]
 1340 0cb6 03F18804 		add	r4, r3, #136
 1341              		.loc 1 147 17 discriminator 3
 1342 0cba 07F52563 		add	r3, r7, #2640
 1343 0cbe D3E90023 		ldrd	r2, [r3]
 1344 0cc2 80EA0205 		eor	r5, r0, r2
 1345 0cc6 C7F84859 		str	r5, [r7, #2376]
 1346 0cca 4B40     		eors	r3, r3, r1
 1347 0ccc C7F84C39 		str	r3, [r7, #2380]
 1348              		.loc 1 147 9 discriminator 3
 1349 0cd0 07F64813 		addw	r3, r7, #2376
 1350 0cd4 D3E90023 		ldrd	r2, [r3]
 1351 0cd8 C4E90023 		strd	r2, [r4]
 148:shake.c       **** 		A[22] = A[22] ^ t2;
 1352              		.loc 1 148 12 discriminator 3
 1353 0cdc D7F8FC39 		ldr	r3, [r7, #2556]
 1354 0ce0 B033     		adds	r3, r3, #176
 1355 0ce2 D3E90001 		ldrd	r0, [r3]
 1356              		.loc 1 148 4 discriminator 3
 1357 0ce6 D7F8FC39 		ldr	r3, [r7, #2556]
 1358 0cea 03F1B004 		add	r4, r3, #176
 1359              		.loc 1 148 17 discriminator 3
 1360 0cee 07F52563 		add	r3, r7, #2640
 1361 0cf2 D3E90023 		ldrd	r2, [r3]
 1362 0cf6 80EA0205 		eor	r5, r0, r2
 1363 0cfa C7F84059 		str	r5, [r7, #2368]
 1364 0cfe 4B40     		eors	r3, r3, r1
 1365 0d00 C7F84439 		str	r3, [r7, #2372]
 1366              		.loc 1 148 9 discriminator 3
 1367 0d04 07F51463 		add	r3, r7, #2368
 1368 0d08 D3E90023 		ldrd	r2, [r3]
 1369 0d0c C4E90023 		strd	r2, [r4]
 149:shake.c       **** 		A[ 3] = A[ 3] ^ t3;
 1370              		.loc 1 149 12 discriminator 3
 1371 0d10 D7F8FC39 		ldr	r3, [r7, #2556]
 1372 0d14 1833     		adds	r3, r3, #24
 1373 0d16 D3E90001 		ldrd	r0, [r3]
 1374              		.loc 1 149 4 discriminator 3
 1375 0d1a D7F8FC39 		ldr	r3, [r7, #2556]
 1376 0d1e 03F11804 		add	r4, r3, #24
 1377              		.loc 1 149 17 discriminator 3
 1378 0d22 07F64823 		addw	r3, r7, #2632
 1379 0d26 D3E90023 		ldrd	r2, [r3]
 1380 0d2a 80EA0205 		eor	r5, r0, r2
 1381 0d2e C7F83859 		str	r5, [r7, #2360]
 1382 0d32 4B40     		eors	r3, r3, r1
 1383 0d34 C7F83C39 		str	r3, [r7, #2364]
 1384              		.loc 1 149 9 discriminator 3
 1385 0d38 07F63813 		addw	r3, r7, #2360
 1386 0d3c D3E90023 		ldrd	r2, [r3]
 1387 0d40 C4E90023 		strd	r2, [r4]
 150:shake.c       **** 		A[ 8] = A[ 8] ^ t3;
 1388              		.loc 1 150 12 discriminator 3
 1389 0d44 D7F8FC39 		ldr	r3, [r7, #2556]
 1390 0d48 4033     		adds	r3, r3, #64
 1391 0d4a D3E90001 		ldrd	r0, [r3]
 1392              		.loc 1 150 4 discriminator 3
 1393 0d4e D7F8FC39 		ldr	r3, [r7, #2556]
 1394 0d52 03F14004 		add	r4, r3, #64
 1395              		.loc 1 150 17 discriminator 3
 1396 0d56 07F64823 		addw	r3, r7, #2632
 1397 0d5a D3E90023 		ldrd	r2, [r3]
 1398 0d5e 80EA0205 		eor	r5, r0, r2
 1399 0d62 C7F83059 		str	r5, [r7, #2352]
 1400 0d66 4B40     		eors	r3, r3, r1
 1401 0d68 C7F83439 		str	r3, [r7, #2356]
 1402              		.loc 1 150 9 discriminator 3
 1403 0d6c 07F51363 		add	r3, r7, #2352
 1404 0d70 D3E90023 		ldrd	r2, [r3]
 1405 0d74 C4E90023 		strd	r2, [r4]
 151:shake.c       **** 		A[13] = A[13] ^ t3;
 1406              		.loc 1 151 12 discriminator 3
 1407 0d78 D7F8FC39 		ldr	r3, [r7, #2556]
 1408 0d7c 6833     		adds	r3, r3, #104
 1409 0d7e D3E90001 		ldrd	r0, [r3]
 1410              		.loc 1 151 4 discriminator 3
 1411 0d82 D7F8FC39 		ldr	r3, [r7, #2556]
 1412 0d86 03F16804 		add	r4, r3, #104
 1413              		.loc 1 151 17 discriminator 3
 1414 0d8a 07F64823 		addw	r3, r7, #2632
 1415 0d8e D3E90023 		ldrd	r2, [r3]
 1416 0d92 80EA0205 		eor	r5, r0, r2
 1417 0d96 C7F82859 		str	r5, [r7, #2344]
 1418 0d9a 4B40     		eors	r3, r3, r1
 1419 0d9c C7F82C39 		str	r3, [r7, #2348]
 1420              		.loc 1 151 9 discriminator 3
 1421 0da0 07F62813 		addw	r3, r7, #2344
 1422 0da4 D3E90023 		ldrd	r2, [r3]
 1423 0da8 C4E90023 		strd	r2, [r4]
 152:shake.c       **** 		A[18] = A[18] ^ t3;
 1424              		.loc 1 152 12 discriminator 3
 1425 0dac D7F8FC39 		ldr	r3, [r7, #2556]
 1426 0db0 9033     		adds	r3, r3, #144
 1427 0db2 D3E90001 		ldrd	r0, [r3]
 1428              		.loc 1 152 4 discriminator 3
 1429 0db6 D7F8FC39 		ldr	r3, [r7, #2556]
 1430 0dba 03F19004 		add	r4, r3, #144
 1431              		.loc 1 152 17 discriminator 3
 1432 0dbe 07F64823 		addw	r3, r7, #2632
 1433 0dc2 D3E90023 		ldrd	r2, [r3]
 1434 0dc6 80EA0205 		eor	r5, r0, r2
 1435 0dca C7F82059 		str	r5, [r7, #2336]
 1436 0dce 4B40     		eors	r3, r3, r1
 1437 0dd0 C7F82439 		str	r3, [r7, #2340]
 1438              		.loc 1 152 9 discriminator 3
 1439 0dd4 07F51263 		add	r3, r7, #2336
 1440 0dd8 D3E90023 		ldrd	r2, [r3]
 1441 0ddc C4E90023 		strd	r2, [r4]
 153:shake.c       **** 		A[23] = A[23] ^ t3;
 1442              		.loc 1 153 12 discriminator 3
 1443 0de0 D7F8FC39 		ldr	r3, [r7, #2556]
 1444 0de4 B833     		adds	r3, r3, #184
 1445 0de6 D3E90001 		ldrd	r0, [r3]
 1446              		.loc 1 153 4 discriminator 3
 1447 0dea D7F8FC39 		ldr	r3, [r7, #2556]
 1448 0dee 03F1B804 		add	r4, r3, #184
 1449              		.loc 1 153 17 discriminator 3
 1450 0df2 07F64823 		addw	r3, r7, #2632
 1451 0df6 D3E90023 		ldrd	r2, [r3]
 1452 0dfa 80EA0205 		eor	r5, r0, r2
 1453 0dfe C7F81859 		str	r5, [r7, #2328]
 1454 0e02 4B40     		eors	r3, r3, r1
 1455 0e04 C7F81C39 		str	r3, [r7, #2332]
 1456              		.loc 1 153 9 discriminator 3
 1457 0e08 07F61813 		addw	r3, r7, #2328
 1458 0e0c D3E90023 		ldrd	r2, [r3]
 1459 0e10 C4E90023 		strd	r2, [r4]
 154:shake.c       **** 		A[ 4] = A[ 4] ^ t4;
 1460              		.loc 1 154 12 discriminator 3
 1461 0e14 D7F8FC39 		ldr	r3, [r7, #2556]
 1462 0e18 2033     		adds	r3, r3, #32
 1463 0e1a D3E90001 		ldrd	r0, [r3]
 1464              		.loc 1 154 4 discriminator 3
 1465 0e1e D7F8FC39 		ldr	r3, [r7, #2556]
 1466 0e22 03F12004 		add	r4, r3, #32
 1467              		.loc 1 154 17 discriminator 3
 1468 0e26 07F52463 		add	r3, r7, #2624
 1469 0e2a D3E90023 		ldrd	r2, [r3]
 1470 0e2e 80EA0205 		eor	r5, r0, r2
 1471 0e32 C7F81059 		str	r5, [r7, #2320]
 1472 0e36 4B40     		eors	r3, r3, r1
 1473 0e38 C7F81439 		str	r3, [r7, #2324]
 1474              		.loc 1 154 9 discriminator 3
 1475 0e3c 07F51163 		add	r3, r7, #2320
 1476 0e40 D3E90023 		ldrd	r2, [r3]
 1477 0e44 C4E90023 		strd	r2, [r4]
 155:shake.c       **** 		A[ 9] = A[ 9] ^ t4;
 1478              		.loc 1 155 12 discriminator 3
 1479 0e48 D7F8FC39 		ldr	r3, [r7, #2556]
 1480 0e4c 4833     		adds	r3, r3, #72
 1481 0e4e D3E90001 		ldrd	r0, [r3]
 1482              		.loc 1 155 4 discriminator 3
 1483 0e52 D7F8FC39 		ldr	r3, [r7, #2556]
 1484 0e56 03F14804 		add	r4, r3, #72
 1485              		.loc 1 155 17 discriminator 3
 1486 0e5a 07F52463 		add	r3, r7, #2624
 1487 0e5e D3E90023 		ldrd	r2, [r3]
 1488 0e62 80EA0205 		eor	r5, r0, r2
 1489 0e66 C7F80859 		str	r5, [r7, #2312]
 1490 0e6a 4B40     		eors	r3, r3, r1
 1491 0e6c C7F80C39 		str	r3, [r7, #2316]
 1492              		.loc 1 155 9 discriminator 3
 1493 0e70 07F60813 		addw	r3, r7, #2312
 1494 0e74 D3E90023 		ldrd	r2, [r3]
 1495 0e78 C4E90023 		strd	r2, [r4]
 156:shake.c       **** 		A[14] = A[14] ^ t4;
 1496              		.loc 1 156 12 discriminator 3
 1497 0e7c D7F8FC39 		ldr	r3, [r7, #2556]
 1498 0e80 7033     		adds	r3, r3, #112
 1499 0e82 D3E90001 		ldrd	r0, [r3]
 1500              		.loc 1 156 4 discriminator 3
 1501 0e86 D7F8FC39 		ldr	r3, [r7, #2556]
 1502 0e8a 03F17004 		add	r4, r3, #112
 1503              		.loc 1 156 17 discriminator 3
 1504 0e8e 07F52463 		add	r3, r7, #2624
 1505 0e92 D3E90023 		ldrd	r2, [r3]
 1506 0e96 80EA0205 		eor	r5, r0, r2
 1507 0e9a C7F80059 		str	r5, [r7, #2304]
 1508 0e9e 4B40     		eors	r3, r3, r1
 1509 0ea0 C7F80439 		str	r3, [r7, #2308]
 1510              		.loc 1 156 9 discriminator 3
 1511 0ea4 07F51063 		add	r3, r7, #2304
 1512 0ea8 D3E90023 		ldrd	r2, [r3]
 1513 0eac C4E90023 		strd	r2, [r4]
 157:shake.c       **** 		A[19] = A[19] ^ t4;
 1514              		.loc 1 157 12 discriminator 3
 1515 0eb0 D7F8FC39 		ldr	r3, [r7, #2556]
 1516 0eb4 9833     		adds	r3, r3, #152
 1517 0eb6 D3E90001 		ldrd	r0, [r3]
 1518              		.loc 1 157 4 discriminator 3
 1519 0eba D7F8FC39 		ldr	r3, [r7, #2556]
 1520 0ebe 03F19804 		add	r4, r3, #152
 1521              		.loc 1 157 17 discriminator 3
 1522 0ec2 07F52463 		add	r3, r7, #2624
 1523 0ec6 D3E90023 		ldrd	r2, [r3]
 1524 0eca 80EA0205 		eor	r5, r0, r2
 1525 0ece C7F8F858 		str	r5, [r7, #2296]
 1526 0ed2 4B40     		eors	r3, r3, r1
 1527 0ed4 C7F8FC38 		str	r3, [r7, #2300]
 1528              		.loc 1 157 9 discriminator 3
 1529 0ed8 07F6F803 		addw	r3, r7, #2296
 1530 0edc D3E90023 		ldrd	r2, [r3]
 1531 0ee0 C4E90023 		strd	r2, [r4]
 158:shake.c       **** 		A[24] = A[24] ^ t4;
 1532              		.loc 1 158 12 discriminator 3
 1533 0ee4 D7F8FC39 		ldr	r3, [r7, #2556]
 1534 0ee8 C033     		adds	r3, r3, #192
 1535 0eea D3E90001 		ldrd	r0, [r3]
 1536              		.loc 1 158 4 discriminator 3
 1537 0eee D7F8FC39 		ldr	r3, [r7, #2556]
 1538 0ef2 03F1C004 		add	r4, r3, #192
 1539              		.loc 1 158 17 discriminator 3
 1540 0ef6 07F52463 		add	r3, r7, #2624
 1541 0efa D3E90023 		ldrd	r2, [r3]
 1542 0efe 80EA0205 		eor	r5, r0, r2
 1543 0f02 C7F8F058 		str	r5, [r7, #2288]
 1544 0f06 4B40     		eors	r3, r3, r1
 1545 0f08 C7F8F438 		str	r3, [r7, #2292]
 1546              		.loc 1 158 9 discriminator 3
 1547 0f0c 07F50F63 		add	r3, r7, #2288
 1548 0f10 D3E90023 		ldrd	r2, [r3]
 1549 0f14 C4E90023 		strd	r2, [r4]
 159:shake.c       **** 		A[ 5] = (A[ 5] << 36) | (A[ 5] >> (64 - 36));
 1550              		.loc 1 159 13 discriminator 3
 1551 0f18 D7F8FC39 		ldr	r3, [r7, #2556]
 1552 0f1c 2833     		adds	r3, r3, #40
 1553 0f1e D3E90023 		ldrd	r2, [r3]
 1554              		.loc 1 159 4 discriminator 3
 1555 0f22 D7F8FC19 		ldr	r1, [r7, #2556]
 1556 0f26 01F12804 		add	r4, r1, #40
 1557              		.loc 1 159 25 discriminator 3
 1558 0f2a 1801     		lsls	r0, r3, #4
 1559 0f2c 110F     		lsrs	r1, r2, #28
 1560 0f2e 0143     		orrs	r1, r1, r0
 1561 0f30 C7F8E818 		str	r1, [r7, #2280]
 1562 0f34 1101     		lsls	r1, r2, #4
 1563 0f36 1B0F     		lsrs	r3, r3, #28
 1564 0f38 0B43     		orrs	r3, r3, r1
 1565 0f3a C7F8EC38 		str	r3, [r7, #2284]
 1566              		.loc 1 159 9 discriminator 3
 1567 0f3e 07F6E803 		addw	r3, r7, #2280
 1568 0f42 D3E90023 		ldrd	r2, [r3]
 1569 0f46 C4E90023 		strd	r2, [r4]
 160:shake.c       **** 		A[10] = (A[10] <<  3) | (A[10] >> (64 -  3));
 1570              		.loc 1 160 13 discriminator 3
 1571 0f4a D7F8FC39 		ldr	r3, [r7, #2556]
 1572 0f4e 5033     		adds	r3, r3, #80
 1573 0f50 D3E90023 		ldrd	r2, [r3]
 1574              		.loc 1 160 4 discriminator 3
 1575 0f54 D7F8FC19 		ldr	r1, [r7, #2556]
 1576 0f58 01F15004 		add	r4, r1, #80
 1577              		.loc 1 160 25 discriminator 3
 1578 0f5c 500F     		lsrs	r0, r2, #29
 1579 0f5e D900     		lsls	r1, r3, #3
 1580 0f60 0143     		orrs	r1, r1, r0
 1581 0f62 C7F8E418 		str	r1, [r7, #2276]
 1582 0f66 590F     		lsrs	r1, r3, #29
 1583 0f68 D300     		lsls	r3, r2, #3
 1584 0f6a 0B43     		orrs	r3, r3, r1
 1585 0f6c C7F8E038 		str	r3, [r7, #2272]
 1586              		.loc 1 160 9 discriminator 3
 1587 0f70 07F50E63 		add	r3, r7, #2272
 1588 0f74 D3E90023 		ldrd	r2, [r3]
 1589 0f78 C4E90023 		strd	r2, [r4]
 161:shake.c       **** 		A[15] = (A[15] << 41) | (A[15] >> (64 - 41));
 1590              		.loc 1 161 13 discriminator 3
 1591 0f7c D7F8FC39 		ldr	r3, [r7, #2556]
 1592 0f80 7833     		adds	r3, r3, #120
 1593 0f82 D3E90023 		ldrd	r2, [r3]
 1594              		.loc 1 161 4 discriminator 3
 1595 0f86 D7F8FC19 		ldr	r1, [r7, #2556]
 1596 0f8a 01F17804 		add	r4, r1, #120
 1597              		.loc 1 161 25 discriminator 3
 1598 0f8e 5802     		lsls	r0, r3, #9
 1599 0f90 D10D     		lsrs	r1, r2, #23
 1600 0f92 0143     		orrs	r1, r1, r0
 1601 0f94 C7F8D818 		str	r1, [r7, #2264]
 1602 0f98 5102     		lsls	r1, r2, #9
 1603 0f9a DB0D     		lsrs	r3, r3, #23
 1604 0f9c 0B43     		orrs	r3, r3, r1
 1605 0f9e C7F8DC38 		str	r3, [r7, #2268]
 1606              		.loc 1 161 9 discriminator 3
 1607 0fa2 07F6D803 		addw	r3, r7, #2264
 1608 0fa6 D3E90023 		ldrd	r2, [r3]
 1609 0faa C4E90023 		strd	r2, [r4]
 162:shake.c       **** 		A[20] = (A[20] << 18) | (A[20] >> (64 - 18));
 1610              		.loc 1 162 13 discriminator 3
 1611 0fae D7F8FC39 		ldr	r3, [r7, #2556]
 1612 0fb2 A033     		adds	r3, r3, #160
 1613 0fb4 D3E90023 		ldrd	r2, [r3]
 1614              		.loc 1 162 4 discriminator 3
 1615 0fb8 D7F8FC19 		ldr	r1, [r7, #2556]
 1616 0fbc 01F1A004 		add	r4, r1, #160
 1617              		.loc 1 162 25 discriminator 3
 1618 0fc0 900B     		lsrs	r0, r2, #14
 1619 0fc2 9904     		lsls	r1, r3, #18
 1620 0fc4 0143     		orrs	r1, r1, r0
 1621 0fc6 C7F8D418 		str	r1, [r7, #2260]
 1622 0fca 990B     		lsrs	r1, r3, #14
 1623 0fcc 9304     		lsls	r3, r2, #18
 1624 0fce 0B43     		orrs	r3, r3, r1
 1625 0fd0 C7F8D038 		str	r3, [r7, #2256]
 1626              		.loc 1 162 9 discriminator 3
 1627 0fd4 07F50D63 		add	r3, r7, #2256
 1628 0fd8 D3E90023 		ldrd	r2, [r3]
 1629 0fdc C4E90023 		strd	r2, [r4]
 163:shake.c       **** 		A[ 1] = (A[ 1] <<  1) | (A[ 1] >> (64 -  1));
 1630              		.loc 1 163 13 discriminator 3
 1631 0fe0 D7F8FC39 		ldr	r3, [r7, #2556]
 1632 0fe4 0833     		adds	r3, r3, #8
 1633 0fe6 D3E90023 		ldrd	r2, [r3]
 1634              		.loc 1 163 4 discriminator 3
 1635 0fea D7F8FC19 		ldr	r1, [r7, #2556]
 1636 0fee 01F10804 		add	r4, r1, #8
 1637              		.loc 1 163 25 discriminator 3
 1638 0ff2 D00F     		lsrs	r0, r2, #31
 1639 0ff4 5900     		lsls	r1, r3, #1
 1640 0ff6 0143     		orrs	r1, r1, r0
 1641 0ff8 C7F8CC18 		str	r1, [r7, #2252]
 1642 0ffc D90F     		lsrs	r1, r3, #31
 1643 0ffe 5300     		lsls	r3, r2, #1
 1644 1000 0B43     		orrs	r3, r3, r1
 1645 1002 C7F8C838 		str	r3, [r7, #2248]
 1646              		.loc 1 163 9 discriminator 3
 1647 1006 07F6C803 		addw	r3, r7, #2248
 1648 100a D3E90023 		ldrd	r2, [r3]
 1649 100e C4E90023 		strd	r2, [r4]
 164:shake.c       **** 		A[ 6] = (A[ 6] << 44) | (A[ 6] >> (64 - 44));
 1650              		.loc 1 164 13 discriminator 3
 1651 1012 D7F8FC39 		ldr	r3, [r7, #2556]
 1652 1016 3033     		adds	r3, r3, #48
 1653 1018 D3E90023 		ldrd	r2, [r3]
 1654              		.loc 1 164 4 discriminator 3
 1655 101c D7F8FC19 		ldr	r1, [r7, #2556]
 1656 1020 01F13004 		add	r4, r1, #48
 1657              		.loc 1 164 25 discriminator 3
 1658 1024 1803     		lsls	r0, r3, #12
 1659 1026 110D     		lsrs	r1, r2, #20
 1660 1028 0143     		orrs	r1, r1, r0
 1661 102a C7F8C018 		str	r1, [r7, #2240]
 1662 102e 1103     		lsls	r1, r2, #12
 1663 1030 1B0D     		lsrs	r3, r3, #20
 1664 1032 0B43     		orrs	r3, r3, r1
 1665 1034 C7F8C438 		str	r3, [r7, #2244]
 1666              		.loc 1 164 9 discriminator 3
 1667 1038 07F50C63 		add	r3, r7, #2240
 1668 103c D3E90023 		ldrd	r2, [r3]
 1669 1040 C4E90023 		strd	r2, [r4]
 165:shake.c       **** 		A[11] = (A[11] << 10) | (A[11] >> (64 - 10));
 1670              		.loc 1 165 13 discriminator 3
 1671 1044 D7F8FC39 		ldr	r3, [r7, #2556]
 1672 1048 5833     		adds	r3, r3, #88
 1673 104a D3E90023 		ldrd	r2, [r3]
 1674              		.loc 1 165 4 discriminator 3
 1675 104e D7F8FC19 		ldr	r1, [r7, #2556]
 1676 1052 01F15804 		add	r4, r1, #88
 1677              		.loc 1 165 25 discriminator 3
 1678 1056 900D     		lsrs	r0, r2, #22
 1679 1058 9902     		lsls	r1, r3, #10
 1680 105a 0143     		orrs	r1, r1, r0
 1681 105c C7F8BC18 		str	r1, [r7, #2236]
 1682 1060 990D     		lsrs	r1, r3, #22
 1683 1062 9302     		lsls	r3, r2, #10
 1684 1064 0B43     		orrs	r3, r3, r1
 1685 1066 C7F8B838 		str	r3, [r7, #2232]
 1686              		.loc 1 165 9 discriminator 3
 1687 106a 07F6B803 		addw	r3, r7, #2232
 1688 106e D3E90023 		ldrd	r2, [r3]
 1689 1072 C4E90023 		strd	r2, [r4]
 166:shake.c       **** 		A[16] = (A[16] << 45) | (A[16] >> (64 - 45));
 1690              		.loc 1 166 13 discriminator 3
 1691 1076 D7F8FC39 		ldr	r3, [r7, #2556]
 1692 107a 8033     		adds	r3, r3, #128
 1693 107c D3E90023 		ldrd	r2, [r3]
 1694              		.loc 1 166 4 discriminator 3
 1695 1080 D7F8FC19 		ldr	r1, [r7, #2556]
 1696 1084 01F18004 		add	r4, r1, #128
 1697              		.loc 1 166 25 discriminator 3
 1698 1088 5803     		lsls	r0, r3, #13
 1699 108a D10C     		lsrs	r1, r2, #19
 1700 108c 0143     		orrs	r1, r1, r0
 1701 108e C7F8B018 		str	r1, [r7, #2224]
 1702 1092 5103     		lsls	r1, r2, #13
 1703 1094 DB0C     		lsrs	r3, r3, #19
 1704 1096 0B43     		orrs	r3, r3, r1
 1705 1098 C7F8B438 		str	r3, [r7, #2228]
 1706              		.loc 1 166 9 discriminator 3
 1707 109c 07F50B63 		add	r3, r7, #2224
 1708 10a0 D3E90023 		ldrd	r2, [r3]
 1709 10a4 C4E90023 		strd	r2, [r4]
 167:shake.c       **** 		A[21] = (A[21] <<  2) | (A[21] >> (64 - 2));
 1710              		.loc 1 167 13 discriminator 3
 1711 10a8 D7F8FC39 		ldr	r3, [r7, #2556]
 1712 10ac A833     		adds	r3, r3, #168
 1713 10ae D3E90023 		ldrd	r2, [r3]
 1714              		.loc 1 167 4 discriminator 3
 1715 10b2 D7F8FC19 		ldr	r1, [r7, #2556]
 1716 10b6 01F1A804 		add	r4, r1, #168
 1717              		.loc 1 167 25 discriminator 3
 1718 10ba 900F     		lsrs	r0, r2, #30
 1719 10bc 9900     		lsls	r1, r3, #2
 1720 10be 0143     		orrs	r1, r1, r0
 1721 10c0 C7F8AC18 		str	r1, [r7, #2220]
 1722 10c4 990F     		lsrs	r1, r3, #30
 1723 10c6 9300     		lsls	r3, r2, #2
 1724 10c8 0B43     		orrs	r3, r3, r1
 1725 10ca C7F8A838 		str	r3, [r7, #2216]
 1726              		.loc 1 167 9 discriminator 3
 1727 10ce 07F6A803 		addw	r3, r7, #2216
 1728 10d2 D3E90023 		ldrd	r2, [r3]
 1729 10d6 C4E90023 		strd	r2, [r4]
 168:shake.c       **** 		A[ 2] = (A[ 2] << 62) | (A[ 2] >> (64 - 62));
 1730              		.loc 1 168 13 discriminator 3
 1731 10da D7F8FC39 		ldr	r3, [r7, #2556]
 1732 10de 1033     		adds	r3, r3, #16
 1733 10e0 D3E90023 		ldrd	r2, [r3]
 1734              		.loc 1 168 4 discriminator 3
 1735 10e4 D7F8FC19 		ldr	r1, [r7, #2556]
 1736 10e8 01F11004 		add	r4, r1, #16
 1737              		.loc 1 168 25 discriminator 3
 1738 10ec 9807     		lsls	r0, r3, #30
 1739 10ee 9108     		lsrs	r1, r2, #2
 1740 10f0 0143     		orrs	r1, r1, r0
 1741 10f2 C7F8A018 		str	r1, [r7, #2208]
 1742 10f6 9107     		lsls	r1, r2, #30
 1743 10f8 9B08     		lsrs	r3, r3, #2
 1744 10fa 0B43     		orrs	r3, r3, r1
 1745 10fc C7F8A438 		str	r3, [r7, #2212]
 1746              		.loc 1 168 9 discriminator 3
 1747 1100 07F50A63 		add	r3, r7, #2208
 1748 1104 D3E90023 		ldrd	r2, [r3]
 1749 1108 C4E90023 		strd	r2, [r4]
 169:shake.c       **** 		A[ 7] = (A[ 7] <<  6) | (A[ 7] >> (64 -  6));
 1750              		.loc 1 169 13 discriminator 3
 1751 110c D7F8FC39 		ldr	r3, [r7, #2556]
 1752 1110 3833     		adds	r3, r3, #56
 1753 1112 D3E90023 		ldrd	r2, [r3]
 1754              		.loc 1 169 4 discriminator 3
 1755 1116 D7F8FC19 		ldr	r1, [r7, #2556]
 1756 111a 01F13804 		add	r4, r1, #56
 1757              		.loc 1 169 25 discriminator 3
 1758 111e 900E     		lsrs	r0, r2, #26
 1759 1120 9901     		lsls	r1, r3, #6
 1760 1122 0143     		orrs	r1, r1, r0
 1761 1124 C7F89C18 		str	r1, [r7, #2204]
 1762 1128 990E     		lsrs	r1, r3, #26
 1763 112a 9301     		lsls	r3, r2, #6
 1764 112c 0B43     		orrs	r3, r3, r1
 1765 112e C7F89838 		str	r3, [r7, #2200]
 1766              		.loc 1 169 9 discriminator 3
 1767 1132 07F69803 		addw	r3, r7, #2200
 1768 1136 D3E90023 		ldrd	r2, [r3]
 1769 113a C4E90023 		strd	r2, [r4]
 170:shake.c       **** 		A[12] = (A[12] << 43) | (A[12] >> (64 - 43));
 1770              		.loc 1 170 13 discriminator 3
 1771 113e D7F8FC39 		ldr	r3, [r7, #2556]
 1772 1142 6033     		adds	r3, r3, #96
 1773 1144 D3E90023 		ldrd	r2, [r3]
 1774              		.loc 1 170 4 discriminator 3
 1775 1148 D7F8FC19 		ldr	r1, [r7, #2556]
 1776 114c 01F16004 		add	r4, r1, #96
 1777              		.loc 1 170 25 discriminator 3
 1778 1150 D802     		lsls	r0, r3, #11
 1779 1152 510D     		lsrs	r1, r2, #21
 1780 1154 0143     		orrs	r1, r1, r0
 1781 1156 C7F89018 		str	r1, [r7, #2192]
 1782 115a D102     		lsls	r1, r2, #11
 1783 115c 5B0D     		lsrs	r3, r3, #21
 1784 115e 0B43     		orrs	r3, r3, r1
 1785 1160 C7F89438 		str	r3, [r7, #2196]
 1786              		.loc 1 170 9 discriminator 3
 1787 1164 07F50963 		add	r3, r7, #2192
 1788 1168 D3E90023 		ldrd	r2, [r3]
 1789 116c C4E90023 		strd	r2, [r4]
 171:shake.c       **** 		A[17] = (A[17] << 15) | (A[17] >> (64 - 15));
 1790              		.loc 1 171 13 discriminator 3
 1791 1170 D7F8FC39 		ldr	r3, [r7, #2556]
 1792 1174 8833     		adds	r3, r3, #136
 1793 1176 D3E90023 		ldrd	r2, [r3]
 1794              		.loc 1 171 4 discriminator 3
 1795 117a D7F8FC19 		ldr	r1, [r7, #2556]
 1796 117e 01F18804 		add	r4, r1, #136
 1797              		.loc 1 171 25 discriminator 3
 1798 1182 500C     		lsrs	r0, r2, #17
 1799 1184 D903     		lsls	r1, r3, #15
 1800 1186 0143     		orrs	r1, r1, r0
 1801 1188 C7F88C18 		str	r1, [r7, #2188]
 1802 118c 590C     		lsrs	r1, r3, #17
 1803 118e D303     		lsls	r3, r2, #15
 1804 1190 0B43     		orrs	r3, r3, r1
 1805 1192 C7F88838 		str	r3, [r7, #2184]
 1806              		.loc 1 171 9 discriminator 3
 1807 1196 07F68803 		addw	r3, r7, #2184
 1808 119a D3E90023 		ldrd	r2, [r3]
 1809 119e C4E90023 		strd	r2, [r4]
 172:shake.c       **** 		A[22] = (A[22] << 61) | (A[22] >> (64 - 61));
 1810              		.loc 1 172 13 discriminator 3
 1811 11a2 D7F8FC39 		ldr	r3, [r7, #2556]
 1812 11a6 B033     		adds	r3, r3, #176
 1813 11a8 D3E90023 		ldrd	r2, [r3]
 1814              		.loc 1 172 4 discriminator 3
 1815 11ac D7F8FC19 		ldr	r1, [r7, #2556]
 1816 11b0 01F1B004 		add	r4, r1, #176
 1817              		.loc 1 172 25 discriminator 3
 1818 11b4 5807     		lsls	r0, r3, #29
 1819 11b6 D108     		lsrs	r1, r2, #3
 1820 11b8 0143     		orrs	r1, r1, r0
 1821 11ba C7F88018 		str	r1, [r7, #2176]
 1822 11be 5107     		lsls	r1, r2, #29
 1823 11c0 DB08     		lsrs	r3, r3, #3
 1824 11c2 0B43     		orrs	r3, r3, r1
 1825 11c4 C7F88438 		str	r3, [r7, #2180]
 1826              		.loc 1 172 9 discriminator 3
 1827 11c8 07F50863 		add	r3, r7, #2176
 1828 11cc D3E90023 		ldrd	r2, [r3]
 1829 11d0 C4E90023 		strd	r2, [r4]
 173:shake.c       **** 		A[ 3] = (A[ 3] << 28) | (A[ 3] >> (64 - 28));
 1830              		.loc 1 173 13 discriminator 3
 1831 11d4 D7F8FC39 		ldr	r3, [r7, #2556]
 1832 11d8 1833     		adds	r3, r3, #24
 1833 11da D3E90023 		ldrd	r2, [r3]
 1834              		.loc 1 173 4 discriminator 3
 1835 11de D7F8FC19 		ldr	r1, [r7, #2556]
 1836 11e2 01F11804 		add	r4, r1, #24
 1837              		.loc 1 173 25 discriminator 3
 1838 11e6 1009     		lsrs	r0, r2, #4
 1839 11e8 1907     		lsls	r1, r3, #28
 1840 11ea 0143     		orrs	r1, r1, r0
 1841 11ec C7F87C18 		str	r1, [r7, #2172]
 1842 11f0 1909     		lsrs	r1, r3, #4
 1843 11f2 1307     		lsls	r3, r2, #28
 1844 11f4 0B43     		orrs	r3, r3, r1
 1845 11f6 C7F87838 		str	r3, [r7, #2168]
 1846              		.loc 1 173 9 discriminator 3
 1847 11fa 07F67803 		addw	r3, r7, #2168
 1848 11fe D3E90023 		ldrd	r2, [r3]
 1849 1202 C4E90023 		strd	r2, [r4]
 174:shake.c       **** 		A[ 8] = (A[ 8] << 55) | (A[ 8] >> (64 - 55));
 1850              		.loc 1 174 13 discriminator 3
 1851 1206 D7F8FC39 		ldr	r3, [r7, #2556]
 1852 120a 4033     		adds	r3, r3, #64
 1853 120c D3E90023 		ldrd	r2, [r3]
 1854              		.loc 1 174 4 discriminator 3
 1855 1210 D7F8FC19 		ldr	r1, [r7, #2556]
 1856 1214 01F14004 		add	r4, r1, #64
 1857              		.loc 1 174 25 discriminator 3
 1858 1218 D805     		lsls	r0, r3, #23
 1859 121a 510A     		lsrs	r1, r2, #9
 1860 121c 0143     		orrs	r1, r1, r0
 1861 121e C7F87018 		str	r1, [r7, #2160]
 1862 1222 D105     		lsls	r1, r2, #23
 1863 1224 5B0A     		lsrs	r3, r3, #9
 1864 1226 0B43     		orrs	r3, r3, r1
 1865 1228 C7F87438 		str	r3, [r7, #2164]
 1866              		.loc 1 174 9 discriminator 3
 1867 122c 07F50763 		add	r3, r7, #2160
 1868 1230 D3E90023 		ldrd	r2, [r3]
 1869 1234 C4E90023 		strd	r2, [r4]
 175:shake.c       **** 		A[13] = (A[13] << 25) | (A[13] >> (64 - 25));
 1870              		.loc 1 175 13 discriminator 3
 1871 1238 D7F8FC39 		ldr	r3, [r7, #2556]
 1872 123c 6833     		adds	r3, r3, #104
 1873 123e D3E90023 		ldrd	r2, [r3]
 1874              		.loc 1 175 4 discriminator 3
 1875 1242 D7F8FC19 		ldr	r1, [r7, #2556]
 1876 1246 01F16804 		add	r4, r1, #104
 1877              		.loc 1 175 25 discriminator 3
 1878 124a D009     		lsrs	r0, r2, #7
 1879 124c 5906     		lsls	r1, r3, #25
 1880 124e 0143     		orrs	r1, r1, r0
 1881 1250 C7F86C18 		str	r1, [r7, #2156]
 1882 1254 D909     		lsrs	r1, r3, #7
 1883 1256 5306     		lsls	r3, r2, #25
 1884 1258 0B43     		orrs	r3, r3, r1
 1885 125a C7F86838 		str	r3, [r7, #2152]
 1886              		.loc 1 175 9 discriminator 3
 1887 125e 07F66803 		addw	r3, r7, #2152
 1888 1262 D3E90023 		ldrd	r2, [r3]
 1889 1266 C4E90023 		strd	r2, [r4]
 176:shake.c       **** 		A[18] = (A[18] << 21) | (A[18] >> (64 - 21));
 1890              		.loc 1 176 13 discriminator 3
 1891 126a D7F8FC39 		ldr	r3, [r7, #2556]
 1892 126e 9033     		adds	r3, r3, #144
 1893 1270 D3E90023 		ldrd	r2, [r3]
 1894              		.loc 1 176 4 discriminator 3
 1895 1274 D7F8FC19 		ldr	r1, [r7, #2556]
 1896 1278 01F19004 		add	r4, r1, #144
 1897              		.loc 1 176 25 discriminator 3
 1898 127c D00A     		lsrs	r0, r2, #11
 1899 127e 5905     		lsls	r1, r3, #21
 1900 1280 0143     		orrs	r1, r1, r0
 1901 1282 C7F86418 		str	r1, [r7, #2148]
 1902 1286 D90A     		lsrs	r1, r3, #11
 1903 1288 5305     		lsls	r3, r2, #21
 1904 128a 0B43     		orrs	r3, r3, r1
 1905 128c C7F86038 		str	r3, [r7, #2144]
 1906              		.loc 1 176 9 discriminator 3
 1907 1290 07F50663 		add	r3, r7, #2144
 1908 1294 D3E90023 		ldrd	r2, [r3]
 1909 1298 C4E90023 		strd	r2, [r4]
 177:shake.c       **** 		A[23] = (A[23] << 56) | (A[23] >> (64 - 56));
 1910              		.loc 1 177 13 discriminator 3
 1911 129c D7F8FC39 		ldr	r3, [r7, #2556]
 1912 12a0 B833     		adds	r3, r3, #184
 1913 12a2 D3E90023 		ldrd	r2, [r3]
 1914              		.loc 1 177 4 discriminator 3
 1915 12a6 D7F8FC19 		ldr	r1, [r7, #2556]
 1916 12aa 01F1B804 		add	r4, r1, #184
 1917              		.loc 1 177 25 discriminator 3
 1918 12ae 1806     		lsls	r0, r3, #24
 1919 12b0 110A     		lsrs	r1, r2, #8
 1920 12b2 0143     		orrs	r1, r1, r0
 1921 12b4 C7F85818 		str	r1, [r7, #2136]
 1922 12b8 1106     		lsls	r1, r2, #24
 1923 12ba 1B0A     		lsrs	r3, r3, #8
 1924 12bc 0B43     		orrs	r3, r3, r1
 1925 12be C7F85C38 		str	r3, [r7, #2140]
 1926              		.loc 1 177 9 discriminator 3
 1927 12c2 07F65803 		addw	r3, r7, #2136
 1928 12c6 D3E90023 		ldrd	r2, [r3]
 1929 12ca C4E90023 		strd	r2, [r4]
 178:shake.c       **** 		A[ 4] = (A[ 4] << 27) | (A[ 4] >> (64 - 27));
 1930              		.loc 1 178 13 discriminator 3
 1931 12ce D7F8FC39 		ldr	r3, [r7, #2556]
 1932 12d2 2033     		adds	r3, r3, #32
 1933 12d4 D3E90023 		ldrd	r2, [r3]
 1934              		.loc 1 178 4 discriminator 3
 1935 12d8 D7F8FC19 		ldr	r1, [r7, #2556]
 1936 12dc 01F12004 		add	r4, r1, #32
 1937              		.loc 1 178 25 discriminator 3
 1938 12e0 5009     		lsrs	r0, r2, #5
 1939 12e2 D906     		lsls	r1, r3, #27
 1940 12e4 0143     		orrs	r1, r1, r0
 1941 12e6 C7F85418 		str	r1, [r7, #2132]
 1942 12ea 5909     		lsrs	r1, r3, #5
 1943 12ec D306     		lsls	r3, r2, #27
 1944 12ee 0B43     		orrs	r3, r3, r1
 1945 12f0 C7F85038 		str	r3, [r7, #2128]
 1946              		.loc 1 178 9 discriminator 3
 1947 12f4 07F50563 		add	r3, r7, #2128
 1948 12f8 D3E90023 		ldrd	r2, [r3]
 1949 12fc C4E90023 		strd	r2, [r4]
 179:shake.c       **** 		A[ 9] = (A[ 9] << 20) | (A[ 9] >> (64 - 20));
 1950              		.loc 1 179 13 discriminator 3
 1951 1300 D7F8FC39 		ldr	r3, [r7, #2556]
 1952 1304 4833     		adds	r3, r3, #72
 1953 1306 D3E90023 		ldrd	r2, [r3]
 1954              		.loc 1 179 4 discriminator 3
 1955 130a D7F8FC19 		ldr	r1, [r7, #2556]
 1956 130e 01F14804 		add	r4, r1, #72
 1957              		.loc 1 179 25 discriminator 3
 1958 1312 100B     		lsrs	r0, r2, #12
 1959 1314 1905     		lsls	r1, r3, #20
 1960 1316 0143     		orrs	r1, r1, r0
 1961 1318 C7F84C18 		str	r1, [r7, #2124]
 1962 131c 190B     		lsrs	r1, r3, #12
 1963 131e 1305     		lsls	r3, r2, #20
 1964 1320 0B43     		orrs	r3, r3, r1
 1965 1322 C7F84838 		str	r3, [r7, #2120]
 1966              		.loc 1 179 9 discriminator 3
 1967 1326 07F64803 		addw	r3, r7, #2120
 1968 132a D3E90023 		ldrd	r2, [r3]
 1969 132e C4E90023 		strd	r2, [r4]
 180:shake.c       **** 		A[14] = (A[14] << 39) | (A[14] >> (64 - 39));
 1970              		.loc 1 180 13 discriminator 3
 1971 1332 D7F8FC39 		ldr	r3, [r7, #2556]
 1972 1336 7033     		adds	r3, r3, #112
 1973 1338 D3E90023 		ldrd	r2, [r3]
 1974              		.loc 1 180 4 discriminator 3
 1975 133c D7F8FC19 		ldr	r1, [r7, #2556]
 1976 1340 01F17004 		add	r4, r1, #112
 1977              		.loc 1 180 25 discriminator 3
 1978 1344 D801     		lsls	r0, r3, #7
 1979 1346 510E     		lsrs	r1, r2, #25
 1980 1348 0143     		orrs	r1, r1, r0
 1981 134a C7F84018 		str	r1, [r7, #2112]
 1982 134e D101     		lsls	r1, r2, #7
 1983 1350 5B0E     		lsrs	r3, r3, #25
 1984 1352 0B43     		orrs	r3, r3, r1
 1985 1354 C7F84438 		str	r3, [r7, #2116]
 1986              		.loc 1 180 9 discriminator 3
 1987 1358 07F50463 		add	r3, r7, #2112
 1988 135c D3E90023 		ldrd	r2, [r3]
 1989 1360 C4E90023 		strd	r2, [r4]
 181:shake.c       **** 		A[19] = (A[19] <<  8) | (A[19] >> (64 -  8));
 1990              		.loc 1 181 13 discriminator 3
 1991 1364 D7F8FC39 		ldr	r3, [r7, #2556]
 1992 1368 9833     		adds	r3, r3, #152
 1993 136a D3E90023 		ldrd	r2, [r3]
 1994              		.loc 1 181 4 discriminator 3
 1995 136e D7F8FC19 		ldr	r1, [r7, #2556]
 1996 1372 01F19804 		add	r4, r1, #152
 1997              		.loc 1 181 25 discriminator 3
 1998 1376 100E     		lsrs	r0, r2, #24
 1999 1378 1902     		lsls	r1, r3, #8
 2000 137a 0143     		orrs	r1, r1, r0
 2001 137c C7F83C18 		str	r1, [r7, #2108]
 2002 1380 190E     		lsrs	r1, r3, #24
 2003 1382 1302     		lsls	r3, r2, #8
 2004 1384 0B43     		orrs	r3, r3, r1
 2005 1386 C7F83838 		str	r3, [r7, #2104]
 2006              		.loc 1 181 9 discriminator 3
 2007 138a 07F63803 		addw	r3, r7, #2104
 2008 138e D3E90023 		ldrd	r2, [r3]
 2009 1392 C4E90023 		strd	r2, [r4]
 182:shake.c       **** 		A[24] = (A[24] << 14) | (A[24] >> (64 - 14));
 2010              		.loc 1 182 13 discriminator 3
 2011 1396 D7F8FC39 		ldr	r3, [r7, #2556]
 2012 139a C033     		adds	r3, r3, #192
 2013 139c D3E90023 		ldrd	r2, [r3]
 2014              		.loc 1 182 4 discriminator 3
 2015 13a0 D7F8FC19 		ldr	r1, [r7, #2556]
 2016 13a4 01F1C004 		add	r4, r1, #192
 2017              		.loc 1 182 25 discriminator 3
 2018 13a8 900C     		lsrs	r0, r2, #18
 2019 13aa 9903     		lsls	r1, r3, #14
 2020 13ac 0143     		orrs	r1, r1, r0
 2021 13ae C7F83418 		str	r1, [r7, #2100]
 2022 13b2 990C     		lsrs	r1, r3, #18
 2023 13b4 9303     		lsls	r3, r2, #14
 2024 13b6 0B43     		orrs	r3, r3, r1
 2025 13b8 C7F83038 		str	r3, [r7, #2096]
 2026              		.loc 1 182 9 discriminator 3
 2027 13bc 07F50363 		add	r3, r7, #2096
 2028 13c0 D3E90023 		ldrd	r2, [r3]
 2029 13c4 C4E90023 		strd	r2, [r4]
 183:shake.c       **** 
 184:shake.c       **** 		bnn = ~A[12];
 2030              		.loc 1 184 11 discriminator 3
 2031 13c8 D7F8FC39 		ldr	r3, [r7, #2556]
 2032 13cc 6033     		adds	r3, r3, #96
 2033 13ce D3E90023 		ldrd	r2, [r3]
 2034              		.loc 1 184 7 discriminator 3
 2035 13d2 D143     		mvns	r1, r2
 2036 13d4 C7F8D014 		str	r1, [r7, #1232]
 2037 13d8 DB43     		mvns	r3, r3
 2038 13da C7F8D434 		str	r3, [r7, #1236]
 2039 13de 07F59A63 		add	r3, r7, #1232
 2040 13e2 D3E90034 		ldrd	r3, [r3]
 2041 13e6 07F63822 		addw	r2, r7, #2616
 2042 13ea C2E90034 		strd	r3, [r2]
 185:shake.c       **** 		kt = A[ 6] | A[12];
 2043              		.loc 1 185 9 discriminator 3
 2044 13ee D7F8FC39 		ldr	r3, [r7, #2556]
 2045 13f2 3033     		adds	r3, r3, #48
 2046 13f4 D3E90001 		ldrd	r0, [r3]
 2047              		.loc 1 185 17 discriminator 3
 2048 13f8 D7F8FC39 		ldr	r3, [r7, #2556]
 2049 13fc 6033     		adds	r3, r3, #96
 2050 13fe D3E90023 		ldrd	r2, [r3]
 2051              		.loc 1 185 6 discriminator 3
 2052 1402 40EA0204 		orr	r4, r0, r2
 2053 1406 C7F8C844 		str	r4, [r7, #1224]
 2054 140a 0B43     		orrs	r3, r3, r1
 2055 140c C7F8CC34 		str	r3, [r7, #1228]
 2056 1410 07F59963 		add	r3, r7, #1224
 2057 1414 D3E90034 		ldrd	r3, [r3]
 2058 1418 07F52362 		add	r2, r7, #2608
 2059 141c C2E90034 		strd	r3, [r2]
 186:shake.c       **** 		c0 = A[ 0] ^ kt;
 2060              		.loc 1 186 9 discriminator 3
 2061 1420 D7F8FC39 		ldr	r3, [r7, #2556]
 2062 1424 D3E90001 		ldrd	r0, [r3]
 2063              		.loc 1 186 6 discriminator 3
 2064 1428 07F52363 		add	r3, r7, #2608
 2065 142c D3E90023 		ldrd	r2, [r3]
 2066 1430 82EA0004 		eor	r4, r2, r0
 2067 1434 C7F8C044 		str	r4, [r7, #1216]
 2068 1438 4B40     		eors	r3, r3, r1
 2069 143a C7F8C434 		str	r3, [r7, #1220]
 2070 143e 07F59863 		add	r3, r7, #1216
 2071 1442 D3E90034 		ldrd	r3, [r3]
 2072 1446 07F62822 		addw	r2, r7, #2600
 2073 144a C2E90034 		strd	r3, [r2]
 187:shake.c       **** 		kt = bnn | A[18];
 2074              		.loc 1 187 15 discriminator 3
 2075 144e D7F8FC39 		ldr	r3, [r7, #2556]
 2076 1452 9033     		adds	r3, r3, #144
 2077 1454 D3E90001 		ldrd	r0, [r3]
 2078              		.loc 1 187 6 discriminator 3
 2079 1458 07F63823 		addw	r3, r7, #2616
 2080 145c D3E90023 		ldrd	r2, [r3]
 2081 1460 42EA0004 		orr	r4, r2, r0
 2082 1464 C7F8B844 		str	r4, [r7, #1208]
 2083 1468 0B43     		orrs	r3, r3, r1
 2084 146a C7F8BC34 		str	r3, [r7, #1212]
 2085 146e 07F59763 		add	r3, r7, #1208
 2086 1472 D3E90034 		ldrd	r3, [r3]
 2087 1476 07F52362 		add	r2, r7, #2608
 2088 147a C2E90034 		strd	r3, [r2]
 188:shake.c       **** 		c1 = A[ 6] ^ kt;
 2089              		.loc 1 188 9 discriminator 3
 2090 147e D7F8FC39 		ldr	r3, [r7, #2556]
 2091 1482 3033     		adds	r3, r3, #48
 2092 1484 D3E90001 		ldrd	r0, [r3]
 2093              		.loc 1 188 6 discriminator 3
 2094 1488 07F52363 		add	r3, r7, #2608
 2095 148c D3E90023 		ldrd	r2, [r3]
 2096 1490 82EA0004 		eor	r4, r2, r0
 2097 1494 C7F8B044 		str	r4, [r7, #1200]
 2098 1498 4B40     		eors	r3, r3, r1
 2099 149a C7F8B434 		str	r3, [r7, #1204]
 2100 149e 07F59663 		add	r3, r7, #1200
 2101 14a2 D3E90034 		ldrd	r3, [r3]
 2102 14a6 07F52262 		add	r2, r7, #2592
 2103 14aa C2E90034 		strd	r3, [r2]
 189:shake.c       **** 		kt = A[18] & A[24];
 2104              		.loc 1 189 9 discriminator 3
 2105 14ae D7F8FC39 		ldr	r3, [r7, #2556]
 2106 14b2 9033     		adds	r3, r3, #144
 2107 14b4 D3E90001 		ldrd	r0, [r3]
 2108              		.loc 1 189 17 discriminator 3
 2109 14b8 D7F8FC39 		ldr	r3, [r7, #2556]
 2110 14bc C033     		adds	r3, r3, #192
 2111 14be D3E90023 		ldrd	r2, [r3]
 2112              		.loc 1 189 6 discriminator 3
 2113 14c2 00EA0204 		and	r4, r0, r2
 2114 14c6 C7F8A844 		str	r4, [r7, #1192]
 2115 14ca 0B40     		ands	r3, r3, r1
 2116 14cc C7F8AC34 		str	r3, [r7, #1196]
 2117 14d0 07F59563 		add	r3, r7, #1192
 2118 14d4 D3E90034 		ldrd	r3, [r3]
 2119 14d8 07F52362 		add	r2, r7, #2608
 2120 14dc C2E90034 		strd	r3, [r2]
 190:shake.c       **** 		c2 = A[12] ^ kt;
 2121              		.loc 1 190 9 discriminator 3
 2122 14e0 D7F8FC39 		ldr	r3, [r7, #2556]
 2123 14e4 6033     		adds	r3, r3, #96
 2124 14e6 D3E90001 		ldrd	r0, [r3]
 2125              		.loc 1 190 6 discriminator 3
 2126 14ea 07F52363 		add	r3, r7, #2608
 2127 14ee D3E90023 		ldrd	r2, [r3]
 2128 14f2 82EA0004 		eor	r4, r2, r0
 2129 14f6 C7F8A044 		str	r4, [r7, #1184]
 2130 14fa 4B40     		eors	r3, r3, r1
 2131 14fc C7F8A434 		str	r3, [r7, #1188]
 2132 1500 07F59463 		add	r3, r7, #1184
 2133 1504 D3E90034 		ldrd	r3, [r3]
 2134 1508 07F61822 		addw	r2, r7, #2584
 2135 150c C2E90034 		strd	r3, [r2]
 191:shake.c       **** 		kt = A[24] | A[ 0];
 2136              		.loc 1 191 9 discriminator 3
 2137 1510 D7F8FC39 		ldr	r3, [r7, #2556]
 2138 1514 C033     		adds	r3, r3, #192
 2139 1516 D3E90001 		ldrd	r0, [r3]
 2140              		.loc 1 191 17 discriminator 3
 2141 151a D7F8FC39 		ldr	r3, [r7, #2556]
 2142 151e D3E90023 		ldrd	r2, [r3]
 2143              		.loc 1 191 6 discriminator 3
 2144 1522 40EA0204 		orr	r4, r0, r2
 2145 1526 C7F89844 		str	r4, [r7, #1176]
 2146 152a 0B43     		orrs	r3, r3, r1
 2147 152c C7F89C34 		str	r3, [r7, #1180]
 2148 1530 07F59363 		add	r3, r7, #1176
 2149 1534 D3E90034 		ldrd	r3, [r3]
 2150 1538 07F52362 		add	r2, r7, #2608
 2151 153c C2E90034 		strd	r3, [r2]
 192:shake.c       **** 		c3 = A[18] ^ kt;
 2152              		.loc 1 192 9 discriminator 3
 2153 1540 D7F8FC39 		ldr	r3, [r7, #2556]
 2154 1544 9033     		adds	r3, r3, #144
 2155 1546 D3E90001 		ldrd	r0, [r3]
 2156              		.loc 1 192 6 discriminator 3
 2157 154a 07F52363 		add	r3, r7, #2608
 2158 154e D3E90023 		ldrd	r2, [r3]
 2159 1552 82EA0004 		eor	r4, r2, r0
 2160 1556 C7F89044 		str	r4, [r7, #1168]
 2161 155a 4B40     		eors	r3, r3, r1
 2162 155c C7F89434 		str	r3, [r7, #1172]
 2163 1560 07F59263 		add	r3, r7, #1168
 2164 1564 D3E90034 		ldrd	r3, [r3]
 2165 1568 07F52162 		add	r2, r7, #2576
 2166 156c C2E90034 		strd	r3, [r2]
 193:shake.c       **** 		kt = A[ 0] & A[ 6];
 2167              		.loc 1 193 9 discriminator 3
 2168 1570 D7F8FC39 		ldr	r3, [r7, #2556]
 2169 1574 D3E90001 		ldrd	r0, [r3]
 2170              		.loc 1 193 17 discriminator 3
 2171 1578 D7F8FC39 		ldr	r3, [r7, #2556]
 2172 157c 3033     		adds	r3, r3, #48
 2173 157e D3E90023 		ldrd	r2, [r3]
 2174              		.loc 1 193 6 discriminator 3
 2175 1582 00EA0204 		and	r4, r0, r2
 2176 1586 C7F88844 		str	r4, [r7, #1160]
 2177 158a 0B40     		ands	r3, r3, r1
 2178 158c C7F88C34 		str	r3, [r7, #1164]
 2179 1590 07F59163 		add	r3, r7, #1160
 2180 1594 D3E90034 		ldrd	r3, [r3]
 2181 1598 07F52362 		add	r2, r7, #2608
 2182 159c C2E90034 		strd	r3, [r2]
 194:shake.c       **** 		c4 = A[24] ^ kt;
 2183              		.loc 1 194 9 discriminator 3
 2184 15a0 D7F8FC39 		ldr	r3, [r7, #2556]
 2185 15a4 C033     		adds	r3, r3, #192
 2186 15a6 D3E90001 		ldrd	r0, [r3]
 2187              		.loc 1 194 6 discriminator 3
 2188 15aa 07F52363 		add	r3, r7, #2608
 2189 15ae D3E90023 		ldrd	r2, [r3]
 2190 15b2 82EA0004 		eor	r4, r2, r0
 2191 15b6 C7F88044 		str	r4, [r7, #1152]
 2192 15ba 4B40     		eors	r3, r3, r1
 2193 15bc C7F88434 		str	r3, [r7, #1156]
 2194 15c0 07F59063 		add	r3, r7, #1152
 2195 15c4 D3E90034 		ldrd	r3, [r3]
 2196 15c8 07F60822 		addw	r2, r7, #2568
 2197 15cc C2E90034 		strd	r3, [r2]
 195:shake.c       **** 		A[ 0] = c0;
 2198              		.loc 1 195 9 discriminator 3
 2199 15d0 D7F8FC19 		ldr	r1, [r7, #2556]
 2200 15d4 07F62823 		addw	r3, r7, #2600
 2201 15d8 D3E90023 		ldrd	r2, [r3]
 2202 15dc C1E90023 		strd	r2, [r1]
 196:shake.c       **** 		A[ 6] = c1;
 2203              		.loc 1 196 4 discriminator 3
 2204 15e0 D7F8FC39 		ldr	r3, [r7, #2556]
 2205 15e4 03F13001 		add	r1, r3, #48
 2206              		.loc 1 196 9 discriminator 3
 2207 15e8 07F52263 		add	r3, r7, #2592
 2208 15ec D3E90023 		ldrd	r2, [r3]
 2209 15f0 C1E90023 		strd	r2, [r1]
 197:shake.c       **** 		A[12] = c2;
 2210              		.loc 1 197 4 discriminator 3
 2211 15f4 D7F8FC39 		ldr	r3, [r7, #2556]
 2212 15f8 03F16001 		add	r1, r3, #96
 2213              		.loc 1 197 9 discriminator 3
 2214 15fc 07F61823 		addw	r3, r7, #2584
 2215 1600 D3E90023 		ldrd	r2, [r3]
 2216 1604 C1E90023 		strd	r2, [r1]
 198:shake.c       **** 		A[18] = c3;
 2217              		.loc 1 198 4 discriminator 3
 2218 1608 D7F8FC39 		ldr	r3, [r7, #2556]
 2219 160c 03F19001 		add	r1, r3, #144
 2220              		.loc 1 198 9 discriminator 3
 2221 1610 07F52163 		add	r3, r7, #2576
 2222 1614 D3E90023 		ldrd	r2, [r3]
 2223 1618 C1E90023 		strd	r2, [r1]
 199:shake.c       **** 		A[24] = c4;
 2224              		.loc 1 199 4 discriminator 3
 2225 161c D7F8FC39 		ldr	r3, [r7, #2556]
 2226 1620 03F1C001 		add	r1, r3, #192
 2227              		.loc 1 199 9 discriminator 3
 2228 1624 07F60823 		addw	r3, r7, #2568
 2229 1628 D3E90023 		ldrd	r2, [r3]
 2230 162c C1E90023 		strd	r2, [r1]
 200:shake.c       **** 		bnn = ~A[22];
 2231              		.loc 1 200 11 discriminator 3
 2232 1630 D7F8FC39 		ldr	r3, [r7, #2556]
 2233 1634 B033     		adds	r3, r3, #176
 2234 1636 D3E90023 		ldrd	r2, [r3]
 2235              		.loc 1 200 7 discriminator 3
 2236 163a D143     		mvns	r1, r2
 2237 163c C7F87814 		str	r1, [r7, #1144]
 2238 1640 DB43     		mvns	r3, r3
 2239 1642 C7F87C34 		str	r3, [r7, #1148]
 2240 1646 07F58F63 		add	r3, r7, #1144
 2241 164a D3E90034 		ldrd	r3, [r3]
 2242 164e 07F63822 		addw	r2, r7, #2616
 2243 1652 C2E90034 		strd	r3, [r2]
 201:shake.c       **** 		kt = A[ 9] | A[10];
 2244              		.loc 1 201 9 discriminator 3
 2245 1656 D7F8FC39 		ldr	r3, [r7, #2556]
 2246 165a 4833     		adds	r3, r3, #72
 2247 165c D3E90001 		ldrd	r0, [r3]
 2248              		.loc 1 201 17 discriminator 3
 2249 1660 D7F8FC39 		ldr	r3, [r7, #2556]
 2250 1664 5033     		adds	r3, r3, #80
 2251 1666 D3E90023 		ldrd	r2, [r3]
 2252              		.loc 1 201 6 discriminator 3
 2253 166a 40EA0204 		orr	r4, r0, r2
 2254 166e C7F87044 		str	r4, [r7, #1136]
 2255 1672 0B43     		orrs	r3, r3, r1
 2256 1674 C7F87434 		str	r3, [r7, #1140]
 2257 1678 07F58E63 		add	r3, r7, #1136
 2258 167c D3E90034 		ldrd	r3, [r3]
 2259 1680 07F52362 		add	r2, r7, #2608
 2260 1684 C2E90034 		strd	r3, [r2]
 202:shake.c       **** 		c0 = A[ 3] ^ kt;
 2261              		.loc 1 202 9 discriminator 3
 2262 1688 D7F8FC39 		ldr	r3, [r7, #2556]
 2263 168c 1833     		adds	r3, r3, #24
 2264 168e D3E90001 		ldrd	r0, [r3]
 2265              		.loc 1 202 6 discriminator 3
 2266 1692 07F52363 		add	r3, r7, #2608
 2267 1696 D3E90023 		ldrd	r2, [r3]
 2268 169a 82EA0004 		eor	r4, r2, r0
 2269 169e C7F86844 		str	r4, [r7, #1128]
 2270 16a2 4B40     		eors	r3, r3, r1
 2271 16a4 C7F86C34 		str	r3, [r7, #1132]
 2272 16a8 07F58D63 		add	r3, r7, #1128
 2273 16ac D3E90034 		ldrd	r3, [r3]
 2274 16b0 07F62822 		addw	r2, r7, #2600
 2275 16b4 C2E90034 		strd	r3, [r2]
 203:shake.c       **** 		kt = A[10] & A[16];
 2276              		.loc 1 203 9 discriminator 3
 2277 16b8 D7F8FC39 		ldr	r3, [r7, #2556]
 2278 16bc 5033     		adds	r3, r3, #80
 2279 16be D3E90001 		ldrd	r0, [r3]
 2280              		.loc 1 203 17 discriminator 3
 2281 16c2 D7F8FC39 		ldr	r3, [r7, #2556]
 2282 16c6 8033     		adds	r3, r3, #128
 2283 16c8 D3E90023 		ldrd	r2, [r3]
 2284              		.loc 1 203 6 discriminator 3
 2285 16cc 00EA0204 		and	r4, r0, r2
 2286 16d0 C7F86044 		str	r4, [r7, #1120]
 2287 16d4 0B40     		ands	r3, r3, r1
 2288 16d6 C7F86434 		str	r3, [r7, #1124]
 2289 16da 07F58C63 		add	r3, r7, #1120
 2290 16de D3E90034 		ldrd	r3, [r3]
 2291 16e2 07F52362 		add	r2, r7, #2608
 2292 16e6 C2E90034 		strd	r3, [r2]
 204:shake.c       **** 		c1 = A[ 9] ^ kt;
 2293              		.loc 1 204 9 discriminator 3
 2294 16ea D7F8FC39 		ldr	r3, [r7, #2556]
 2295 16ee 4833     		adds	r3, r3, #72
 2296 16f0 D3E90001 		ldrd	r0, [r3]
 2297              		.loc 1 204 6 discriminator 3
 2298 16f4 07F52363 		add	r3, r7, #2608
 2299 16f8 D3E90023 		ldrd	r2, [r3]
 2300 16fc 82EA0004 		eor	r4, r2, r0
 2301 1700 C7F85844 		str	r4, [r7, #1112]
 2302 1704 4B40     		eors	r3, r3, r1
 2303 1706 C7F85C34 		str	r3, [r7, #1116]
 2304 170a 07F58B63 		add	r3, r7, #1112
 2305 170e D3E90034 		ldrd	r3, [r3]
 2306 1712 07F52262 		add	r2, r7, #2592
 2307 1716 C2E90034 		strd	r3, [r2]
 205:shake.c       **** 		kt = A[16] | bnn;
 2308              		.loc 1 205 9 discriminator 3
 2309 171a D7F8FC39 		ldr	r3, [r7, #2556]
 2310 171e 8033     		adds	r3, r3, #128
 2311 1720 D3E90001 		ldrd	r0, [r3]
 2312              		.loc 1 205 6 discriminator 3
 2313 1724 07F63823 		addw	r3, r7, #2616
 2314 1728 D3E90023 		ldrd	r2, [r3]
 2315 172c 42EA0004 		orr	r4, r2, r0
 2316 1730 C7F85044 		str	r4, [r7, #1104]
 2317 1734 0B43     		orrs	r3, r3, r1
 2318 1736 C7F85434 		str	r3, [r7, #1108]
 2319 173a 07F58A63 		add	r3, r7, #1104
 2320 173e D3E90034 		ldrd	r3, [r3]
 2321 1742 07F52362 		add	r2, r7, #2608
 2322 1746 C2E90034 		strd	r3, [r2]
 206:shake.c       **** 		c2 = A[10] ^ kt;
 2323              		.loc 1 206 9 discriminator 3
 2324 174a D7F8FC39 		ldr	r3, [r7, #2556]
 2325 174e 5033     		adds	r3, r3, #80
 2326 1750 D3E90001 		ldrd	r0, [r3]
 2327              		.loc 1 206 6 discriminator 3
 2328 1754 07F52363 		add	r3, r7, #2608
 2329 1758 D3E90023 		ldrd	r2, [r3]
 2330 175c 82EA0004 		eor	r4, r2, r0
 2331 1760 C7F84844 		str	r4, [r7, #1096]
 2332 1764 4B40     		eors	r3, r3, r1
 2333 1766 C7F84C34 		str	r3, [r7, #1100]
 2334 176a 07F58963 		add	r3, r7, #1096
 2335 176e D3E90034 		ldrd	r3, [r3]
 2336 1772 07F61822 		addw	r2, r7, #2584
 2337 1776 C2E90034 		strd	r3, [r2]
 207:shake.c       **** 		kt = A[22] | A[ 3];
 2338              		.loc 1 207 9 discriminator 3
 2339 177a D7F8FC39 		ldr	r3, [r7, #2556]
 2340 177e B033     		adds	r3, r3, #176
 2341 1780 D3E90001 		ldrd	r0, [r3]
 2342              		.loc 1 207 17 discriminator 3
 2343 1784 D7F8FC39 		ldr	r3, [r7, #2556]
 2344 1788 1833     		adds	r3, r3, #24
 2345 178a D3E90023 		ldrd	r2, [r3]
 2346              		.loc 1 207 6 discriminator 3
 2347 178e 40EA0204 		orr	r4, r0, r2
 2348 1792 C7F84044 		str	r4, [r7, #1088]
 2349 1796 0B43     		orrs	r3, r3, r1
 2350 1798 C7F84434 		str	r3, [r7, #1092]
 2351 179c 07F58863 		add	r3, r7, #1088
 2352 17a0 D3E90034 		ldrd	r3, [r3]
 2353 17a4 07F52362 		add	r2, r7, #2608
 2354 17a8 C2E90034 		strd	r3, [r2]
 208:shake.c       **** 		c3 = A[16] ^ kt;
 2355              		.loc 1 208 9 discriminator 3
 2356 17ac D7F8FC39 		ldr	r3, [r7, #2556]
 2357 17b0 8033     		adds	r3, r3, #128
 2358 17b2 D3E90001 		ldrd	r0, [r3]
 2359              		.loc 1 208 6 discriminator 3
 2360 17b6 07F52363 		add	r3, r7, #2608
 2361 17ba D3E90023 		ldrd	r2, [r3]
 2362 17be 82EA0004 		eor	r4, r2, r0
 2363 17c2 C7F83844 		str	r4, [r7, #1080]
 2364 17c6 4B40     		eors	r3, r3, r1
 2365 17c8 C7F83C34 		str	r3, [r7, #1084]
 2366 17cc 07F58763 		add	r3, r7, #1080
 2367 17d0 D3E90034 		ldrd	r3, [r3]
 2368 17d4 07F52162 		add	r2, r7, #2576
 2369 17d8 C2E90034 		strd	r3, [r2]
 209:shake.c       **** 		kt = A[ 3] & A[ 9];
 2370              		.loc 1 209 9 discriminator 3
 2371 17dc D7F8FC39 		ldr	r3, [r7, #2556]
 2372 17e0 1833     		adds	r3, r3, #24
 2373 17e2 D3E90001 		ldrd	r0, [r3]
 2374              		.loc 1 209 17 discriminator 3
 2375 17e6 D7F8FC39 		ldr	r3, [r7, #2556]
 2376 17ea 4833     		adds	r3, r3, #72
 2377 17ec D3E90023 		ldrd	r2, [r3]
 2378              		.loc 1 209 6 discriminator 3
 2379 17f0 00EA0204 		and	r4, r0, r2
 2380 17f4 C7F83044 		str	r4, [r7, #1072]
 2381 17f8 0B40     		ands	r3, r3, r1
 2382 17fa C7F83434 		str	r3, [r7, #1076]
 2383 17fe 07F58663 		add	r3, r7, #1072
 2384 1802 D3E90034 		ldrd	r3, [r3]
 2385 1806 07F52362 		add	r2, r7, #2608
 2386 180a C2E90034 		strd	r3, [r2]
 210:shake.c       **** 		c4 = A[22] ^ kt;
 2387              		.loc 1 210 9 discriminator 3
 2388 180e D7F8FC39 		ldr	r3, [r7, #2556]
 2389 1812 B033     		adds	r3, r3, #176
 2390 1814 D3E90001 		ldrd	r0, [r3]
 2391              		.loc 1 210 6 discriminator 3
 2392 1818 07F52363 		add	r3, r7, #2608
 2393 181c D3E90023 		ldrd	r2, [r3]
 2394 1820 82EA0004 		eor	r4, r2, r0
 2395 1824 C7F82844 		str	r4, [r7, #1064]
 2396 1828 4B40     		eors	r3, r3, r1
 2397 182a C7F82C34 		str	r3, [r7, #1068]
 2398 182e 07F58563 		add	r3, r7, #1064
 2399 1832 D3E90034 		ldrd	r3, [r3]
 2400 1836 07F60822 		addw	r2, r7, #2568
 2401 183a C2E90034 		strd	r3, [r2]
 211:shake.c       **** 		A[ 3] = c0;
 2402              		.loc 1 211 4 discriminator 3
 2403 183e D7F8FC39 		ldr	r3, [r7, #2556]
 2404 1842 03F11801 		add	r1, r3, #24
 2405              		.loc 1 211 9 discriminator 3
 2406 1846 07F62823 		addw	r3, r7, #2600
 2407 184a D3E90023 		ldrd	r2, [r3]
 2408 184e C1E90023 		strd	r2, [r1]
 212:shake.c       **** 		A[ 9] = c1;
 2409              		.loc 1 212 4 discriminator 3
 2410 1852 D7F8FC39 		ldr	r3, [r7, #2556]
 2411 1856 03F14801 		add	r1, r3, #72
 2412              		.loc 1 212 9 discriminator 3
 2413 185a 07F52263 		add	r3, r7, #2592
 2414 185e D3E90023 		ldrd	r2, [r3]
 2415 1862 C1E90023 		strd	r2, [r1]
 213:shake.c       **** 		A[10] = c2;
 2416              		.loc 1 213 4 discriminator 3
 2417 1866 D7F8FC39 		ldr	r3, [r7, #2556]
 2418 186a 03F15001 		add	r1, r3, #80
 2419              		.loc 1 213 9 discriminator 3
 2420 186e 07F61823 		addw	r3, r7, #2584
 2421 1872 D3E90023 		ldrd	r2, [r3]
 2422 1876 C1E90023 		strd	r2, [r1]
 214:shake.c       **** 		A[16] = c3;
 2423              		.loc 1 214 4 discriminator 3
 2424 187a D7F8FC39 		ldr	r3, [r7, #2556]
 2425 187e 03F18001 		add	r1, r3, #128
 2426              		.loc 1 214 9 discriminator 3
 2427 1882 07F52163 		add	r3, r7, #2576
 2428 1886 D3E90023 		ldrd	r2, [r3]
 2429 188a C1E90023 		strd	r2, [r1]
 215:shake.c       **** 		A[22] = c4;
 2430              		.loc 1 215 4 discriminator 3
 2431 188e D7F8FC39 		ldr	r3, [r7, #2556]
 2432 1892 03F1B001 		add	r1, r3, #176
 2433              		.loc 1 215 9 discriminator 3
 2434 1896 07F60823 		addw	r3, r7, #2568
 2435 189a D3E90023 		ldrd	r2, [r3]
 2436 189e C1E90023 		strd	r2, [r1]
 216:shake.c       **** 		bnn = ~A[19];
 2437              		.loc 1 216 11 discriminator 3
 2438 18a2 D7F8FC39 		ldr	r3, [r7, #2556]
 2439 18a6 9833     		adds	r3, r3, #152
 2440 18a8 D3E90023 		ldrd	r2, [r3]
 2441              		.loc 1 216 7 discriminator 3
 2442 18ac D143     		mvns	r1, r2
 2443 18ae C7F82014 		str	r1, [r7, #1056]
 2444 18b2 DB43     		mvns	r3, r3
 2445 18b4 C7F82434 		str	r3, [r7, #1060]
 2446 18b8 07F58463 		add	r3, r7, #1056
 2447 18bc D3E90034 		ldrd	r3, [r3]
 2448 18c0 07F63822 		addw	r2, r7, #2616
 2449 18c4 C2E90034 		strd	r3, [r2]
 217:shake.c       **** 		kt = A[ 7] | A[13];
 2450              		.loc 1 217 9 discriminator 3
 2451 18c8 D7F8FC39 		ldr	r3, [r7, #2556]
 2452 18cc 3833     		adds	r3, r3, #56
 2453 18ce D3E90001 		ldrd	r0, [r3]
 2454              		.loc 1 217 17 discriminator 3
 2455 18d2 D7F8FC39 		ldr	r3, [r7, #2556]
 2456 18d6 6833     		adds	r3, r3, #104
 2457 18d8 D3E90023 		ldrd	r2, [r3]
 2458              		.loc 1 217 6 discriminator 3
 2459 18dc 40EA0204 		orr	r4, r0, r2
 2460 18e0 C7F81844 		str	r4, [r7, #1048]
 2461 18e4 0B43     		orrs	r3, r3, r1
 2462 18e6 C7F81C34 		str	r3, [r7, #1052]
 2463 18ea 07F58363 		add	r3, r7, #1048
 2464 18ee D3E90034 		ldrd	r3, [r3]
 2465 18f2 07F52362 		add	r2, r7, #2608
 2466 18f6 C2E90034 		strd	r3, [r2]
 218:shake.c       **** 		c0 = A[ 1] ^ kt;
 2467              		.loc 1 218 9 discriminator 3
 2468 18fa D7F8FC39 		ldr	r3, [r7, #2556]
 2469 18fe 0833     		adds	r3, r3, #8
 2470 1900 D3E90001 		ldrd	r0, [r3]
 2471              		.loc 1 218 6 discriminator 3
 2472 1904 07F52363 		add	r3, r7, #2608
 2473 1908 D3E90023 		ldrd	r2, [r3]
 2474 190c 82EA0004 		eor	r4, r2, r0
 2475 1910 C7F81044 		str	r4, [r7, #1040]
 2476 1914 4B40     		eors	r3, r3, r1
 2477 1916 C7F81434 		str	r3, [r7, #1044]
 2478 191a 07F58263 		add	r3, r7, #1040
 2479 191e D3E90034 		ldrd	r3, [r3]
 2480 1922 07F62822 		addw	r2, r7, #2600
 2481 1926 C2E90034 		strd	r3, [r2]
 219:shake.c       **** 		kt = A[13] & A[19];
 2482              		.loc 1 219 9 discriminator 3
 2483 192a D7F8FC39 		ldr	r3, [r7, #2556]
 2484 192e 6833     		adds	r3, r3, #104
 2485 1930 D3E90001 		ldrd	r0, [r3]
 2486              		.loc 1 219 17 discriminator 3
 2487 1934 D7F8FC39 		ldr	r3, [r7, #2556]
 2488 1938 9833     		adds	r3, r3, #152
 2489 193a D3E90023 		ldrd	r2, [r3]
 2490              		.loc 1 219 6 discriminator 3
 2491 193e 00EA0204 		and	r4, r0, r2
 2492 1942 C7F80844 		str	r4, [r7, #1032]
 2493 1946 0B40     		ands	r3, r3, r1
 2494 1948 C7F80C34 		str	r3, [r7, #1036]
 2495 194c 07F58163 		add	r3, r7, #1032
 2496 1950 D3E90034 		ldrd	r3, [r3]
 2497 1954 07F52362 		add	r2, r7, #2608
 2498 1958 C2E90034 		strd	r3, [r2]
 220:shake.c       **** 		c1 = A[ 7] ^ kt;
 2499              		.loc 1 220 9 discriminator 3
 2500 195c D7F8FC39 		ldr	r3, [r7, #2556]
 2501 1960 3833     		adds	r3, r3, #56
 2502 1962 D3E90001 		ldrd	r0, [r3]
 2503              		.loc 1 220 6 discriminator 3
 2504 1966 07F52363 		add	r3, r7, #2608
 2505 196a D3E90023 		ldrd	r2, [r3]
 2506 196e 82EA0004 		eor	r4, r2, r0
 2507 1972 C7F80044 		str	r4, [r7, #1024]
 2508 1976 4B40     		eors	r3, r3, r1
 2509 1978 C7F80434 		str	r3, [r7, #1028]
 2510 197c 07F58063 		add	r3, r7, #1024
 2511 1980 D3E90034 		ldrd	r3, [r3]
 2512 1984 07F52262 		add	r2, r7, #2592
 2513 1988 C2E90034 		strd	r3, [r2]
 221:shake.c       **** 		kt = bnn & A[20];
 2514              		.loc 1 221 15 discriminator 3
 2515 198c D7F8FC39 		ldr	r3, [r7, #2556]
 2516 1990 A033     		adds	r3, r3, #160
 2517 1992 D3E90001 		ldrd	r0, [r3]
 2518              		.loc 1 221 6 discriminator 3
 2519 1996 07F63823 		addw	r3, r7, #2616
 2520 199a D3E90023 		ldrd	r2, [r3]
 2521 199e 02EA0004 		and	r4, r2, r0
 2522 19a2 C7F8F843 		str	r4, [r7, #1016]
 2523 19a6 0B40     		ands	r3, r3, r1
 2524 19a8 C7F8FC33 		str	r3, [r7, #1020]
 2525 19ac D7E9FE34 		ldrd	r3, [r7, #1016]
 2526 19b0 07F52362 		add	r2, r7, #2608
 2527 19b4 C2E90034 		strd	r3, [r2]
 222:shake.c       **** 		c2 = A[13] ^ kt;
 2528              		.loc 1 222 9 discriminator 3
 2529 19b8 D7F8FC39 		ldr	r3, [r7, #2556]
 2530 19bc 6833     		adds	r3, r3, #104
 2531 19be D3E90001 		ldrd	r0, [r3]
 2532              		.loc 1 222 6 discriminator 3
 2533 19c2 07F52363 		add	r3, r7, #2608
 2534 19c6 D3E90023 		ldrd	r2, [r3]
 2535 19ca 82EA0004 		eor	r4, r2, r0
 2536 19ce C7F8F043 		str	r4, [r7, #1008]
 2537 19d2 4B40     		eors	r3, r3, r1
 2538 19d4 C7F8F433 		str	r3, [r7, #1012]
 2539 19d8 D7E9FC34 		ldrd	r3, [r7, #1008]
 2540 19dc 07F61822 		addw	r2, r7, #2584
 2541 19e0 C2E90034 		strd	r3, [r2]
 223:shake.c       **** 		kt = A[20] | A[ 1];
 2542              		.loc 1 223 9 discriminator 3
 2543 19e4 D7F8FC39 		ldr	r3, [r7, #2556]
 2544 19e8 A033     		adds	r3, r3, #160
 2545 19ea D3E90001 		ldrd	r0, [r3]
 2546              		.loc 1 223 17 discriminator 3
 2547 19ee D7F8FC39 		ldr	r3, [r7, #2556]
 2548 19f2 0833     		adds	r3, r3, #8
 2549 19f4 D3E90023 		ldrd	r2, [r3]
 2550              		.loc 1 223 6 discriminator 3
 2551 19f8 40EA0204 		orr	r4, r0, r2
 2552 19fc C7F8E843 		str	r4, [r7, #1000]
 2553 1a00 0B43     		orrs	r3, r3, r1
 2554 1a02 C7F8EC33 		str	r3, [r7, #1004]
 2555 1a06 D7E9FA34 		ldrd	r3, [r7, #1000]
 2556 1a0a 07F52362 		add	r2, r7, #2608
 2557 1a0e C2E90034 		strd	r3, [r2]
 224:shake.c       **** 		c3 = bnn ^ kt;
 2558              		.loc 1 224 6 discriminator 3
 2559 1a12 07F63823 		addw	r3, r7, #2616
 2560 1a16 D3E90001 		ldrd	r0, [r3]
 2561 1a1a 07F52363 		add	r3, r7, #2608
 2562 1a1e D3E90023 		ldrd	r2, [r3]
 2563 1a22 80EA0204 		eor	r4, r0, r2
 2564 1a26 C7F8E043 		str	r4, [r7, #992]
 2565 1a2a 4B40     		eors	r3, r3, r1
 2566 1a2c C7F8E433 		str	r3, [r7, #996]
 2567 1a30 D7E9F834 		ldrd	r3, [r7, #992]
 2568 1a34 07F52162 		add	r2, r7, #2576
 2569 1a38 C2E90034 		strd	r3, [r2]
 225:shake.c       **** 		kt = A[ 1] & A[ 7];
 2570              		.loc 1 225 9 discriminator 3
 2571 1a3c D7F8FC39 		ldr	r3, [r7, #2556]
 2572 1a40 0833     		adds	r3, r3, #8
 2573 1a42 D3E90001 		ldrd	r0, [r3]
 2574              		.loc 1 225 17 discriminator 3
 2575 1a46 D7F8FC39 		ldr	r3, [r7, #2556]
 2576 1a4a 3833     		adds	r3, r3, #56
 2577 1a4c D3E90023 		ldrd	r2, [r3]
 2578              		.loc 1 225 6 discriminator 3
 2579 1a50 00EA0204 		and	r4, r0, r2
 2580 1a54 C7F8D843 		str	r4, [r7, #984]
 2581 1a58 0B40     		ands	r3, r3, r1
 2582 1a5a C7F8DC33 		str	r3, [r7, #988]
 2583 1a5e D7E9F634 		ldrd	r3, [r7, #984]
 2584 1a62 07F52362 		add	r2, r7, #2608
 2585 1a66 C2E90034 		strd	r3, [r2]
 226:shake.c       **** 		c4 = A[20] ^ kt;
 2586              		.loc 1 226 9 discriminator 3
 2587 1a6a D7F8FC39 		ldr	r3, [r7, #2556]
 2588 1a6e A033     		adds	r3, r3, #160
 2589 1a70 D3E90001 		ldrd	r0, [r3]
 2590              		.loc 1 226 6 discriminator 3
 2591 1a74 07F52363 		add	r3, r7, #2608
 2592 1a78 D3E90023 		ldrd	r2, [r3]
 2593 1a7c 82EA0004 		eor	r4, r2, r0
 2594 1a80 C7F8D043 		str	r4, [r7, #976]
 2595 1a84 4B40     		eors	r3, r3, r1
 2596 1a86 C7F8D433 		str	r3, [r7, #980]
 2597 1a8a D7E9F434 		ldrd	r3, [r7, #976]
 2598 1a8e 07F60822 		addw	r2, r7, #2568
 2599 1a92 C2E90034 		strd	r3, [r2]
 227:shake.c       **** 		A[ 1] = c0;
 2600              		.loc 1 227 4 discriminator 3
 2601 1a96 D7F8FC39 		ldr	r3, [r7, #2556]
 2602 1a9a 03F10801 		add	r1, r3, #8
 2603              		.loc 1 227 9 discriminator 3
 2604 1a9e 07F62823 		addw	r3, r7, #2600
 2605 1aa2 D3E90023 		ldrd	r2, [r3]
 2606 1aa6 C1E90023 		strd	r2, [r1]
 228:shake.c       **** 		A[ 7] = c1;
 2607              		.loc 1 228 4 discriminator 3
 2608 1aaa D7F8FC39 		ldr	r3, [r7, #2556]
 2609 1aae 03F13801 		add	r1, r3, #56
 2610              		.loc 1 228 9 discriminator 3
 2611 1ab2 07F52263 		add	r3, r7, #2592
 2612 1ab6 D3E90023 		ldrd	r2, [r3]
 2613 1aba C1E90023 		strd	r2, [r1]
 229:shake.c       **** 		A[13] = c2;
 2614              		.loc 1 229 4 discriminator 3
 2615 1abe D7F8FC39 		ldr	r3, [r7, #2556]
 2616 1ac2 03F16801 		add	r1, r3, #104
 2617              		.loc 1 229 9 discriminator 3
 2618 1ac6 07F61823 		addw	r3, r7, #2584
 2619 1aca D3E90023 		ldrd	r2, [r3]
 2620 1ace C1E90023 		strd	r2, [r1]
 230:shake.c       **** 		A[19] = c3;
 2621              		.loc 1 230 4 discriminator 3
 2622 1ad2 D7F8FC39 		ldr	r3, [r7, #2556]
 2623 1ad6 03F19801 		add	r1, r3, #152
 2624              		.loc 1 230 9 discriminator 3
 2625 1ada 07F52163 		add	r3, r7, #2576
 2626 1ade D3E90023 		ldrd	r2, [r3]
 2627 1ae2 C1E90023 		strd	r2, [r1]
 231:shake.c       **** 		A[20] = c4;
 2628              		.loc 1 231 4 discriminator 3
 2629 1ae6 D7F8FC39 		ldr	r3, [r7, #2556]
 2630 1aea 03F1A001 		add	r1, r3, #160
 2631              		.loc 1 231 9 discriminator 3
 2632 1aee 07F60823 		addw	r3, r7, #2568
 2633 1af2 D3E90023 		ldrd	r2, [r3]
 2634 1af6 C1E90023 		strd	r2, [r1]
 232:shake.c       **** 		bnn = ~A[17];
 2635              		.loc 1 232 11 discriminator 3
 2636 1afa D7F8FC39 		ldr	r3, [r7, #2556]
 2637 1afe 8833     		adds	r3, r3, #136
 2638 1b00 D3E90023 		ldrd	r2, [r3]
 2639              		.loc 1 232 7 discriminator 3
 2640 1b04 D143     		mvns	r1, r2
 2641 1b06 C7F8C813 		str	r1, [r7, #968]
 2642 1b0a DB43     		mvns	r3, r3
 2643 1b0c C7F8CC33 		str	r3, [r7, #972]
 2644 1b10 D7E9F234 		ldrd	r3, [r7, #968]
 2645 1b14 07F63822 		addw	r2, r7, #2616
 2646 1b18 C2E90034 		strd	r3, [r2]
 233:shake.c       **** 		kt = A[ 5] & A[11];
 2647              		.loc 1 233 9 discriminator 3
 2648 1b1c D7F8FC39 		ldr	r3, [r7, #2556]
 2649 1b20 2833     		adds	r3, r3, #40
 2650 1b22 D3E90001 		ldrd	r0, [r3]
 2651              		.loc 1 233 17 discriminator 3
 2652 1b26 D7F8FC39 		ldr	r3, [r7, #2556]
 2653 1b2a 5833     		adds	r3, r3, #88
 2654 1b2c D3E90023 		ldrd	r2, [r3]
 2655              		.loc 1 233 6 discriminator 3
 2656 1b30 00EA0204 		and	r4, r0, r2
 2657 1b34 C7F8C043 		str	r4, [r7, #960]
 2658 1b38 0B40     		ands	r3, r3, r1
 2659 1b3a C7F8C433 		str	r3, [r7, #964]
 2660 1b3e D7E9F034 		ldrd	r3, [r7, #960]
 2661 1b42 07F52362 		add	r2, r7, #2608
 2662 1b46 C2E90034 		strd	r3, [r2]
 234:shake.c       **** 		c0 = A[ 4] ^ kt;
 2663              		.loc 1 234 9 discriminator 3
 2664 1b4a D7F8FC39 		ldr	r3, [r7, #2556]
 2665 1b4e 2033     		adds	r3, r3, #32
 2666 1b50 D3E90001 		ldrd	r0, [r3]
 2667              		.loc 1 234 6 discriminator 3
 2668 1b54 07F52363 		add	r3, r7, #2608
 2669 1b58 D3E90023 		ldrd	r2, [r3]
 2670 1b5c 82EA0004 		eor	r4, r2, r0
 2671 1b60 C7F8B843 		str	r4, [r7, #952]
 2672 1b64 4B40     		eors	r3, r3, r1
 2673 1b66 C7F8BC33 		str	r3, [r7, #956]
 2674 1b6a D7E9EE34 		ldrd	r3, [r7, #952]
 2675 1b6e 07F62822 		addw	r2, r7, #2600
 2676 1b72 C2E90034 		strd	r3, [r2]
 235:shake.c       **** 		kt = A[11] | A[17];
 2677              		.loc 1 235 9 discriminator 3
 2678 1b76 D7F8FC39 		ldr	r3, [r7, #2556]
 2679 1b7a 5833     		adds	r3, r3, #88
 2680 1b7c D3E90001 		ldrd	r0, [r3]
 2681              		.loc 1 235 17 discriminator 3
 2682 1b80 D7F8FC39 		ldr	r3, [r7, #2556]
 2683 1b84 8833     		adds	r3, r3, #136
 2684 1b86 D3E90023 		ldrd	r2, [r3]
 2685              		.loc 1 235 6 discriminator 3
 2686 1b8a 40EA0204 		orr	r4, r0, r2
 2687 1b8e C7F8B043 		str	r4, [r7, #944]
 2688 1b92 0B43     		orrs	r3, r3, r1
 2689 1b94 C7F8B433 		str	r3, [r7, #948]
 2690 1b98 D7E9EC34 		ldrd	r3, [r7, #944]
 2691 1b9c 07F52362 		add	r2, r7, #2608
 2692 1ba0 C2E90034 		strd	r3, [r2]
 236:shake.c       **** 		c1 = A[ 5] ^ kt;
 2693              		.loc 1 236 9 discriminator 3
 2694 1ba4 D7F8FC39 		ldr	r3, [r7, #2556]
 2695 1ba8 2833     		adds	r3, r3, #40
 2696 1baa D3E90001 		ldrd	r0, [r3]
 2697              		.loc 1 236 6 discriminator 3
 2698 1bae 07F52363 		add	r3, r7, #2608
 2699 1bb2 D3E90023 		ldrd	r2, [r3]
 2700 1bb6 82EA0004 		eor	r4, r2, r0
 2701 1bba C7F8A843 		str	r4, [r7, #936]
 2702 1bbe 4B40     		eors	r3, r3, r1
 2703 1bc0 C7F8AC33 		str	r3, [r7, #940]
 2704 1bc4 D7E9EA34 		ldrd	r3, [r7, #936]
 2705 1bc8 07F52262 		add	r2, r7, #2592
 2706 1bcc C2E90034 		strd	r3, [r2]
 237:shake.c       **** 		kt = bnn | A[23];
 2707              		.loc 1 237 15 discriminator 3
 2708 1bd0 D7F8FC39 		ldr	r3, [r7, #2556]
 2709 1bd4 B833     		adds	r3, r3, #184
 2710 1bd6 D3E90001 		ldrd	r0, [r3]
 2711              		.loc 1 237 6 discriminator 3
 2712 1bda 07F63823 		addw	r3, r7, #2616
 2713 1bde D3E90023 		ldrd	r2, [r3]
 2714 1be2 42EA0004 		orr	r4, r2, r0
 2715 1be6 C7F8A043 		str	r4, [r7, #928]
 2716 1bea 0B43     		orrs	r3, r3, r1
 2717 1bec C7F8A433 		str	r3, [r7, #932]
 2718 1bf0 D7E9E834 		ldrd	r3, [r7, #928]
 2719 1bf4 07F52362 		add	r2, r7, #2608
 2720 1bf8 C2E90034 		strd	r3, [r2]
 238:shake.c       **** 		c2 = A[11] ^ kt;
 2721              		.loc 1 238 9 discriminator 3
 2722 1bfc D7F8FC39 		ldr	r3, [r7, #2556]
 2723 1c00 5833     		adds	r3, r3, #88
 2724 1c02 D3E90001 		ldrd	r0, [r3]
 2725              		.loc 1 238 6 discriminator 3
 2726 1c06 07F52363 		add	r3, r7, #2608
 2727 1c0a D3E90023 		ldrd	r2, [r3]
 2728 1c0e 82EA0004 		eor	r4, r2, r0
 2729 1c12 C7F89843 		str	r4, [r7, #920]
 2730 1c16 4B40     		eors	r3, r3, r1
 2731 1c18 C7F89C33 		str	r3, [r7, #924]
 2732 1c1c D7E9E634 		ldrd	r3, [r7, #920]
 2733 1c20 07F61822 		addw	r2, r7, #2584
 2734 1c24 C2E90034 		strd	r3, [r2]
 239:shake.c       **** 		kt = A[23] & A[ 4];
 2735              		.loc 1 239 9 discriminator 3
 2736 1c28 D7F8FC39 		ldr	r3, [r7, #2556]
 2737 1c2c B833     		adds	r3, r3, #184
 2738 1c2e D3E90001 		ldrd	r0, [r3]
 2739              		.loc 1 239 17 discriminator 3
 2740 1c32 D7F8FC39 		ldr	r3, [r7, #2556]
 2741 1c36 2033     		adds	r3, r3, #32
 2742 1c38 D3E90023 		ldrd	r2, [r3]
 2743              		.loc 1 239 6 discriminator 3
 2744 1c3c 00EA0204 		and	r4, r0, r2
 2745 1c40 C7F89043 		str	r4, [r7, #912]
 2746 1c44 0B40     		ands	r3, r3, r1
 2747 1c46 C7F89433 		str	r3, [r7, #916]
 2748 1c4a D7E9E434 		ldrd	r3, [r7, #912]
 2749 1c4e 07F52362 		add	r2, r7, #2608
 2750 1c52 C2E90034 		strd	r3, [r2]
 240:shake.c       **** 		c3 = bnn ^ kt;
 2751              		.loc 1 240 6 discriminator 3
 2752 1c56 07F63823 		addw	r3, r7, #2616
 2753 1c5a D3E90001 		ldrd	r0, [r3]
 2754 1c5e 07F52363 		add	r3, r7, #2608
 2755 1c62 D3E90023 		ldrd	r2, [r3]
 2756 1c66 80EA0204 		eor	r4, r0, r2
 2757 1c6a C7F88843 		str	r4, [r7, #904]
 2758 1c6e 4B40     		eors	r3, r3, r1
 2759 1c70 C7F88C33 		str	r3, [r7, #908]
 2760 1c74 D7E9E234 		ldrd	r3, [r7, #904]
 2761 1c78 07F52162 		add	r2, r7, #2576
 2762 1c7c C2E90034 		strd	r3, [r2]
 241:shake.c       **** 		kt = A[ 4] | A[ 5];
 2763              		.loc 1 241 9 discriminator 3
 2764 1c80 D7F8FC39 		ldr	r3, [r7, #2556]
 2765 1c84 2033     		adds	r3, r3, #32
 2766 1c86 D3E90001 		ldrd	r0, [r3]
 2767              		.loc 1 241 17 discriminator 3
 2768 1c8a D7F8FC39 		ldr	r3, [r7, #2556]
 2769 1c8e 2833     		adds	r3, r3, #40
 2770 1c90 D3E90023 		ldrd	r2, [r3]
 2771              		.loc 1 241 6 discriminator 3
 2772 1c94 40EA0204 		orr	r4, r0, r2
 2773 1c98 C7F88043 		str	r4, [r7, #896]
 2774 1c9c 0B43     		orrs	r3, r3, r1
 2775 1c9e C7F88433 		str	r3, [r7, #900]
 2776 1ca2 D7E9E034 		ldrd	r3, [r7, #896]
 2777 1ca6 07F52362 		add	r2, r7, #2608
 2778 1caa C2E90034 		strd	r3, [r2]
 242:shake.c       **** 		c4 = A[23] ^ kt;
 2779              		.loc 1 242 9 discriminator 3
 2780 1cae D7F8FC39 		ldr	r3, [r7, #2556]
 2781 1cb2 B833     		adds	r3, r3, #184
 2782 1cb4 D3E90001 		ldrd	r0, [r3]
 2783              		.loc 1 242 6 discriminator 3
 2784 1cb8 07F52363 		add	r3, r7, #2608
 2785 1cbc D3E90023 		ldrd	r2, [r3]
 2786 1cc0 82EA0004 		eor	r4, r2, r0
 2787 1cc4 C7F87843 		str	r4, [r7, #888]
 2788 1cc8 4B40     		eors	r3, r3, r1
 2789 1cca C7F87C33 		str	r3, [r7, #892]
 2790 1cce D7E9DE34 		ldrd	r3, [r7, #888]
 2791 1cd2 07F60822 		addw	r2, r7, #2568
 2792 1cd6 C2E90034 		strd	r3, [r2]
 243:shake.c       **** 		A[ 4] = c0;
 2793              		.loc 1 243 4 discriminator 3
 2794 1cda D7F8FC39 		ldr	r3, [r7, #2556]
 2795 1cde 03F12001 		add	r1, r3, #32
 2796              		.loc 1 243 9 discriminator 3
 2797 1ce2 07F62823 		addw	r3, r7, #2600
 2798 1ce6 D3E90023 		ldrd	r2, [r3]
 2799 1cea C1E90023 		strd	r2, [r1]
 244:shake.c       **** 		A[ 5] = c1;
 2800              		.loc 1 244 4 discriminator 3
 2801 1cee D7F8FC39 		ldr	r3, [r7, #2556]
 2802 1cf2 03F12801 		add	r1, r3, #40
 2803              		.loc 1 244 9 discriminator 3
 2804 1cf6 07F52263 		add	r3, r7, #2592
 2805 1cfa D3E90023 		ldrd	r2, [r3]
 2806 1cfe C1E90023 		strd	r2, [r1]
 245:shake.c       **** 		A[11] = c2;
 2807              		.loc 1 245 4 discriminator 3
 2808 1d02 D7F8FC39 		ldr	r3, [r7, #2556]
 2809 1d06 03F15801 		add	r1, r3, #88
 2810              		.loc 1 245 9 discriminator 3
 2811 1d0a 07F61823 		addw	r3, r7, #2584
 2812 1d0e D3E90023 		ldrd	r2, [r3]
 2813 1d12 C1E90023 		strd	r2, [r1]
 246:shake.c       **** 		A[17] = c3;
 2814              		.loc 1 246 4 discriminator 3
 2815 1d16 D7F8FC39 		ldr	r3, [r7, #2556]
 2816 1d1a 03F18801 		add	r1, r3, #136
 2817              		.loc 1 246 9 discriminator 3
 2818 1d1e 07F52163 		add	r3, r7, #2576
 2819 1d22 D3E90023 		ldrd	r2, [r3]
 2820 1d26 C1E90023 		strd	r2, [r1]
 247:shake.c       **** 		A[23] = c4;
 2821              		.loc 1 247 4 discriminator 3
 2822 1d2a D7F8FC39 		ldr	r3, [r7, #2556]
 2823 1d2e 03F1B801 		add	r1, r3, #184
 2824              		.loc 1 247 9 discriminator 3
 2825 1d32 07F60823 		addw	r3, r7, #2568
 2826 1d36 D3E90023 		ldrd	r2, [r3]
 2827 1d3a C1E90023 		strd	r2, [r1]
 248:shake.c       **** 		bnn = ~A[ 8];
 2828              		.loc 1 248 11 discriminator 3
 2829 1d3e D7F8FC39 		ldr	r3, [r7, #2556]
 2830 1d42 4033     		adds	r3, r3, #64
 2831 1d44 D3E90023 		ldrd	r2, [r3]
 2832              		.loc 1 248 7 discriminator 3
 2833 1d48 D143     		mvns	r1, r2
 2834 1d4a C7F87013 		str	r1, [r7, #880]
 2835 1d4e DB43     		mvns	r3, r3
 2836 1d50 C7F87433 		str	r3, [r7, #884]
 2837 1d54 D7E9DC34 		ldrd	r3, [r7, #880]
 2838 1d58 07F63822 		addw	r2, r7, #2616
 2839 1d5c C2E90034 		strd	r3, [r2]
 249:shake.c       **** 		kt = bnn & A[14];
 2840              		.loc 1 249 15 discriminator 3
 2841 1d60 D7F8FC39 		ldr	r3, [r7, #2556]
 2842 1d64 7033     		adds	r3, r3, #112
 2843 1d66 D3E90001 		ldrd	r0, [r3]
 2844              		.loc 1 249 6 discriminator 3
 2845 1d6a 07F63823 		addw	r3, r7, #2616
 2846 1d6e D3E90023 		ldrd	r2, [r3]
 2847 1d72 02EA0004 		and	r4, r2, r0
 2848 1d76 C7F86843 		str	r4, [r7, #872]
 2849 1d7a 0B40     		ands	r3, r3, r1
 2850 1d7c C7F86C33 		str	r3, [r7, #876]
 2851 1d80 D7E9DA34 		ldrd	r3, [r7, #872]
 2852 1d84 07F52362 		add	r2, r7, #2608
 2853 1d88 C2E90034 		strd	r3, [r2]
 250:shake.c       **** 		c0 = A[ 2] ^ kt;
 2854              		.loc 1 250 9 discriminator 3
 2855 1d8c D7F8FC39 		ldr	r3, [r7, #2556]
 2856 1d90 1033     		adds	r3, r3, #16
 2857 1d92 D3E90001 		ldrd	r0, [r3]
 2858              		.loc 1 250 6 discriminator 3
 2859 1d96 07F52363 		add	r3, r7, #2608
 2860 1d9a D3E90023 		ldrd	r2, [r3]
 2861 1d9e 82EA0004 		eor	r4, r2, r0
 2862 1da2 C7F86043 		str	r4, [r7, #864]
 2863 1da6 4B40     		eors	r3, r3, r1
 2864 1da8 C7F86433 		str	r3, [r7, #868]
 2865 1dac D7E9D834 		ldrd	r3, [r7, #864]
 2866 1db0 07F62822 		addw	r2, r7, #2600
 2867 1db4 C2E90034 		strd	r3, [r2]
 251:shake.c       **** 		kt = A[14] | A[15];
 2868              		.loc 1 251 9 discriminator 3
 2869 1db8 D7F8FC39 		ldr	r3, [r7, #2556]
 2870 1dbc 7033     		adds	r3, r3, #112
 2871 1dbe D3E90001 		ldrd	r0, [r3]
 2872              		.loc 1 251 17 discriminator 3
 2873 1dc2 D7F8FC39 		ldr	r3, [r7, #2556]
 2874 1dc6 7833     		adds	r3, r3, #120
 2875 1dc8 D3E90023 		ldrd	r2, [r3]
 2876              		.loc 1 251 6 discriminator 3
 2877 1dcc 40EA0204 		orr	r4, r0, r2
 2878 1dd0 C7F85843 		str	r4, [r7, #856]
 2879 1dd4 0B43     		orrs	r3, r3, r1
 2880 1dd6 C7F85C33 		str	r3, [r7, #860]
 2881 1dda D7E9D634 		ldrd	r3, [r7, #856]
 2882 1dde 07F52362 		add	r2, r7, #2608
 2883 1de2 C2E90034 		strd	r3, [r2]
 252:shake.c       **** 		c1 = bnn ^ kt;
 2884              		.loc 1 252 6 discriminator 3
 2885 1de6 07F63823 		addw	r3, r7, #2616
 2886 1dea D3E90001 		ldrd	r0, [r3]
 2887 1dee 07F52363 		add	r3, r7, #2608
 2888 1df2 D3E90023 		ldrd	r2, [r3]
 2889 1df6 80EA0204 		eor	r4, r0, r2
 2890 1dfa C7F85043 		str	r4, [r7, #848]
 2891 1dfe 4B40     		eors	r3, r3, r1
 2892 1e00 C7F85433 		str	r3, [r7, #852]
 2893 1e04 D7E9D434 		ldrd	r3, [r7, #848]
 2894 1e08 07F52262 		add	r2, r7, #2592
 2895 1e0c C2E90034 		strd	r3, [r2]
 253:shake.c       **** 		kt = A[15] & A[21];
 2896              		.loc 1 253 9 discriminator 3
 2897 1e10 D7F8FC39 		ldr	r3, [r7, #2556]
 2898 1e14 7833     		adds	r3, r3, #120
 2899 1e16 D3E90001 		ldrd	r0, [r3]
 2900              		.loc 1 253 17 discriminator 3
 2901 1e1a D7F8FC39 		ldr	r3, [r7, #2556]
 2902 1e1e A833     		adds	r3, r3, #168
 2903 1e20 D3E90023 		ldrd	r2, [r3]
 2904              		.loc 1 253 6 discriminator 3
 2905 1e24 00EA0204 		and	r4, r0, r2
 2906 1e28 C7F84843 		str	r4, [r7, #840]
 2907 1e2c 0B40     		ands	r3, r3, r1
 2908 1e2e C7F84C33 		str	r3, [r7, #844]
 2909 1e32 D7E9D234 		ldrd	r3, [r7, #840]
 2910 1e36 07F52362 		add	r2, r7, #2608
 2911 1e3a C2E90034 		strd	r3, [r2]
 254:shake.c       **** 		c2 = A[14] ^ kt;
 2912              		.loc 1 254 9 discriminator 3
 2913 1e3e D7F8FC39 		ldr	r3, [r7, #2556]
 2914 1e42 7033     		adds	r3, r3, #112
 2915 1e44 D3E90001 		ldrd	r0, [r3]
 2916              		.loc 1 254 6 discriminator 3
 2917 1e48 07F52363 		add	r3, r7, #2608
 2918 1e4c D3E90023 		ldrd	r2, [r3]
 2919 1e50 82EA0004 		eor	r4, r2, r0
 2920 1e54 C7F84043 		str	r4, [r7, #832]
 2921 1e58 4B40     		eors	r3, r3, r1
 2922 1e5a C7F84433 		str	r3, [r7, #836]
 2923 1e5e D7E9D034 		ldrd	r3, [r7, #832]
 2924 1e62 07F61822 		addw	r2, r7, #2584
 2925 1e66 C2E90034 		strd	r3, [r2]
 255:shake.c       **** 		kt = A[21] | A[ 2];
 2926              		.loc 1 255 9 discriminator 3
 2927 1e6a D7F8FC39 		ldr	r3, [r7, #2556]
 2928 1e6e A833     		adds	r3, r3, #168
 2929 1e70 D3E90001 		ldrd	r0, [r3]
 2930              		.loc 1 255 17 discriminator 3
 2931 1e74 D7F8FC39 		ldr	r3, [r7, #2556]
 2932 1e78 1033     		adds	r3, r3, #16
 2933 1e7a D3E90023 		ldrd	r2, [r3]
 2934              		.loc 1 255 6 discriminator 3
 2935 1e7e 40EA0204 		orr	r4, r0, r2
 2936 1e82 C7F83843 		str	r4, [r7, #824]
 2937 1e86 0B43     		orrs	r3, r3, r1
 2938 1e88 C7F83C33 		str	r3, [r7, #828]
 2939 1e8c D7E9CE34 		ldrd	r3, [r7, #824]
 2940 1e90 07F52362 		add	r2, r7, #2608
 2941 1e94 C2E90034 		strd	r3, [r2]
 256:shake.c       **** 		c3 = A[15] ^ kt;
 2942              		.loc 1 256 9 discriminator 3
 2943 1e98 D7F8FC39 		ldr	r3, [r7, #2556]
 2944 1e9c 7833     		adds	r3, r3, #120
 2945 1e9e D3E90001 		ldrd	r0, [r3]
 2946              		.loc 1 256 6 discriminator 3
 2947 1ea2 07F52363 		add	r3, r7, #2608
 2948 1ea6 D3E90023 		ldrd	r2, [r3]
 2949 1eaa 82EA0004 		eor	r4, r2, r0
 2950 1eae C7F83043 		str	r4, [r7, #816]
 2951 1eb2 4B40     		eors	r3, r3, r1
 2952 1eb4 C7F83433 		str	r3, [r7, #820]
 2953 1eb8 D7E9CC34 		ldrd	r3, [r7, #816]
 2954 1ebc 07F52162 		add	r2, r7, #2576
 2955 1ec0 C2E90034 		strd	r3, [r2]
 257:shake.c       **** 		kt = A[ 2] & A[ 8];
 2956              		.loc 1 257 9 discriminator 3
 2957 1ec4 D7F8FC39 		ldr	r3, [r7, #2556]
 2958 1ec8 1033     		adds	r3, r3, #16
 2959 1eca D3E90001 		ldrd	r0, [r3]
 2960              		.loc 1 257 17 discriminator 3
 2961 1ece D7F8FC39 		ldr	r3, [r7, #2556]
 2962 1ed2 4033     		adds	r3, r3, #64
 2963 1ed4 D3E90023 		ldrd	r2, [r3]
 2964              		.loc 1 257 6 discriminator 3
 2965 1ed8 00EA0204 		and	r4, r0, r2
 2966 1edc C7F82843 		str	r4, [r7, #808]
 2967 1ee0 0B40     		ands	r3, r3, r1
 2968 1ee2 C7F82C33 		str	r3, [r7, #812]
 2969 1ee6 D7E9CA34 		ldrd	r3, [r7, #808]
 2970 1eea 07F52362 		add	r2, r7, #2608
 2971 1eee C2E90034 		strd	r3, [r2]
 258:shake.c       **** 		c4 = A[21] ^ kt;
 2972              		.loc 1 258 9 discriminator 3
 2973 1ef2 D7F8FC39 		ldr	r3, [r7, #2556]
 2974 1ef6 A833     		adds	r3, r3, #168
 2975 1ef8 D3E90001 		ldrd	r0, [r3]
 2976              		.loc 1 258 6 discriminator 3
 2977 1efc 07F52363 		add	r3, r7, #2608
 2978 1f00 D3E90023 		ldrd	r2, [r3]
 2979 1f04 82EA0004 		eor	r4, r2, r0
 2980 1f08 C7F82043 		str	r4, [r7, #800]
 2981 1f0c 4B40     		eors	r3, r3, r1
 2982 1f0e C7F82433 		str	r3, [r7, #804]
 2983 1f12 D7E9C834 		ldrd	r3, [r7, #800]
 2984 1f16 07F60822 		addw	r2, r7, #2568
 2985 1f1a C2E90034 		strd	r3, [r2]
 259:shake.c       **** 		A[ 2] = c0;
 2986              		.loc 1 259 4 discriminator 3
 2987 1f1e D7F8FC39 		ldr	r3, [r7, #2556]
 2988 1f22 03F11001 		add	r1, r3, #16
 2989              		.loc 1 259 9 discriminator 3
 2990 1f26 07F62823 		addw	r3, r7, #2600
 2991 1f2a D3E90023 		ldrd	r2, [r3]
 2992 1f2e C1E90023 		strd	r2, [r1]
 260:shake.c       **** 		A[ 8] = c1;
 2993              		.loc 1 260 4 discriminator 3
 2994 1f32 D7F8FC39 		ldr	r3, [r7, #2556]
 2995 1f36 03F14001 		add	r1, r3, #64
 2996              		.loc 1 260 9 discriminator 3
 2997 1f3a 07F52263 		add	r3, r7, #2592
 2998 1f3e D3E90023 		ldrd	r2, [r3]
 2999 1f42 C1E90023 		strd	r2, [r1]
 261:shake.c       **** 		A[14] = c2;
 3000              		.loc 1 261 4 discriminator 3
 3001 1f46 D7F8FC39 		ldr	r3, [r7, #2556]
 3002 1f4a 03F17001 		add	r1, r3, #112
 3003              		.loc 1 261 9 discriminator 3
 3004 1f4e 07F61823 		addw	r3, r7, #2584
 3005 1f52 D3E90023 		ldrd	r2, [r3]
 3006 1f56 C1E90023 		strd	r2, [r1]
 262:shake.c       **** 		A[15] = c3;
 3007              		.loc 1 262 4 discriminator 3
 3008 1f5a D7F8FC39 		ldr	r3, [r7, #2556]
 3009 1f5e 03F17801 		add	r1, r3, #120
 3010              		.loc 1 262 9 discriminator 3
 3011 1f62 07F52163 		add	r3, r7, #2576
 3012 1f66 D3E90023 		ldrd	r2, [r3]
 3013 1f6a C1E90023 		strd	r2, [r1]
 263:shake.c       **** 		A[21] = c4;
 3014              		.loc 1 263 4 discriminator 3
 3015 1f6e D7F8FC39 		ldr	r3, [r7, #2556]
 3016 1f72 03F1A801 		add	r1, r3, #168
 3017              		.loc 1 263 9 discriminator 3
 3018 1f76 07F60823 		addw	r3, r7, #2568
 3019 1f7a D3E90023 		ldrd	r2, [r3]
 3020 1f7e C1E90023 		strd	r2, [r1]
 264:shake.c       **** 		A[ 0] = A[ 0] ^ RC[j + 0];
 3021              		.loc 1 264 12 discriminator 3
 3022 1f82 D7F8FC39 		ldr	r3, [r7, #2556]
 3023 1f86 D3E90001 		ldrd	r0, [r3]
 3024              		.loc 1 264 21 discriminator 3
 3025 1f8a C14A     		ldr	r2, .L4
 3026 1f8c D7F88C3A 		ldr	r3, [r7, #2700]
 3027 1f90 DB00     		lsls	r3, r3, #3
 3028 1f92 1344     		add	r3, r3, r2
 3029 1f94 D3E90023 		ldrd	r2, [r3]
 3030              		.loc 1 264 17 discriminator 3
 3031 1f98 80EA0204 		eor	r4, r0, r2
 3032 1f9c C7F82848 		str	r4, [r7, #2088]
 3033 1fa0 4B40     		eors	r3, r3, r1
 3034 1fa2 C7F82C38 		str	r3, [r7, #2092]
 3035              		.loc 1 264 9 discriminator 3
 3036 1fa6 D7F8FC39 		ldr	r3, [r7, #2556]
 3037 1faa 07F62802 		addw	r2, r7, #2088
 3038 1fae D2E90012 		ldrd	r1, [r2]
 3039 1fb2 C3E90012 		strd	r1, [r3]
 265:shake.c       **** 
 266:shake.c       **** 		tt0 = A[ 6] ^ A[ 9];
 3040              		.loc 1 266 10 discriminator 3
 3041 1fb6 D7F8FC39 		ldr	r3, [r7, #2556]
 3042 1fba 3033     		adds	r3, r3, #48
 3043 1fbc D3E90001 		ldrd	r0, [r3]
 3044              		.loc 1 266 18 discriminator 3
 3045 1fc0 D7F8FC39 		ldr	r3, [r7, #2556]
 3046 1fc4 4833     		adds	r3, r3, #72
 3047 1fc6 D3E90023 		ldrd	r2, [r3]
 3048              		.loc 1 266 7 discriminator 3
 3049 1fca 80EA0204 		eor	r4, r0, r2
 3050 1fce C7F81843 		str	r4, [r7, #792]
 3051 1fd2 4B40     		eors	r3, r3, r1
 3052 1fd4 C7F81C33 		str	r3, [r7, #796]
 3053 1fd8 D7E9C634 		ldrd	r3, [r7, #792]
 3054 1fdc 07F52862 		add	r2, r7, #2688
 3055 1fe0 C2E90034 		strd	r3, [r2]
 267:shake.c       **** 		tt1 = A[ 7] ^ A[ 5];
 3056              		.loc 1 267 10 discriminator 3
 3057 1fe4 D7F8FC39 		ldr	r3, [r7, #2556]
 3058 1fe8 3833     		adds	r3, r3, #56
 3059 1fea D3E90001 		ldrd	r0, [r3]
 3060              		.loc 1 267 18 discriminator 3
 3061 1fee D7F8FC39 		ldr	r3, [r7, #2556]
 3062 1ff2 2833     		adds	r3, r3, #40
 3063 1ff4 D3E90023 		ldrd	r2, [r3]
 3064              		.loc 1 267 7 discriminator 3
 3065 1ff8 80EA0204 		eor	r4, r0, r2
 3066 1ffc C7F81043 		str	r4, [r7, #784]
 3067 2000 4B40     		eors	r3, r3, r1
 3068 2002 C7F81433 		str	r3, [r7, #788]
 3069 2006 D7E9C434 		ldrd	r3, [r7, #784]
 3070 200a 07F67822 		addw	r2, r7, #2680
 3071 200e C2E90034 		strd	r3, [r2]
 268:shake.c       **** 		tt0 ^= A[ 8] ^ tt1;
 3072              		.loc 1 268 11 discriminator 3
 3073 2012 D7F8FC39 		ldr	r3, [r7, #2556]
 3074 2016 4033     		adds	r3, r3, #64
 3075 2018 D3E90001 		ldrd	r0, [r3]
 3076              		.loc 1 268 16 discriminator 3
 3077 201c 07F67823 		addw	r3, r7, #2680
 3078 2020 D3E90023 		ldrd	r2, [r3]
 3079 2024 80EA0204 		eor	r4, r0, r2
 3080 2028 C7F82048 		str	r4, [r7, #2080]
 3081 202c 4B40     		eors	r3, r3, r1
 3082 202e C7F82438 		str	r3, [r7, #2084]
 3083              		.loc 1 268 7 discriminator 3
 3084 2032 07F52863 		add	r3, r7, #2688
 3085 2036 D3E90023 		ldrd	r2, [r3]
 3086 203a 07F50261 		add	r1, r7, #2080
 3087 203e D1E90001 		ldrd	r0, [r1]
 3088 2042 0446     		mov	r4, r0
 3089 2044 5440     		eors	r4, r4, r2
 3090 2046 C7F80843 		str	r4, [r7, #776]
 3091 204a 4B40     		eors	r3, r3, r1
 3092 204c C7F80C33 		str	r3, [r7, #780]
 3093 2050 D7E9C234 		ldrd	r3, [r7, #776]
 3094 2054 07F52862 		add	r2, r7, #2688
 3095 2058 C2E90034 		strd	r3, [r2]
 269:shake.c       **** 		tt0 = (tt0 << 1) | (tt0 >> 63);
 3096              		.loc 1 269 7 discriminator 3
 3097 205c D7F8803A 		ldr	r3, [r7, #2688]
 3098 2060 DA0F     		lsrs	r2, r3, #31
 3099 2062 D7F8843A 		ldr	r3, [r7, #2692]
 3100 2066 5B00     		lsls	r3, r3, #1
 3101 2068 1343     		orrs	r3, r3, r2
 3102 206a C7F80433 		str	r3, [r7, #772]
 3103 206e D7F8843A 		ldr	r3, [r7, #2692]
 3104 2072 DA0F     		lsrs	r2, r3, #31
 3105 2074 D7F8803A 		ldr	r3, [r7, #2688]
 3106 2078 5B00     		lsls	r3, r3, #1
 3107 207a 1343     		orrs	r3, r3, r2
 3108 207c C7F80033 		str	r3, [r7, #768]
 3109 2080 D7E9C034 		ldrd	r3, [r7, #768]
 3110 2084 07F52862 		add	r2, r7, #2688
 3111 2088 C2E90034 		strd	r3, [r2]
 270:shake.c       **** 		tt2 = A[24] ^ A[22];
 3112              		.loc 1 270 10 discriminator 3
 3113 208c D7F8FC39 		ldr	r3, [r7, #2556]
 3114 2090 C033     		adds	r3, r3, #192
 3115 2092 D3E90001 		ldrd	r0, [r3]
 3116              		.loc 1 270 18 discriminator 3
 3117 2096 D7F8FC39 		ldr	r3, [r7, #2556]
 3118 209a B033     		adds	r3, r3, #176
 3119 209c D3E90023 		ldrd	r2, [r3]
 3120              		.loc 1 270 7 discriminator 3
 3121 20a0 80EA0204 		eor	r4, r0, r2
 3122 20a4 C7F8F842 		str	r4, [r7, #760]
 3123 20a8 4B40     		eors	r3, r3, r1
 3124 20aa C7F8FC32 		str	r3, [r7, #764]
 3125 20ae D7E9BE34 		ldrd	r3, [r7, #760]
 3126 20b2 07F52762 		add	r2, r7, #2672
 3127 20b6 C2E90034 		strd	r3, [r2]
 271:shake.c       **** 		tt3 = A[20] ^ A[23];
 3128              		.loc 1 271 10 discriminator 3
 3129 20ba D7F8FC39 		ldr	r3, [r7, #2556]
 3130 20be A033     		adds	r3, r3, #160
 3131 20c0 D3E90001 		ldrd	r0, [r3]
 3132              		.loc 1 271 18 discriminator 3
 3133 20c4 D7F8FC39 		ldr	r3, [r7, #2556]
 3134 20c8 B833     		adds	r3, r3, #184
 3135 20ca D3E90023 		ldrd	r2, [r3]
 3136              		.loc 1 271 7 discriminator 3
 3137 20ce 80EA0204 		eor	r4, r0, r2
 3138 20d2 C7F8F042 		str	r4, [r7, #752]
 3139 20d6 4B40     		eors	r3, r3, r1
 3140 20d8 C7F8F432 		str	r3, [r7, #756]
 3141 20dc D7E9BC34 		ldrd	r3, [r7, #752]
 3142 20e0 07F66822 		addw	r2, r7, #2664
 3143 20e4 C2E90034 		strd	r3, [r2]
 272:shake.c       **** 		tt0 ^= A[21];
 3144              		.loc 1 272 11 discriminator 3
 3145 20e8 D7F8FC39 		ldr	r3, [r7, #2556]
 3146 20ec A833     		adds	r3, r3, #168
 3147 20ee D3E90001 		ldrd	r0, [r3]
 3148              		.loc 1 272 7 discriminator 3
 3149 20f2 07F52863 		add	r3, r7, #2688
 3150 20f6 D3E90023 		ldrd	r2, [r3]
 3151 20fa 82EA0004 		eor	r4, r2, r0
 3152 20fe C7F8E842 		str	r4, [r7, #744]
 3153 2102 4B40     		eors	r3, r3, r1
 3154 2104 C7F8EC32 		str	r3, [r7, #748]
 3155 2108 D7E9BA34 		ldrd	r3, [r7, #744]
 3156 210c 07F52862 		add	r2, r7, #2688
 3157 2110 C2E90034 		strd	r3, [r2]
 273:shake.c       **** 		tt2 ^= tt3;
 3158              		.loc 1 273 7 discriminator 3
 3159 2114 07F52763 		add	r3, r7, #2672
 3160 2118 D3E90001 		ldrd	r0, [r3]
 3161 211c 07F66823 		addw	r3, r7, #2664
 3162 2120 D3E90023 		ldrd	r2, [r3]
 3163 2124 80EA0204 		eor	r4, r0, r2
 3164 2128 C7F8E042 		str	r4, [r7, #736]
 3165 212c 4B40     		eors	r3, r3, r1
 3166 212e C7F8E432 		str	r3, [r7, #740]
 3167 2132 D7E9B834 		ldrd	r3, [r7, #736]
 3168 2136 07F52762 		add	r2, r7, #2672
 3169 213a C2E90034 		strd	r3, [r2]
 274:shake.c       **** 		t0 = tt0 ^ tt2;
 3170              		.loc 1 274 6 discriminator 3
 3171 213e 07F52863 		add	r3, r7, #2688
 3172 2142 D3E90001 		ldrd	r0, [r3]
 3173 2146 07F52763 		add	r3, r7, #2672
 3174 214a D3E90023 		ldrd	r2, [r3]
 3175 214e 80EA0204 		eor	r4, r0, r2
 3176 2152 C7F8D842 		str	r4, [r7, #728]
 3177 2156 4B40     		eors	r3, r3, r1
 3178 2158 C7F8DC32 		str	r3, [r7, #732]
 3179 215c D7E9B634 		ldrd	r3, [r7, #728]
 3180 2160 07F52662 		add	r2, r7, #2656
 3181 2164 C2E90034 		strd	r3, [r2]
 275:shake.c       **** 
 276:shake.c       **** 		tt0 = A[12] ^ A[10];
 3182              		.loc 1 276 10 discriminator 3
 3183 2168 D7F8FC39 		ldr	r3, [r7, #2556]
 3184 216c 6033     		adds	r3, r3, #96
 3185 216e D3E90001 		ldrd	r0, [r3]
 3186              		.loc 1 276 18 discriminator 3
 3187 2172 D7F8FC39 		ldr	r3, [r7, #2556]
 3188 2176 5033     		adds	r3, r3, #80
 3189 2178 D3E90023 		ldrd	r2, [r3]
 3190              		.loc 1 276 7 discriminator 3
 3191 217c 80EA0204 		eor	r4, r0, r2
 3192 2180 C7F8D042 		str	r4, [r7, #720]
 3193 2184 4B40     		eors	r3, r3, r1
 3194 2186 C7F8D432 		str	r3, [r7, #724]
 3195 218a D7E9B434 		ldrd	r3, [r7, #720]
 3196 218e 07F52862 		add	r2, r7, #2688
 3197 2192 C2E90034 		strd	r3, [r2]
 277:shake.c       **** 		tt1 = A[13] ^ A[11];
 3198              		.loc 1 277 10 discriminator 3
 3199 2196 D7F8FC39 		ldr	r3, [r7, #2556]
 3200 219a 6833     		adds	r3, r3, #104
 3201 219c D3E90001 		ldrd	r0, [r3]
 3202              		.loc 1 277 18 discriminator 3
 3203 21a0 D7F8FC39 		ldr	r3, [r7, #2556]
 3204 21a4 5833     		adds	r3, r3, #88
 3205 21a6 D3E90023 		ldrd	r2, [r3]
 3206              		.loc 1 277 7 discriminator 3
 3207 21aa 80EA0204 		eor	r4, r0, r2
 3208 21ae C7F8C842 		str	r4, [r7, #712]
 3209 21b2 4B40     		eors	r3, r3, r1
 3210 21b4 C7F8CC32 		str	r3, [r7, #716]
 3211 21b8 D7E9B234 		ldrd	r3, [r7, #712]
 3212 21bc 07F67822 		addw	r2, r7, #2680
 3213 21c0 C2E90034 		strd	r3, [r2]
 278:shake.c       **** 		tt0 ^= A[14] ^ tt1;
 3214              		.loc 1 278 11 discriminator 3
 3215 21c4 D7F8FC39 		ldr	r3, [r7, #2556]
 3216 21c8 7033     		adds	r3, r3, #112
 3217 21ca D3E90001 		ldrd	r0, [r3]
 3218              		.loc 1 278 16 discriminator 3
 3219 21ce 07F67823 		addw	r3, r7, #2680
 3220 21d2 D3E90023 		ldrd	r2, [r3]
 3221 21d6 80EA0204 		eor	r4, r0, r2
 3222 21da C7F81848 		str	r4, [r7, #2072]
 3223 21de 4B40     		eors	r3, r3, r1
 3224 21e0 C7F81C38 		str	r3, [r7, #2076]
 3225              		.loc 1 278 7 discriminator 3
 3226 21e4 07F52863 		add	r3, r7, #2688
 3227 21e8 D3E90023 		ldrd	r2, [r3]
 3228 21ec 07F61801 		addw	r1, r7, #2072
 3229 21f0 D1E90001 		ldrd	r0, [r1]
 3230 21f4 0446     		mov	r4, r0
 3231 21f6 5440     		eors	r4, r4, r2
 3232 21f8 C7F8C042 		str	r4, [r7, #704]
 3233 21fc 4B40     		eors	r3, r3, r1
 3234 21fe C7F8C432 		str	r3, [r7, #708]
 3235 2202 D7E9B034 		ldrd	r3, [r7, #704]
 3236 2206 07F52862 		add	r2, r7, #2688
 3237 220a C2E90034 		strd	r3, [r2]
 279:shake.c       **** 		tt0 = (tt0 << 1) | (tt0 >> 63);
 3238              		.loc 1 279 7 discriminator 3
 3239 220e D7F8803A 		ldr	r3, [r7, #2688]
 3240 2212 DA0F     		lsrs	r2, r3, #31
 3241 2214 D7F8843A 		ldr	r3, [r7, #2692]
 3242 2218 5B00     		lsls	r3, r3, #1
 3243 221a 1343     		orrs	r3, r3, r2
 3244 221c C7F8BC32 		str	r3, [r7, #700]
 3245 2220 D7F8843A 		ldr	r3, [r7, #2692]
 3246 2224 DA0F     		lsrs	r2, r3, #31
 3247 2226 D7F8803A 		ldr	r3, [r7, #2688]
 3248 222a 5B00     		lsls	r3, r3, #1
 3249 222c 1343     		orrs	r3, r3, r2
 3250 222e C7F8B832 		str	r3, [r7, #696]
 3251 2232 D7E9AE34 		ldrd	r3, [r7, #696]
 3252 2236 07F52862 		add	r2, r7, #2688
 3253 223a C2E90034 		strd	r3, [r2]
 280:shake.c       **** 		tt2 = A[ 0] ^ A[ 3];
 3254              		.loc 1 280 10 discriminator 3
 3255 223e D7F8FC39 		ldr	r3, [r7, #2556]
 3256 2242 D3E90001 		ldrd	r0, [r3]
 3257              		.loc 1 280 18 discriminator 3
 3258 2246 D7F8FC39 		ldr	r3, [r7, #2556]
 3259 224a 1833     		adds	r3, r3, #24
 3260 224c D3E90023 		ldrd	r2, [r3]
 3261              		.loc 1 280 7 discriminator 3
 3262 2250 80EA0204 		eor	r4, r0, r2
 3263 2254 C7F8B042 		str	r4, [r7, #688]
 3264 2258 4B40     		eors	r3, r3, r1
 3265 225a C7F8B432 		str	r3, [r7, #692]
 3266 225e D7E9AC34 		ldrd	r3, [r7, #688]
 3267 2262 07F52762 		add	r2, r7, #2672
 3268 2266 C2E90034 		strd	r3, [r2]
 281:shake.c       **** 		tt3 = A[ 1] ^ A[ 4];
 3269              		.loc 1 281 10 discriminator 3
 3270 226a D7F8FC39 		ldr	r3, [r7, #2556]
 3271 226e 0833     		adds	r3, r3, #8
 3272 2270 D3E90001 		ldrd	r0, [r3]
 3273              		.loc 1 281 18 discriminator 3
 3274 2274 D7F8FC39 		ldr	r3, [r7, #2556]
 3275 2278 2033     		adds	r3, r3, #32
 3276 227a D3E90023 		ldrd	r2, [r3]
 3277              		.loc 1 281 7 discriminator 3
 3278 227e 80EA0204 		eor	r4, r0, r2
 3279 2282 C7F8A842 		str	r4, [r7, #680]
 3280 2286 4B40     		eors	r3, r3, r1
 3281 2288 C7F8AC32 		str	r3, [r7, #684]
 3282 228c 02E0     		b	.L5
 3283              	.L6:
 3284 228e 00BF     		.align	2
 3285              	.L4:
 3286 2290 40010000 		.word	RC
 3287              	.L5:
 3288 2294 D7E9AA34 		ldrd	r3, [r7, #680]
 3289 2298 07F66822 		addw	r2, r7, #2664
 3290 229c C2E90034 		strd	r3, [r2]
 282:shake.c       **** 		tt0 ^= A[ 2];
 3291              		.loc 1 282 11 discriminator 3
 3292 22a0 D7F8FC39 		ldr	r3, [r7, #2556]
 3293 22a4 1033     		adds	r3, r3, #16
 3294 22a6 D3E90001 		ldrd	r0, [r3]
 3295              		.loc 1 282 7 discriminator 3
 3296 22aa 07F52863 		add	r3, r7, #2688
 3297 22ae D3E90023 		ldrd	r2, [r3]
 3298 22b2 82EA0004 		eor	r4, r2, r0
 3299 22b6 C7F8A042 		str	r4, [r7, #672]
 3300 22ba 4B40     		eors	r3, r3, r1
 3301 22bc C7F8A432 		str	r3, [r7, #676]
 3302 22c0 D7E9A834 		ldrd	r3, [r7, #672]
 3303 22c4 07F52862 		add	r2, r7, #2688
 3304 22c8 C2E90034 		strd	r3, [r2]
 283:shake.c       **** 		tt2 ^= tt3;
 3305              		.loc 1 283 7 discriminator 3
 3306 22cc 07F52763 		add	r3, r7, #2672
 3307 22d0 D3E90001 		ldrd	r0, [r3]
 3308 22d4 07F66823 		addw	r3, r7, #2664
 3309 22d8 D3E90023 		ldrd	r2, [r3]
 3310 22dc 80EA0204 		eor	r4, r0, r2
 3311 22e0 C7F89842 		str	r4, [r7, #664]
 3312 22e4 4B40     		eors	r3, r3, r1
 3313 22e6 C7F89C32 		str	r3, [r7, #668]
 3314 22ea D7E9A634 		ldrd	r3, [r7, #664]
 3315 22ee 07F52762 		add	r2, r7, #2672
 3316 22f2 C2E90034 		strd	r3, [r2]
 284:shake.c       **** 		t1 = tt0 ^ tt2;
 3317              		.loc 1 284 6 discriminator 3
 3318 22f6 07F52863 		add	r3, r7, #2688
 3319 22fa D3E90001 		ldrd	r0, [r3]
 3320 22fe 07F52763 		add	r3, r7, #2672
 3321 2302 D3E90023 		ldrd	r2, [r3]
 3322 2306 80EA0204 		eor	r4, r0, r2
 3323 230a C7F89042 		str	r4, [r7, #656]
 3324 230e 4B40     		eors	r3, r3, r1
 3325 2310 C7F89432 		str	r3, [r7, #660]
 3326 2314 D7E9A434 		ldrd	r3, [r7, #656]
 3327 2318 07F65822 		addw	r2, r7, #2648
 3328 231c C2E90034 		strd	r3, [r2]
 285:shake.c       **** 
 286:shake.c       **** 		tt0 = A[18] ^ A[16];
 3329              		.loc 1 286 10 discriminator 3
 3330 2320 D7F8FC39 		ldr	r3, [r7, #2556]
 3331 2324 9033     		adds	r3, r3, #144
 3332 2326 D3E90001 		ldrd	r0, [r3]
 3333              		.loc 1 286 18 discriminator 3
 3334 232a D7F8FC39 		ldr	r3, [r7, #2556]
 3335 232e 8033     		adds	r3, r3, #128
 3336 2330 D3E90023 		ldrd	r2, [r3]
 3337              		.loc 1 286 7 discriminator 3
 3338 2334 80EA0204 		eor	r4, r0, r2
 3339 2338 C7F88842 		str	r4, [r7, #648]
 3340 233c 4B40     		eors	r3, r3, r1
 3341 233e C7F88C32 		str	r3, [r7, #652]
 3342 2342 D7E9A234 		ldrd	r3, [r7, #648]
 3343 2346 07F52862 		add	r2, r7, #2688
 3344 234a C2E90034 		strd	r3, [r2]
 287:shake.c       **** 		tt1 = A[19] ^ A[17];
 3345              		.loc 1 287 10 discriminator 3
 3346 234e D7F8FC39 		ldr	r3, [r7, #2556]
 3347 2352 9833     		adds	r3, r3, #152
 3348 2354 D3E90001 		ldrd	r0, [r3]
 3349              		.loc 1 287 18 discriminator 3
 3350 2358 D7F8FC39 		ldr	r3, [r7, #2556]
 3351 235c 8833     		adds	r3, r3, #136
 3352 235e D3E90023 		ldrd	r2, [r3]
 3353              		.loc 1 287 7 discriminator 3
 3354 2362 80EA0204 		eor	r4, r0, r2
 3355 2366 C7F88042 		str	r4, [r7, #640]
 3356 236a 4B40     		eors	r3, r3, r1
 3357 236c C7F88432 		str	r3, [r7, #644]
 3358 2370 D7E9A034 		ldrd	r3, [r7, #640]
 3359 2374 07F67822 		addw	r2, r7, #2680
 3360 2378 C2E90034 		strd	r3, [r2]
 288:shake.c       **** 		tt0 ^= A[15] ^ tt1;
 3361              		.loc 1 288 11 discriminator 3
 3362 237c D7F8FC39 		ldr	r3, [r7, #2556]
 3363 2380 7833     		adds	r3, r3, #120
 3364 2382 D3E90001 		ldrd	r0, [r3]
 3365              		.loc 1 288 16 discriminator 3
 3366 2386 07F67823 		addw	r3, r7, #2680
 3367 238a D3E90023 		ldrd	r2, [r3]
 3368 238e 80EA0204 		eor	r4, r0, r2
 3369 2392 C7F81048 		str	r4, [r7, #2064]
 3370 2396 4B40     		eors	r3, r3, r1
 3371 2398 C7F81438 		str	r3, [r7, #2068]
 3372              		.loc 1 288 7 discriminator 3
 3373 239c 07F52863 		add	r3, r7, #2688
 3374 23a0 D3E90023 		ldrd	r2, [r3]
 3375 23a4 07F50161 		add	r1, r7, #2064
 3376 23a8 D1E90001 		ldrd	r0, [r1]
 3377 23ac 0446     		mov	r4, r0
 3378 23ae 5440     		eors	r4, r4, r2
 3379 23b0 C7F87842 		str	r4, [r7, #632]
 3380 23b4 4B40     		eors	r3, r3, r1
 3381 23b6 C7F87C32 		str	r3, [r7, #636]
 3382 23ba D7E99E34 		ldrd	r3, [r7, #632]
 3383 23be 07F52862 		add	r2, r7, #2688
 3384 23c2 C2E90034 		strd	r3, [r2]
 289:shake.c       **** 		tt0 = (tt0 << 1) | (tt0 >> 63);
 3385              		.loc 1 289 7 discriminator 3
 3386 23c6 D7F8803A 		ldr	r3, [r7, #2688]
 3387 23ca DA0F     		lsrs	r2, r3, #31
 3388 23cc D7F8843A 		ldr	r3, [r7, #2692]
 3389 23d0 5B00     		lsls	r3, r3, #1
 3390 23d2 1343     		orrs	r3, r3, r2
 3391 23d4 C7F87432 		str	r3, [r7, #628]
 3392 23d8 D7F8843A 		ldr	r3, [r7, #2692]
 3393 23dc DA0F     		lsrs	r2, r3, #31
 3394 23de D7F8803A 		ldr	r3, [r7, #2688]
 3395 23e2 5B00     		lsls	r3, r3, #1
 3396 23e4 1343     		orrs	r3, r3, r2
 3397 23e6 C7F87032 		str	r3, [r7, #624]
 3398 23ea D7E99C34 		ldrd	r3, [r7, #624]
 3399 23ee 07F52862 		add	r2, r7, #2688
 3400 23f2 C2E90034 		strd	r3, [r2]
 290:shake.c       **** 		tt2 = A[ 6] ^ A[ 9];
 3401              		.loc 1 290 10 discriminator 3
 3402 23f6 D7F8FC39 		ldr	r3, [r7, #2556]
 3403 23fa 3033     		adds	r3, r3, #48
 3404 23fc D3E90001 		ldrd	r0, [r3]
 3405              		.loc 1 290 18 discriminator 3
 3406 2400 D7F8FC39 		ldr	r3, [r7, #2556]
 3407 2404 4833     		adds	r3, r3, #72
 3408 2406 D3E90023 		ldrd	r2, [r3]
 3409              		.loc 1 290 7 discriminator 3
 3410 240a 80EA0204 		eor	r4, r0, r2
 3411 240e C7F86842 		str	r4, [r7, #616]
 3412 2412 4B40     		eors	r3, r3, r1
 3413 2414 C7F86C32 		str	r3, [r7, #620]
 3414 2418 D7E99A34 		ldrd	r3, [r7, #616]
 3415 241c 07F52762 		add	r2, r7, #2672
 3416 2420 C2E90034 		strd	r3, [r2]
 291:shake.c       **** 		tt3 = A[ 7] ^ A[ 5];
 3417              		.loc 1 291 10 discriminator 3
 3418 2424 D7F8FC39 		ldr	r3, [r7, #2556]
 3419 2428 3833     		adds	r3, r3, #56
 3420 242a D3E90001 		ldrd	r0, [r3]
 3421              		.loc 1 291 18 discriminator 3
 3422 242e D7F8FC39 		ldr	r3, [r7, #2556]
 3423 2432 2833     		adds	r3, r3, #40
 3424 2434 D3E90023 		ldrd	r2, [r3]
 3425              		.loc 1 291 7 discriminator 3
 3426 2438 80EA0204 		eor	r4, r0, r2
 3427 243c C7F86042 		str	r4, [r7, #608]
 3428 2440 4B40     		eors	r3, r3, r1
 3429 2442 C7F86432 		str	r3, [r7, #612]
 3430 2446 D7E99834 		ldrd	r3, [r7, #608]
 3431 244a 07F66822 		addw	r2, r7, #2664
 3432 244e C2E90034 		strd	r3, [r2]
 292:shake.c       **** 		tt0 ^= A[ 8];
 3433              		.loc 1 292 11 discriminator 3
 3434 2452 D7F8FC39 		ldr	r3, [r7, #2556]
 3435 2456 4033     		adds	r3, r3, #64
 3436 2458 D3E90001 		ldrd	r0, [r3]
 3437              		.loc 1 292 7 discriminator 3
 3438 245c 07F52863 		add	r3, r7, #2688
 3439 2460 D3E90023 		ldrd	r2, [r3]
 3440 2464 82EA0004 		eor	r4, r2, r0
 3441 2468 C7F85842 		str	r4, [r7, #600]
 3442 246c 4B40     		eors	r3, r3, r1
 3443 246e C7F85C32 		str	r3, [r7, #604]
 3444 2472 D7E99634 		ldrd	r3, [r7, #600]
 3445 2476 07F52862 		add	r2, r7, #2688
 3446 247a C2E90034 		strd	r3, [r2]
 293:shake.c       **** 		tt2 ^= tt3;
 3447              		.loc 1 293 7 discriminator 3
 3448 247e 07F52763 		add	r3, r7, #2672
 3449 2482 D3E90001 		ldrd	r0, [r3]
 3450 2486 07F66823 		addw	r3, r7, #2664
 3451 248a D3E90023 		ldrd	r2, [r3]
 3452 248e 80EA0204 		eor	r4, r0, r2
 3453 2492 C7F85042 		str	r4, [r7, #592]
 3454 2496 4B40     		eors	r3, r3, r1
 3455 2498 C7F85432 		str	r3, [r7, #596]
 3456 249c D7E99434 		ldrd	r3, [r7, #592]
 3457 24a0 07F52762 		add	r2, r7, #2672
 3458 24a4 C2E90034 		strd	r3, [r2]
 294:shake.c       **** 		t2 = tt0 ^ tt2;
 3459              		.loc 1 294 6 discriminator 3
 3460 24a8 07F52863 		add	r3, r7, #2688
 3461 24ac D3E90001 		ldrd	r0, [r3]
 3462 24b0 07F52763 		add	r3, r7, #2672
 3463 24b4 D3E90023 		ldrd	r2, [r3]
 3464 24b8 80EA0204 		eor	r4, r0, r2
 3465 24bc C7F84842 		str	r4, [r7, #584]
 3466 24c0 4B40     		eors	r3, r3, r1
 3467 24c2 C7F84C32 		str	r3, [r7, #588]
 3468 24c6 D7E99234 		ldrd	r3, [r7, #584]
 3469 24ca 07F52562 		add	r2, r7, #2640
 3470 24ce C2E90034 		strd	r3, [r2]
 295:shake.c       **** 
 296:shake.c       **** 		tt0 = A[24] ^ A[22];
 3471              		.loc 1 296 10 discriminator 3
 3472 24d2 D7F8FC39 		ldr	r3, [r7, #2556]
 3473 24d6 C033     		adds	r3, r3, #192
 3474 24d8 D3E90001 		ldrd	r0, [r3]
 3475              		.loc 1 296 18 discriminator 3
 3476 24dc D7F8FC39 		ldr	r3, [r7, #2556]
 3477 24e0 B033     		adds	r3, r3, #176
 3478 24e2 D3E90023 		ldrd	r2, [r3]
 3479              		.loc 1 296 7 discriminator 3
 3480 24e6 80EA0204 		eor	r4, r0, r2
 3481 24ea C7F84042 		str	r4, [r7, #576]
 3482 24ee 4B40     		eors	r3, r3, r1
 3483 24f0 C7F84432 		str	r3, [r7, #580]
 3484 24f4 D7E99034 		ldrd	r3, [r7, #576]
 3485 24f8 07F52862 		add	r2, r7, #2688
 3486 24fc C2E90034 		strd	r3, [r2]
 297:shake.c       **** 		tt1 = A[20] ^ A[23];
 3487              		.loc 1 297 10 discriminator 3
 3488 2500 D7F8FC39 		ldr	r3, [r7, #2556]
 3489 2504 A033     		adds	r3, r3, #160
 3490 2506 D3E90001 		ldrd	r0, [r3]
 3491              		.loc 1 297 18 discriminator 3
 3492 250a D7F8FC39 		ldr	r3, [r7, #2556]
 3493 250e B833     		adds	r3, r3, #184
 3494 2510 D3E90023 		ldrd	r2, [r3]
 3495              		.loc 1 297 7 discriminator 3
 3496 2514 80EA0204 		eor	r4, r0, r2
 3497 2518 C7F83842 		str	r4, [r7, #568]
 3498 251c 4B40     		eors	r3, r3, r1
 3499 251e C7F83C32 		str	r3, [r7, #572]
 3500 2522 D7E98E34 		ldrd	r3, [r7, #568]
 3501 2526 07F67822 		addw	r2, r7, #2680
 3502 252a C2E90034 		strd	r3, [r2]
 298:shake.c       **** 		tt0 ^= A[21] ^ tt1;
 3503              		.loc 1 298 11 discriminator 3
 3504 252e D7F8FC39 		ldr	r3, [r7, #2556]
 3505 2532 A833     		adds	r3, r3, #168
 3506 2534 D3E90001 		ldrd	r0, [r3]
 3507              		.loc 1 298 16 discriminator 3
 3508 2538 07F67823 		addw	r3, r7, #2680
 3509 253c D3E90023 		ldrd	r2, [r3]
 3510 2540 80EA0204 		eor	r4, r0, r2
 3511 2544 C7F80848 		str	r4, [r7, #2056]
 3512 2548 4B40     		eors	r3, r3, r1
 3513 254a C7F80C38 		str	r3, [r7, #2060]
 3514              		.loc 1 298 7 discriminator 3
 3515 254e 07F52863 		add	r3, r7, #2688
 3516 2552 D3E90023 		ldrd	r2, [r3]
 3517 2556 07F60801 		addw	r1, r7, #2056
 3518 255a D1E90001 		ldrd	r0, [r1]
 3519 255e 0446     		mov	r4, r0
 3520 2560 5440     		eors	r4, r4, r2
 3521 2562 C7F83042 		str	r4, [r7, #560]
 3522 2566 4B40     		eors	r3, r3, r1
 3523 2568 C7F83432 		str	r3, [r7, #564]
 3524 256c D7E98C34 		ldrd	r3, [r7, #560]
 3525 2570 07F52862 		add	r2, r7, #2688
 3526 2574 C2E90034 		strd	r3, [r2]
 299:shake.c       **** 		tt0 = (tt0 << 1) | (tt0 >> 63);
 3527              		.loc 1 299 7 discriminator 3
 3528 2578 D7F8803A 		ldr	r3, [r7, #2688]
 3529 257c DA0F     		lsrs	r2, r3, #31
 3530 257e D7F8843A 		ldr	r3, [r7, #2692]
 3531 2582 5B00     		lsls	r3, r3, #1
 3532 2584 1343     		orrs	r3, r3, r2
 3533 2586 C7F82C32 		str	r3, [r7, #556]
 3534 258a D7F8843A 		ldr	r3, [r7, #2692]
 3535 258e DA0F     		lsrs	r2, r3, #31
 3536 2590 D7F8803A 		ldr	r3, [r7, #2688]
 3537 2594 5B00     		lsls	r3, r3, #1
 3538 2596 1343     		orrs	r3, r3, r2
 3539 2598 C7F82832 		str	r3, [r7, #552]
 3540 259c D7E98A34 		ldrd	r3, [r7, #552]
 3541 25a0 07F52862 		add	r2, r7, #2688
 3542 25a4 C2E90034 		strd	r3, [r2]
 300:shake.c       **** 		tt2 = A[12] ^ A[10];
 3543              		.loc 1 300 10 discriminator 3
 3544 25a8 D7F8FC39 		ldr	r3, [r7, #2556]
 3545 25ac 6033     		adds	r3, r3, #96
 3546 25ae D3E90001 		ldrd	r0, [r3]
 3547              		.loc 1 300 18 discriminator 3
 3548 25b2 D7F8FC39 		ldr	r3, [r7, #2556]
 3549 25b6 5033     		adds	r3, r3, #80
 3550 25b8 D3E90023 		ldrd	r2, [r3]
 3551              		.loc 1 300 7 discriminator 3
 3552 25bc 80EA0204 		eor	r4, r0, r2
 3553 25c0 C7F82042 		str	r4, [r7, #544]
 3554 25c4 4B40     		eors	r3, r3, r1
 3555 25c6 C7F82432 		str	r3, [r7, #548]
 3556 25ca D7E98834 		ldrd	r3, [r7, #544]
 3557 25ce 07F52762 		add	r2, r7, #2672
 3558 25d2 C2E90034 		strd	r3, [r2]
 301:shake.c       **** 		tt3 = A[13] ^ A[11];
 3559              		.loc 1 301 10 discriminator 3
 3560 25d6 D7F8FC39 		ldr	r3, [r7, #2556]
 3561 25da 6833     		adds	r3, r3, #104
 3562 25dc D3E90001 		ldrd	r0, [r3]
 3563              		.loc 1 301 18 discriminator 3
 3564 25e0 D7F8FC39 		ldr	r3, [r7, #2556]
 3565 25e4 5833     		adds	r3, r3, #88
 3566 25e6 D3E90023 		ldrd	r2, [r3]
 3567              		.loc 1 301 7 discriminator 3
 3568 25ea 80EA0204 		eor	r4, r0, r2
 3569 25ee C7F81842 		str	r4, [r7, #536]
 3570 25f2 4B40     		eors	r3, r3, r1
 3571 25f4 C7F81C32 		str	r3, [r7, #540]
 3572 25f8 D7E98634 		ldrd	r3, [r7, #536]
 3573 25fc 07F66822 		addw	r2, r7, #2664
 3574 2600 C2E90034 		strd	r3, [r2]
 302:shake.c       **** 		tt0 ^= A[14];
 3575              		.loc 1 302 11 discriminator 3
 3576 2604 D7F8FC39 		ldr	r3, [r7, #2556]
 3577 2608 7033     		adds	r3, r3, #112
 3578 260a D3E90001 		ldrd	r0, [r3]
 3579              		.loc 1 302 7 discriminator 3
 3580 260e 07F52863 		add	r3, r7, #2688
 3581 2612 D3E90023 		ldrd	r2, [r3]
 3582 2616 82EA0004 		eor	r4, r2, r0
 3583 261a C7F81042 		str	r4, [r7, #528]
 3584 261e 4B40     		eors	r3, r3, r1
 3585 2620 C7F81432 		str	r3, [r7, #532]
 3586 2624 D7E98434 		ldrd	r3, [r7, #528]
 3587 2628 07F52862 		add	r2, r7, #2688
 3588 262c C2E90034 		strd	r3, [r2]
 303:shake.c       **** 		tt2 ^= tt3;
 3589              		.loc 1 303 7 discriminator 3
 3590 2630 07F52763 		add	r3, r7, #2672
 3591 2634 D3E90001 		ldrd	r0, [r3]
 3592 2638 07F66823 		addw	r3, r7, #2664
 3593 263c D3E90023 		ldrd	r2, [r3]
 3594 2640 80EA0204 		eor	r4, r0, r2
 3595 2644 C7F80842 		str	r4, [r7, #520]
 3596 2648 4B40     		eors	r3, r3, r1
 3597 264a C7F80C32 		str	r3, [r7, #524]
 3598 264e D7E98234 		ldrd	r3, [r7, #520]
 3599 2652 07F52762 		add	r2, r7, #2672
 3600 2656 C2E90034 		strd	r3, [r2]
 304:shake.c       **** 		t3 = tt0 ^ tt2;
 3601              		.loc 1 304 6 discriminator 3
 3602 265a 07F52863 		add	r3, r7, #2688
 3603 265e D3E90001 		ldrd	r0, [r3]
 3604 2662 07F52763 		add	r3, r7, #2672
 3605 2666 D3E90023 		ldrd	r2, [r3]
 3606 266a 80EA0204 		eor	r4, r0, r2
 3607 266e C7F80042 		str	r4, [r7, #512]
 3608 2672 4B40     		eors	r3, r3, r1
 3609 2674 C7F80432 		str	r3, [r7, #516]
 3610 2678 D7E98034 		ldrd	r3, [r7, #512]
 3611 267c 07F64822 		addw	r2, r7, #2632
 3612 2680 C2E90034 		strd	r3, [r2]
 305:shake.c       **** 
 306:shake.c       **** 		tt0 = A[ 0] ^ A[ 3];
 3613              		.loc 1 306 10 discriminator 3
 3614 2684 D7F8FC39 		ldr	r3, [r7, #2556]
 3615 2688 D3E90001 		ldrd	r0, [r3]
 3616              		.loc 1 306 18 discriminator 3
 3617 268c D7F8FC39 		ldr	r3, [r7, #2556]
 3618 2690 1833     		adds	r3, r3, #24
 3619 2692 D3E90023 		ldrd	r2, [r3]
 3620              		.loc 1 306 7 discriminator 3
 3621 2696 80EA0204 		eor	r4, r0, r2
 3622 269a C7F8F841 		str	r4, [r7, #504]
 3623 269e 4B40     		eors	r3, r3, r1
 3624 26a0 C7F8FC31 		str	r3, [r7, #508]
 3625 26a4 D7E97E34 		ldrd	r3, [r7, #504]
 3626 26a8 07F52862 		add	r2, r7, #2688
 3627 26ac C2E90034 		strd	r3, [r2]
 307:shake.c       **** 		tt1 = A[ 1] ^ A[ 4];
 3628              		.loc 1 307 10 discriminator 3
 3629 26b0 D7F8FC39 		ldr	r3, [r7, #2556]
 3630 26b4 0833     		adds	r3, r3, #8
 3631 26b6 D3E90001 		ldrd	r0, [r3]
 3632              		.loc 1 307 18 discriminator 3
 3633 26ba D7F8FC39 		ldr	r3, [r7, #2556]
 3634 26be 2033     		adds	r3, r3, #32
 3635 26c0 D3E90023 		ldrd	r2, [r3]
 3636              		.loc 1 307 7 discriminator 3
 3637 26c4 80EA0204 		eor	r4, r0, r2
 3638 26c8 C7F8F041 		str	r4, [r7, #496]
 3639 26cc 4B40     		eors	r3, r3, r1
 3640 26ce C7F8F431 		str	r3, [r7, #500]
 3641 26d2 D7E97C34 		ldrd	r3, [r7, #496]
 3642 26d6 07F67822 		addw	r2, r7, #2680
 3643 26da C2E90034 		strd	r3, [r2]
 308:shake.c       **** 		tt0 ^= A[ 2] ^ tt1;
 3644              		.loc 1 308 11 discriminator 3
 3645 26de D7F8FC39 		ldr	r3, [r7, #2556]
 3646 26e2 1033     		adds	r3, r3, #16
 3647 26e4 D3E90001 		ldrd	r0, [r3]
 3648              		.loc 1 308 16 discriminator 3
 3649 26e8 07F67823 		addw	r3, r7, #2680
 3650 26ec D3E90023 		ldrd	r2, [r3]
 3651 26f0 80EA0204 		eor	r4, r0, r2
 3652 26f4 C7F80048 		str	r4, [r7, #2048]
 3653 26f8 4B40     		eors	r3, r3, r1
 3654 26fa C7F80438 		str	r3, [r7, #2052]
 3655              		.loc 1 308 7 discriminator 3
 3656 26fe 07F52863 		add	r3, r7, #2688
 3657 2702 D3E90023 		ldrd	r2, [r3]
 3658 2706 07F50061 		add	r1, r7, #2048
 3659 270a D1E90001 		ldrd	r0, [r1]
 3660 270e 0446     		mov	r4, r0
 3661 2710 5440     		eors	r4, r4, r2
 3662 2712 C7F8E841 		str	r4, [r7, #488]
 3663 2716 4B40     		eors	r3, r3, r1
 3664 2718 C7F8EC31 		str	r3, [r7, #492]
 3665 271c D7E97A34 		ldrd	r3, [r7, #488]
 3666 2720 07F52862 		add	r2, r7, #2688
 3667 2724 C2E90034 		strd	r3, [r2]
 309:shake.c       **** 		tt0 = (tt0 << 1) | (tt0 >> 63);
 3668              		.loc 1 309 7 discriminator 3
 3669 2728 D7F8803A 		ldr	r3, [r7, #2688]
 3670 272c DA0F     		lsrs	r2, r3, #31
 3671 272e D7F8843A 		ldr	r3, [r7, #2692]
 3672 2732 5B00     		lsls	r3, r3, #1
 3673 2734 1343     		orrs	r3, r3, r2
 3674 2736 C7F8E431 		str	r3, [r7, #484]
 3675 273a D7F8843A 		ldr	r3, [r7, #2692]
 3676 273e DA0F     		lsrs	r2, r3, #31
 3677 2740 D7F8803A 		ldr	r3, [r7, #2688]
 3678 2744 5B00     		lsls	r3, r3, #1
 3679 2746 1343     		orrs	r3, r3, r2
 3680 2748 C7F8E031 		str	r3, [r7, #480]
 3681 274c D7E97834 		ldrd	r3, [r7, #480]
 3682 2750 07F52862 		add	r2, r7, #2688
 3683 2754 C2E90034 		strd	r3, [r2]
 310:shake.c       **** 		tt2 = A[18] ^ A[16];
 3684              		.loc 1 310 10 discriminator 3
 3685 2758 D7F8FC39 		ldr	r3, [r7, #2556]
 3686 275c 9033     		adds	r3, r3, #144
 3687 275e D3E90001 		ldrd	r0, [r3]
 3688              		.loc 1 310 18 discriminator 3
 3689 2762 D7F8FC39 		ldr	r3, [r7, #2556]
 3690 2766 8033     		adds	r3, r3, #128
 3691 2768 D3E90023 		ldrd	r2, [r3]
 3692              		.loc 1 310 7 discriminator 3
 3693 276c 80EA0204 		eor	r4, r0, r2
 3694 2770 C7F8D841 		str	r4, [r7, #472]
 3695 2774 4B40     		eors	r3, r3, r1
 3696 2776 C7F8DC31 		str	r3, [r7, #476]
 3697 277a D7E97634 		ldrd	r3, [r7, #472]
 3698 277e 07F52762 		add	r2, r7, #2672
 3699 2782 C2E90034 		strd	r3, [r2]
 311:shake.c       **** 		tt3 = A[19] ^ A[17];
 3700              		.loc 1 311 10 discriminator 3
 3701 2786 D7F8FC39 		ldr	r3, [r7, #2556]
 3702 278a 9833     		adds	r3, r3, #152
 3703 278c D3E90001 		ldrd	r0, [r3]
 3704              		.loc 1 311 18 discriminator 3
 3705 2790 D7F8FC39 		ldr	r3, [r7, #2556]
 3706 2794 8833     		adds	r3, r3, #136
 3707 2796 D3E90023 		ldrd	r2, [r3]
 3708              		.loc 1 311 7 discriminator 3
 3709 279a 80EA0204 		eor	r4, r0, r2
 3710 279e C7F8D041 		str	r4, [r7, #464]
 3711 27a2 4B40     		eors	r3, r3, r1
 3712 27a4 C7F8D431 		str	r3, [r7, #468]
 3713 27a8 D7E97434 		ldrd	r3, [r7, #464]
 3714 27ac 07F66822 		addw	r2, r7, #2664
 3715 27b0 C2E90034 		strd	r3, [r2]
 312:shake.c       **** 		tt0 ^= A[15];
 3716              		.loc 1 312 11 discriminator 3
 3717 27b4 D7F8FC39 		ldr	r3, [r7, #2556]
 3718 27b8 7833     		adds	r3, r3, #120
 3719 27ba D3E90001 		ldrd	r0, [r3]
 3720              		.loc 1 312 7 discriminator 3
 3721 27be 07F52863 		add	r3, r7, #2688
 3722 27c2 D3E90023 		ldrd	r2, [r3]
 3723 27c6 82EA0004 		eor	r4, r2, r0
 3724 27ca C7F8C841 		str	r4, [r7, #456]
 3725 27ce 4B40     		eors	r3, r3, r1
 3726 27d0 C7F8CC31 		str	r3, [r7, #460]
 3727 27d4 D7E97234 		ldrd	r3, [r7, #456]
 3728 27d8 07F52862 		add	r2, r7, #2688
 3729 27dc C2E90034 		strd	r3, [r2]
 313:shake.c       **** 		tt2 ^= tt3;
 3730              		.loc 1 313 7 discriminator 3
 3731 27e0 07F52763 		add	r3, r7, #2672
 3732 27e4 D3E90001 		ldrd	r0, [r3]
 3733 27e8 07F66823 		addw	r3, r7, #2664
 3734 27ec D3E90023 		ldrd	r2, [r3]
 3735 27f0 80EA0204 		eor	r4, r0, r2
 3736 27f4 C7F8C041 		str	r4, [r7, #448]
 3737 27f8 4B40     		eors	r3, r3, r1
 3738 27fa C7F8C431 		str	r3, [r7, #452]
 3739 27fe D7E97034 		ldrd	r3, [r7, #448]
 3740 2802 07F52762 		add	r2, r7, #2672
 3741 2806 C2E90034 		strd	r3, [r2]
 314:shake.c       **** 		t4 = tt0 ^ tt2;
 3742              		.loc 1 314 6 discriminator 3
 3743 280a 07F52863 		add	r3, r7, #2688
 3744 280e D3E90001 		ldrd	r0, [r3]
 3745 2812 07F52763 		add	r3, r7, #2672
 3746 2816 D3E90023 		ldrd	r2, [r3]
 3747 281a 80EA0204 		eor	r4, r0, r2
 3748 281e C7F8B841 		str	r4, [r7, #440]
 3749 2822 4B40     		eors	r3, r3, r1
 3750 2824 C7F8BC31 		str	r3, [r7, #444]
 3751 2828 D7E96E34 		ldrd	r3, [r7, #440]
 3752 282c 07F52462 		add	r2, r7, #2624
 3753 2830 C2E90034 		strd	r3, [r2]
 315:shake.c       **** 
 316:shake.c       **** 		A[ 0] = A[ 0] ^ t0;
 3754              		.loc 1 316 12 discriminator 3
 3755 2834 D7F8FC39 		ldr	r3, [r7, #2556]
 3756 2838 D3E90001 		ldrd	r0, [r3]
 3757              		.loc 1 316 17 discriminator 3
 3758 283c 07F52663 		add	r3, r7, #2656
 3759 2840 D3E90023 		ldrd	r2, [r3]
 3760 2844 80EA0204 		eor	r4, r0, r2
 3761 2848 C7F8F847 		str	r4, [r7, #2040]
 3762 284c 4B40     		eors	r3, r3, r1
 3763 284e C7F8FC37 		str	r3, [r7, #2044]
 3764              		.loc 1 316 9 discriminator 3
 3765 2852 D7F8FC39 		ldr	r3, [r7, #2556]
 3766 2856 07F5FF62 		add	r2, r7, #2040
 3767 285a D2E90012 		ldrd	r1, [r2]
 3768 285e C3E90012 		strd	r1, [r3]
 317:shake.c       **** 		A[ 3] = A[ 3] ^ t0;
 3769              		.loc 1 317 12 discriminator 3
 3770 2862 D7F8FC39 		ldr	r3, [r7, #2556]
 3771 2866 1833     		adds	r3, r3, #24
 3772 2868 D3E90001 		ldrd	r0, [r3]
 3773              		.loc 1 317 4 discriminator 3
 3774 286c D7F8FC39 		ldr	r3, [r7, #2556]
 3775 2870 03F11804 		add	r4, r3, #24
 3776              		.loc 1 317 17 discriminator 3
 3777 2874 07F52663 		add	r3, r7, #2656
 3778 2878 D3E90023 		ldrd	r2, [r3]
 3779 287c 80EA0205 		eor	r5, r0, r2
 3780 2880 C7F8F057 		str	r5, [r7, #2032]
 3781 2884 4B40     		eors	r3, r3, r1
 3782 2886 C7F8F437 		str	r3, [r7, #2036]
 3783              		.loc 1 317 9 discriminator 3
 3784 288a 07F5FE63 		add	r3, r7, #2032
 3785 288e D3E90023 		ldrd	r2, [r3]
 3786 2892 C4E90023 		strd	r2, [r4]
 318:shake.c       **** 		A[ 1] = A[ 1] ^ t0;
 3787              		.loc 1 318 12 discriminator 3
 3788 2896 D7F8FC39 		ldr	r3, [r7, #2556]
 3789 289a 0833     		adds	r3, r3, #8
 3790 289c D3E90001 		ldrd	r0, [r3]
 3791              		.loc 1 318 4 discriminator 3
 3792 28a0 D7F8FC39 		ldr	r3, [r7, #2556]
 3793 28a4 03F10804 		add	r4, r3, #8
 3794              		.loc 1 318 17 discriminator 3
 3795 28a8 07F52663 		add	r3, r7, #2656
 3796 28ac D3E90023 		ldrd	r2, [r3]
 3797 28b0 80EA0205 		eor	r5, r0, r2
 3798 28b4 C7F8E857 		str	r5, [r7, #2024]
 3799 28b8 4B40     		eors	r3, r3, r1
 3800 28ba C7F8EC37 		str	r3, [r7, #2028]
 3801              		.loc 1 318 9 discriminator 3
 3802 28be 07F5FD63 		add	r3, r7, #2024
 3803 28c2 D3E90023 		ldrd	r2, [r3]
 3804 28c6 C4E90023 		strd	r2, [r4]
 319:shake.c       **** 		A[ 4] = A[ 4] ^ t0;
 3805              		.loc 1 319 12 discriminator 3
 3806 28ca D7F8FC39 		ldr	r3, [r7, #2556]
 3807 28ce 2033     		adds	r3, r3, #32
 3808 28d0 D3E90001 		ldrd	r0, [r3]
 3809              		.loc 1 319 4 discriminator 3
 3810 28d4 D7F8FC39 		ldr	r3, [r7, #2556]
 3811 28d8 03F12004 		add	r4, r3, #32
 3812              		.loc 1 319 17 discriminator 3
 3813 28dc 07F52663 		add	r3, r7, #2656
 3814 28e0 D3E90023 		ldrd	r2, [r3]
 3815 28e4 80EA0205 		eor	r5, r0, r2
 3816 28e8 C7F8E057 		str	r5, [r7, #2016]
 3817 28ec 4B40     		eors	r3, r3, r1
 3818 28ee C7F8E437 		str	r3, [r7, #2020]
 3819              		.loc 1 319 9 discriminator 3
 3820 28f2 07F5FC63 		add	r3, r7, #2016
 3821 28f6 D3E90023 		ldrd	r2, [r3]
 3822 28fa C4E90023 		strd	r2, [r4]
 320:shake.c       **** 		A[ 2] = A[ 2] ^ t0;
 3823              		.loc 1 320 12 discriminator 3
 3824 28fe D7F8FC39 		ldr	r3, [r7, #2556]
 3825 2902 1033     		adds	r3, r3, #16
 3826 2904 D3E90001 		ldrd	r0, [r3]
 3827              		.loc 1 320 4 discriminator 3
 3828 2908 D7F8FC39 		ldr	r3, [r7, #2556]
 3829 290c 03F11004 		add	r4, r3, #16
 3830              		.loc 1 320 17 discriminator 3
 3831 2910 07F52663 		add	r3, r7, #2656
 3832 2914 D3E90023 		ldrd	r2, [r3]
 3833 2918 80EA0205 		eor	r5, r0, r2
 3834 291c C7F8D857 		str	r5, [r7, #2008]
 3835 2920 4B40     		eors	r3, r3, r1
 3836 2922 C7F8DC37 		str	r3, [r7, #2012]
 3837              		.loc 1 320 9 discriminator 3
 3838 2926 07F5FB63 		add	r3, r7, #2008
 3839 292a D3E90023 		ldrd	r2, [r3]
 3840 292e C4E90023 		strd	r2, [r4]
 321:shake.c       **** 		A[ 6] = A[ 6] ^ t1;
 3841              		.loc 1 321 12 discriminator 3
 3842 2932 D7F8FC39 		ldr	r3, [r7, #2556]
 3843 2936 3033     		adds	r3, r3, #48
 3844 2938 D3E90001 		ldrd	r0, [r3]
 3845              		.loc 1 321 4 discriminator 3
 3846 293c D7F8FC39 		ldr	r3, [r7, #2556]
 3847 2940 03F13004 		add	r4, r3, #48
 3848              		.loc 1 321 17 discriminator 3
 3849 2944 07F65823 		addw	r3, r7, #2648
 3850 2948 D3E90023 		ldrd	r2, [r3]
 3851 294c 80EA0205 		eor	r5, r0, r2
 3852 2950 C7F8D057 		str	r5, [r7, #2000]
 3853 2954 4B40     		eors	r3, r3, r1
 3854 2956 C7F8D437 		str	r3, [r7, #2004]
 3855              		.loc 1 321 9 discriminator 3
 3856 295a 07F5FA63 		add	r3, r7, #2000
 3857 295e D3E90023 		ldrd	r2, [r3]
 3858 2962 C4E90023 		strd	r2, [r4]
 322:shake.c       **** 		A[ 9] = A[ 9] ^ t1;
 3859              		.loc 1 322 12 discriminator 3
 3860 2966 D7F8FC39 		ldr	r3, [r7, #2556]
 3861 296a 4833     		adds	r3, r3, #72
 3862 296c D3E90001 		ldrd	r0, [r3]
 3863              		.loc 1 322 4 discriminator 3
 3864 2970 D7F8FC39 		ldr	r3, [r7, #2556]
 3865 2974 03F14804 		add	r4, r3, #72
 3866              		.loc 1 322 17 discriminator 3
 3867 2978 07F65823 		addw	r3, r7, #2648
 3868 297c D3E90023 		ldrd	r2, [r3]
 3869 2980 80EA0205 		eor	r5, r0, r2
 3870 2984 C7F8C857 		str	r5, [r7, #1992]
 3871 2988 4B40     		eors	r3, r3, r1
 3872 298a C7F8CC37 		str	r3, [r7, #1996]
 3873              		.loc 1 322 9 discriminator 3
 3874 298e 07F5F963 		add	r3, r7, #1992
 3875 2992 D3E90023 		ldrd	r2, [r3]
 3876 2996 C4E90023 		strd	r2, [r4]
 323:shake.c       **** 		A[ 7] = A[ 7] ^ t1;
 3877              		.loc 1 323 12 discriminator 3
 3878 299a D7F8FC39 		ldr	r3, [r7, #2556]
 3879 299e 3833     		adds	r3, r3, #56
 3880 29a0 D3E90001 		ldrd	r0, [r3]
 3881              		.loc 1 323 4 discriminator 3
 3882 29a4 D7F8FC39 		ldr	r3, [r7, #2556]
 3883 29a8 03F13804 		add	r4, r3, #56
 3884              		.loc 1 323 17 discriminator 3
 3885 29ac 07F65823 		addw	r3, r7, #2648
 3886 29b0 D3E90023 		ldrd	r2, [r3]
 3887 29b4 80EA0205 		eor	r5, r0, r2
 3888 29b8 C7F8C057 		str	r5, [r7, #1984]
 3889 29bc 4B40     		eors	r3, r3, r1
 3890 29be C7F8C437 		str	r3, [r7, #1988]
 3891              		.loc 1 323 9 discriminator 3
 3892 29c2 07F5F863 		add	r3, r7, #1984
 3893 29c6 D3E90023 		ldrd	r2, [r3]
 3894 29ca C4E90023 		strd	r2, [r4]
 324:shake.c       **** 		A[ 5] = A[ 5] ^ t1;
 3895              		.loc 1 324 12 discriminator 3
 3896 29ce D7F8FC39 		ldr	r3, [r7, #2556]
 3897 29d2 2833     		adds	r3, r3, #40
 3898 29d4 D3E90001 		ldrd	r0, [r3]
 3899              		.loc 1 324 4 discriminator 3
 3900 29d8 D7F8FC39 		ldr	r3, [r7, #2556]
 3901 29dc 03F12804 		add	r4, r3, #40
 3902              		.loc 1 324 17 discriminator 3
 3903 29e0 07F65823 		addw	r3, r7, #2648
 3904 29e4 D3E90023 		ldrd	r2, [r3]
 3905 29e8 80EA0205 		eor	r5, r0, r2
 3906 29ec C7F8B857 		str	r5, [r7, #1976]
 3907 29f0 4B40     		eors	r3, r3, r1
 3908 29f2 C7F8BC37 		str	r3, [r7, #1980]
 3909              		.loc 1 324 9 discriminator 3
 3910 29f6 07F5F763 		add	r3, r7, #1976
 3911 29fa D3E90023 		ldrd	r2, [r3]
 3912 29fe C4E90023 		strd	r2, [r4]
 325:shake.c       **** 		A[ 8] = A[ 8] ^ t1;
 3913              		.loc 1 325 12 discriminator 3
 3914 2a02 D7F8FC39 		ldr	r3, [r7, #2556]
 3915 2a06 4033     		adds	r3, r3, #64
 3916 2a08 D3E90001 		ldrd	r0, [r3]
 3917              		.loc 1 325 4 discriminator 3
 3918 2a0c D7F8FC39 		ldr	r3, [r7, #2556]
 3919 2a10 03F14004 		add	r4, r3, #64
 3920              		.loc 1 325 17 discriminator 3
 3921 2a14 07F65823 		addw	r3, r7, #2648
 3922 2a18 D3E90023 		ldrd	r2, [r3]
 3923 2a1c 80EA0205 		eor	r5, r0, r2
 3924 2a20 C7F8B057 		str	r5, [r7, #1968]
 3925 2a24 4B40     		eors	r3, r3, r1
 3926 2a26 C7F8B437 		str	r3, [r7, #1972]
 3927              		.loc 1 325 9 discriminator 3
 3928 2a2a 07F5F663 		add	r3, r7, #1968
 3929 2a2e D3E90023 		ldrd	r2, [r3]
 3930 2a32 C4E90023 		strd	r2, [r4]
 326:shake.c       **** 		A[12] = A[12] ^ t2;
 3931              		.loc 1 326 12 discriminator 3
 3932 2a36 D7F8FC39 		ldr	r3, [r7, #2556]
 3933 2a3a 6033     		adds	r3, r3, #96
 3934 2a3c D3E90001 		ldrd	r0, [r3]
 3935              		.loc 1 326 4 discriminator 3
 3936 2a40 D7F8FC39 		ldr	r3, [r7, #2556]
 3937 2a44 03F16004 		add	r4, r3, #96
 3938              		.loc 1 326 17 discriminator 3
 3939 2a48 07F52563 		add	r3, r7, #2640
 3940 2a4c D3E90023 		ldrd	r2, [r3]
 3941 2a50 80EA0205 		eor	r5, r0, r2
 3942 2a54 C7F8A857 		str	r5, [r7, #1960]
 3943 2a58 4B40     		eors	r3, r3, r1
 3944 2a5a C7F8AC37 		str	r3, [r7, #1964]
 3945              		.loc 1 326 9 discriminator 3
 3946 2a5e 07F5F563 		add	r3, r7, #1960
 3947 2a62 D3E90023 		ldrd	r2, [r3]
 3948 2a66 C4E90023 		strd	r2, [r4]
 327:shake.c       **** 		A[10] = A[10] ^ t2;
 3949              		.loc 1 327 12 discriminator 3
 3950 2a6a D7F8FC39 		ldr	r3, [r7, #2556]
 3951 2a6e 5033     		adds	r3, r3, #80
 3952 2a70 D3E90001 		ldrd	r0, [r3]
 3953              		.loc 1 327 4 discriminator 3
 3954 2a74 D7F8FC39 		ldr	r3, [r7, #2556]
 3955 2a78 03F15004 		add	r4, r3, #80
 3956              		.loc 1 327 17 discriminator 3
 3957 2a7c 07F52563 		add	r3, r7, #2640
 3958 2a80 D3E90023 		ldrd	r2, [r3]
 3959 2a84 80EA0205 		eor	r5, r0, r2
 3960 2a88 C7F8A057 		str	r5, [r7, #1952]
 3961 2a8c 4B40     		eors	r3, r3, r1
 3962 2a8e C7F8A437 		str	r3, [r7, #1956]
 3963              		.loc 1 327 9 discriminator 3
 3964 2a92 07F5F463 		add	r3, r7, #1952
 3965 2a96 D3E90023 		ldrd	r2, [r3]
 3966 2a9a C4E90023 		strd	r2, [r4]
 328:shake.c       **** 		A[13] = A[13] ^ t2;
 3967              		.loc 1 328 12 discriminator 3
 3968 2a9e D7F8FC39 		ldr	r3, [r7, #2556]
 3969 2aa2 6833     		adds	r3, r3, #104
 3970 2aa4 D3E90001 		ldrd	r0, [r3]
 3971              		.loc 1 328 4 discriminator 3
 3972 2aa8 D7F8FC39 		ldr	r3, [r7, #2556]
 3973 2aac 03F16804 		add	r4, r3, #104
 3974              		.loc 1 328 17 discriminator 3
 3975 2ab0 07F52563 		add	r3, r7, #2640
 3976 2ab4 D3E90023 		ldrd	r2, [r3]
 3977 2ab8 80EA0205 		eor	r5, r0, r2
 3978 2abc C7F89857 		str	r5, [r7, #1944]
 3979 2ac0 4B40     		eors	r3, r3, r1
 3980 2ac2 C7F89C37 		str	r3, [r7, #1948]
 3981              		.loc 1 328 9 discriminator 3
 3982 2ac6 07F5F363 		add	r3, r7, #1944
 3983 2aca D3E90023 		ldrd	r2, [r3]
 3984 2ace C4E90023 		strd	r2, [r4]
 329:shake.c       **** 		A[11] = A[11] ^ t2;
 3985              		.loc 1 329 12 discriminator 3
 3986 2ad2 D7F8FC39 		ldr	r3, [r7, #2556]
 3987 2ad6 5833     		adds	r3, r3, #88
 3988 2ad8 D3E90001 		ldrd	r0, [r3]
 3989              		.loc 1 329 4 discriminator 3
 3990 2adc D7F8FC39 		ldr	r3, [r7, #2556]
 3991 2ae0 03F15804 		add	r4, r3, #88
 3992              		.loc 1 329 17 discriminator 3
 3993 2ae4 07F52563 		add	r3, r7, #2640
 3994 2ae8 D3E90023 		ldrd	r2, [r3]
 3995 2aec 80EA0205 		eor	r5, r0, r2
 3996 2af0 C7F89057 		str	r5, [r7, #1936]
 3997 2af4 4B40     		eors	r3, r3, r1
 3998 2af6 C7F89437 		str	r3, [r7, #1940]
 3999              		.loc 1 329 9 discriminator 3
 4000 2afa 07F5F263 		add	r3, r7, #1936
 4001 2afe D3E90023 		ldrd	r2, [r3]
 4002 2b02 C4E90023 		strd	r2, [r4]
 330:shake.c       **** 		A[14] = A[14] ^ t2;
 4003              		.loc 1 330 12 discriminator 3
 4004 2b06 D7F8FC39 		ldr	r3, [r7, #2556]
 4005 2b0a 7033     		adds	r3, r3, #112
 4006 2b0c D3E90001 		ldrd	r0, [r3]
 4007              		.loc 1 330 4 discriminator 3
 4008 2b10 D7F8FC39 		ldr	r3, [r7, #2556]
 4009 2b14 03F17004 		add	r4, r3, #112
 4010              		.loc 1 330 17 discriminator 3
 4011 2b18 07F52563 		add	r3, r7, #2640
 4012 2b1c D3E90023 		ldrd	r2, [r3]
 4013 2b20 80EA0205 		eor	r5, r0, r2
 4014 2b24 C7F88857 		str	r5, [r7, #1928]
 4015 2b28 4B40     		eors	r3, r3, r1
 4016 2b2a C7F88C37 		str	r3, [r7, #1932]
 4017              		.loc 1 330 9 discriminator 3
 4018 2b2e 07F5F163 		add	r3, r7, #1928
 4019 2b32 D3E90023 		ldrd	r2, [r3]
 4020 2b36 C4E90023 		strd	r2, [r4]
 331:shake.c       **** 		A[18] = A[18] ^ t3;
 4021              		.loc 1 331 12 discriminator 3
 4022 2b3a D7F8FC39 		ldr	r3, [r7, #2556]
 4023 2b3e 9033     		adds	r3, r3, #144
 4024 2b40 D3E90001 		ldrd	r0, [r3]
 4025              		.loc 1 331 4 discriminator 3
 4026 2b44 D7F8FC39 		ldr	r3, [r7, #2556]
 4027 2b48 03F19004 		add	r4, r3, #144
 4028              		.loc 1 331 17 discriminator 3
 4029 2b4c 07F64823 		addw	r3, r7, #2632
 4030 2b50 D3E90023 		ldrd	r2, [r3]
 4031 2b54 80EA0205 		eor	r5, r0, r2
 4032 2b58 C7F88057 		str	r5, [r7, #1920]
 4033 2b5c 4B40     		eors	r3, r3, r1
 4034 2b5e C7F88437 		str	r3, [r7, #1924]
 4035              		.loc 1 331 9 discriminator 3
 4036 2b62 07F5F063 		add	r3, r7, #1920
 4037 2b66 D3E90023 		ldrd	r2, [r3]
 4038 2b6a C4E90023 		strd	r2, [r4]
 332:shake.c       **** 		A[16] = A[16] ^ t3;
 4039              		.loc 1 332 12 discriminator 3
 4040 2b6e D7F8FC39 		ldr	r3, [r7, #2556]
 4041 2b72 8033     		adds	r3, r3, #128
 4042 2b74 D3E90001 		ldrd	r0, [r3]
 4043              		.loc 1 332 4 discriminator 3
 4044 2b78 D7F8FC39 		ldr	r3, [r7, #2556]
 4045 2b7c 03F18004 		add	r4, r3, #128
 4046              		.loc 1 332 17 discriminator 3
 4047 2b80 07F64823 		addw	r3, r7, #2632
 4048 2b84 D3E90023 		ldrd	r2, [r3]
 4049 2b88 80EA0205 		eor	r5, r0, r2
 4050 2b8c C7F87857 		str	r5, [r7, #1912]
 4051 2b90 4B40     		eors	r3, r3, r1
 4052 2b92 C7F87C37 		str	r3, [r7, #1916]
 4053              		.loc 1 332 9 discriminator 3
 4054 2b96 07F5EF63 		add	r3, r7, #1912
 4055 2b9a D3E90023 		ldrd	r2, [r3]
 4056 2b9e C4E90023 		strd	r2, [r4]
 333:shake.c       **** 		A[19] = A[19] ^ t3;
 4057              		.loc 1 333 12 discriminator 3
 4058 2ba2 D7F8FC39 		ldr	r3, [r7, #2556]
 4059 2ba6 9833     		adds	r3, r3, #152
 4060 2ba8 D3E90001 		ldrd	r0, [r3]
 4061              		.loc 1 333 4 discriminator 3
 4062 2bac D7F8FC39 		ldr	r3, [r7, #2556]
 4063 2bb0 03F19804 		add	r4, r3, #152
 4064              		.loc 1 333 17 discriminator 3
 4065 2bb4 07F64823 		addw	r3, r7, #2632
 4066 2bb8 D3E90023 		ldrd	r2, [r3]
 4067 2bbc 80EA0205 		eor	r5, r0, r2
 4068 2bc0 C7F87057 		str	r5, [r7, #1904]
 4069 2bc4 4B40     		eors	r3, r3, r1
 4070 2bc6 C7F87437 		str	r3, [r7, #1908]
 4071              		.loc 1 333 9 discriminator 3
 4072 2bca 07F5EE63 		add	r3, r7, #1904
 4073 2bce D3E90023 		ldrd	r2, [r3]
 4074 2bd2 C4E90023 		strd	r2, [r4]
 334:shake.c       **** 		A[17] = A[17] ^ t3;
 4075              		.loc 1 334 12 discriminator 3
 4076 2bd6 D7F8FC39 		ldr	r3, [r7, #2556]
 4077 2bda 8833     		adds	r3, r3, #136
 4078 2bdc D3E90001 		ldrd	r0, [r3]
 4079              		.loc 1 334 4 discriminator 3
 4080 2be0 D7F8FC39 		ldr	r3, [r7, #2556]
 4081 2be4 03F18804 		add	r4, r3, #136
 4082              		.loc 1 334 17 discriminator 3
 4083 2be8 07F64823 		addw	r3, r7, #2632
 4084 2bec D3E90023 		ldrd	r2, [r3]
 4085 2bf0 80EA0205 		eor	r5, r0, r2
 4086 2bf4 C7F86857 		str	r5, [r7, #1896]
 4087 2bf8 4B40     		eors	r3, r3, r1
 4088 2bfa C7F86C37 		str	r3, [r7, #1900]
 4089              		.loc 1 334 9 discriminator 3
 4090 2bfe 07F5ED63 		add	r3, r7, #1896
 4091 2c02 D3E90023 		ldrd	r2, [r3]
 4092 2c06 C4E90023 		strd	r2, [r4]
 335:shake.c       **** 		A[15] = A[15] ^ t3;
 4093              		.loc 1 335 12 discriminator 3
 4094 2c0a D7F8FC39 		ldr	r3, [r7, #2556]
 4095 2c0e 7833     		adds	r3, r3, #120
 4096 2c10 D3E90001 		ldrd	r0, [r3]
 4097              		.loc 1 335 4 discriminator 3
 4098 2c14 D7F8FC39 		ldr	r3, [r7, #2556]
 4099 2c18 03F17804 		add	r4, r3, #120
 4100              		.loc 1 335 17 discriminator 3
 4101 2c1c 07F64823 		addw	r3, r7, #2632
 4102 2c20 D3E90023 		ldrd	r2, [r3]
 4103 2c24 80EA0205 		eor	r5, r0, r2
 4104 2c28 C7F86057 		str	r5, [r7, #1888]
 4105 2c2c 4B40     		eors	r3, r3, r1
 4106 2c2e C7F86437 		str	r3, [r7, #1892]
 4107              		.loc 1 335 9 discriminator 3
 4108 2c32 07F5EC63 		add	r3, r7, #1888
 4109 2c36 D3E90023 		ldrd	r2, [r3]
 4110 2c3a C4E90023 		strd	r2, [r4]
 336:shake.c       **** 		A[24] = A[24] ^ t4;
 4111              		.loc 1 336 12 discriminator 3
 4112 2c3e D7F8FC39 		ldr	r3, [r7, #2556]
 4113 2c42 C033     		adds	r3, r3, #192
 4114 2c44 D3E90001 		ldrd	r0, [r3]
 4115              		.loc 1 336 4 discriminator 3
 4116 2c48 D7F8FC39 		ldr	r3, [r7, #2556]
 4117 2c4c 03F1C004 		add	r4, r3, #192
 4118              		.loc 1 336 17 discriminator 3
 4119 2c50 07F52463 		add	r3, r7, #2624
 4120 2c54 D3E90023 		ldrd	r2, [r3]
 4121 2c58 80EA0205 		eor	r5, r0, r2
 4122 2c5c C7F85857 		str	r5, [r7, #1880]
 4123 2c60 4B40     		eors	r3, r3, r1
 4124 2c62 C7F85C37 		str	r3, [r7, #1884]
 4125              		.loc 1 336 9 discriminator 3
 4126 2c66 07F5EB63 		add	r3, r7, #1880
 4127 2c6a D3E90023 		ldrd	r2, [r3]
 4128 2c6e C4E90023 		strd	r2, [r4]
 337:shake.c       **** 		A[22] = A[22] ^ t4;
 4129              		.loc 1 337 12 discriminator 3
 4130 2c72 D7F8FC39 		ldr	r3, [r7, #2556]
 4131 2c76 B033     		adds	r3, r3, #176
 4132 2c78 D3E90001 		ldrd	r0, [r3]
 4133              		.loc 1 337 4 discriminator 3
 4134 2c7c D7F8FC39 		ldr	r3, [r7, #2556]
 4135 2c80 03F1B004 		add	r4, r3, #176
 4136              		.loc 1 337 17 discriminator 3
 4137 2c84 07F52463 		add	r3, r7, #2624
 4138 2c88 D3E90023 		ldrd	r2, [r3]
 4139 2c8c 80EA0205 		eor	r5, r0, r2
 4140 2c90 C7F85057 		str	r5, [r7, #1872]
 4141 2c94 4B40     		eors	r3, r3, r1
 4142 2c96 C7F85437 		str	r3, [r7, #1876]
 4143              		.loc 1 337 9 discriminator 3
 4144 2c9a 07F5EA63 		add	r3, r7, #1872
 4145 2c9e D3E90023 		ldrd	r2, [r3]
 4146 2ca2 C4E90023 		strd	r2, [r4]
 338:shake.c       **** 		A[20] = A[20] ^ t4;
 4147              		.loc 1 338 12 discriminator 3
 4148 2ca6 D7F8FC39 		ldr	r3, [r7, #2556]
 4149 2caa A033     		adds	r3, r3, #160
 4150 2cac D3E90001 		ldrd	r0, [r3]
 4151              		.loc 1 338 4 discriminator 3
 4152 2cb0 D7F8FC39 		ldr	r3, [r7, #2556]
 4153 2cb4 03F1A004 		add	r4, r3, #160
 4154              		.loc 1 338 17 discriminator 3
 4155 2cb8 07F52463 		add	r3, r7, #2624
 4156 2cbc D3E90023 		ldrd	r2, [r3]
 4157 2cc0 80EA0205 		eor	r5, r0, r2
 4158 2cc4 C7F84857 		str	r5, [r7, #1864]
 4159 2cc8 4B40     		eors	r3, r3, r1
 4160 2cca C7F84C37 		str	r3, [r7, #1868]
 4161              		.loc 1 338 9 discriminator 3
 4162 2cce 07F5E963 		add	r3, r7, #1864
 4163 2cd2 D3E90023 		ldrd	r2, [r3]
 4164 2cd6 C4E90023 		strd	r2, [r4]
 339:shake.c       **** 		A[23] = A[23] ^ t4;
 4165              		.loc 1 339 12 discriminator 3
 4166 2cda D7F8FC39 		ldr	r3, [r7, #2556]
 4167 2cde B833     		adds	r3, r3, #184
 4168 2ce0 D3E90001 		ldrd	r0, [r3]
 4169              		.loc 1 339 4 discriminator 3
 4170 2ce4 D7F8FC39 		ldr	r3, [r7, #2556]
 4171 2ce8 03F1B804 		add	r4, r3, #184
 4172              		.loc 1 339 17 discriminator 3
 4173 2cec 07F52463 		add	r3, r7, #2624
 4174 2cf0 D3E90023 		ldrd	r2, [r3]
 4175 2cf4 80EA0205 		eor	r5, r0, r2
 4176 2cf8 C7F84057 		str	r5, [r7, #1856]
 4177 2cfc 4B40     		eors	r3, r3, r1
 4178 2cfe C7F84437 		str	r3, [r7, #1860]
 4179              		.loc 1 339 9 discriminator 3
 4180 2d02 07F5E863 		add	r3, r7, #1856
 4181 2d06 D3E90023 		ldrd	r2, [r3]
 4182 2d0a C4E90023 		strd	r2, [r4]
 340:shake.c       **** 		A[21] = A[21] ^ t4;
 4183              		.loc 1 340 12 discriminator 3
 4184 2d0e D7F8FC39 		ldr	r3, [r7, #2556]
 4185 2d12 A833     		adds	r3, r3, #168
 4186 2d14 D3E90001 		ldrd	r0, [r3]
 4187              		.loc 1 340 4 discriminator 3
 4188 2d18 D7F8FC39 		ldr	r3, [r7, #2556]
 4189 2d1c 03F1A804 		add	r4, r3, #168
 4190              		.loc 1 340 17 discriminator 3
 4191 2d20 07F52463 		add	r3, r7, #2624
 4192 2d24 D3E90023 		ldrd	r2, [r3]
 4193 2d28 80EA0205 		eor	r5, r0, r2
 4194 2d2c C7F83857 		str	r5, [r7, #1848]
 4195 2d30 4B40     		eors	r3, r3, r1
 4196 2d32 C7F83C37 		str	r3, [r7, #1852]
 4197              		.loc 1 340 9 discriminator 3
 4198 2d36 07F5E763 		add	r3, r7, #1848
 4199 2d3a D3E90023 		ldrd	r2, [r3]
 4200 2d3e C4E90023 		strd	r2, [r4]
 341:shake.c       **** 		A[ 3] = (A[ 3] << 36) | (A[ 3] >> (64 - 36));
 4201              		.loc 1 341 13 discriminator 3
 4202 2d42 D7F8FC39 		ldr	r3, [r7, #2556]
 4203 2d46 1833     		adds	r3, r3, #24
 4204 2d48 D3E90023 		ldrd	r2, [r3]
 4205              		.loc 1 341 4 discriminator 3
 4206 2d4c D7F8FC19 		ldr	r1, [r7, #2556]
 4207 2d50 01F11804 		add	r4, r1, #24
 4208              		.loc 1 341 25 discriminator 3
 4209 2d54 1801     		lsls	r0, r3, #4
 4210 2d56 110F     		lsrs	r1, r2, #28
 4211 2d58 0143     		orrs	r1, r1, r0
 4212 2d5a C7F83017 		str	r1, [r7, #1840]
 4213 2d5e 1101     		lsls	r1, r2, #4
 4214 2d60 1B0F     		lsrs	r3, r3, #28
 4215 2d62 0B43     		orrs	r3, r3, r1
 4216 2d64 C7F83437 		str	r3, [r7, #1844]
 4217              		.loc 1 341 9 discriminator 3
 4218 2d68 07F5E663 		add	r3, r7, #1840
 4219 2d6c D3E90023 		ldrd	r2, [r3]
 4220 2d70 C4E90023 		strd	r2, [r4]
 342:shake.c       **** 		A[ 1] = (A[ 1] <<  3) | (A[ 1] >> (64 -  3));
 4221              		.loc 1 342 13 discriminator 3
 4222 2d74 D7F8FC39 		ldr	r3, [r7, #2556]
 4223 2d78 0833     		adds	r3, r3, #8
 4224 2d7a D3E90023 		ldrd	r2, [r3]
 4225              		.loc 1 342 4 discriminator 3
 4226 2d7e D7F8FC19 		ldr	r1, [r7, #2556]
 4227 2d82 01F10804 		add	r4, r1, #8
 4228              		.loc 1 342 25 discriminator 3
 4229 2d86 500F     		lsrs	r0, r2, #29
 4230 2d88 D900     		lsls	r1, r3, #3
 4231 2d8a 0143     		orrs	r1, r1, r0
 4232 2d8c C7F82C17 		str	r1, [r7, #1836]
 4233 2d90 590F     		lsrs	r1, r3, #29
 4234 2d92 D300     		lsls	r3, r2, #3
 4235 2d94 0B43     		orrs	r3, r3, r1
 4236 2d96 C7F82837 		str	r3, [r7, #1832]
 4237              		.loc 1 342 9 discriminator 3
 4238 2d9a 07F5E563 		add	r3, r7, #1832
 4239 2d9e D3E90023 		ldrd	r2, [r3]
 4240 2da2 C4E90023 		strd	r2, [r4]
 343:shake.c       **** 		A[ 4] = (A[ 4] << 41) | (A[ 4] >> (64 - 41));
 4241              		.loc 1 343 13 discriminator 3
 4242 2da6 D7F8FC39 		ldr	r3, [r7, #2556]
 4243 2daa 2033     		adds	r3, r3, #32
 4244 2dac D3E90023 		ldrd	r2, [r3]
 4245              		.loc 1 343 4 discriminator 3
 4246 2db0 D7F8FC19 		ldr	r1, [r7, #2556]
 4247 2db4 01F12004 		add	r4, r1, #32
 4248              		.loc 1 343 25 discriminator 3
 4249 2db8 5802     		lsls	r0, r3, #9
 4250 2dba D10D     		lsrs	r1, r2, #23
 4251 2dbc 0143     		orrs	r1, r1, r0
 4252 2dbe C7F82017 		str	r1, [r7, #1824]
 4253 2dc2 5102     		lsls	r1, r2, #9
 4254 2dc4 DB0D     		lsrs	r3, r3, #23
 4255 2dc6 0B43     		orrs	r3, r3, r1
 4256 2dc8 C7F82437 		str	r3, [r7, #1828]
 4257              		.loc 1 343 9 discriminator 3
 4258 2dcc 07F5E463 		add	r3, r7, #1824
 4259 2dd0 D3E90023 		ldrd	r2, [r3]
 4260 2dd4 C4E90023 		strd	r2, [r4]
 344:shake.c       **** 		A[ 2] = (A[ 2] << 18) | (A[ 2] >> (64 - 18));
 4261              		.loc 1 344 13 discriminator 3
 4262 2dd8 D7F8FC39 		ldr	r3, [r7, #2556]
 4263 2ddc 1033     		adds	r3, r3, #16
 4264 2dde D3E90023 		ldrd	r2, [r3]
 4265              		.loc 1 344 4 discriminator 3
 4266 2de2 D7F8FC19 		ldr	r1, [r7, #2556]
 4267 2de6 01F11004 		add	r4, r1, #16
 4268              		.loc 1 344 25 discriminator 3
 4269 2dea 900B     		lsrs	r0, r2, #14
 4270 2dec 9904     		lsls	r1, r3, #18
 4271 2dee 0143     		orrs	r1, r1, r0
 4272 2df0 C7F81C17 		str	r1, [r7, #1820]
 4273 2df4 990B     		lsrs	r1, r3, #14
 4274 2df6 9304     		lsls	r3, r2, #18
 4275 2df8 0B43     		orrs	r3, r3, r1
 4276 2dfa C7F81837 		str	r3, [r7, #1816]
 4277              		.loc 1 344 9 discriminator 3
 4278 2dfe 07F5E363 		add	r3, r7, #1816
 4279 2e02 D3E90023 		ldrd	r2, [r3]
 4280 2e06 C4E90023 		strd	r2, [r4]
 345:shake.c       **** 		A[ 6] = (A[ 6] <<  1) | (A[ 6] >> (64 -  1));
 4281              		.loc 1 345 13 discriminator 3
 4282 2e0a D7F8FC39 		ldr	r3, [r7, #2556]
 4283 2e0e 3033     		adds	r3, r3, #48
 4284 2e10 D3E90023 		ldrd	r2, [r3]
 4285              		.loc 1 345 4 discriminator 3
 4286 2e14 D7F8FC19 		ldr	r1, [r7, #2556]
 4287 2e18 01F13004 		add	r4, r1, #48
 4288              		.loc 1 345 25 discriminator 3
 4289 2e1c D00F     		lsrs	r0, r2, #31
 4290 2e1e 5900     		lsls	r1, r3, #1
 4291 2e20 0143     		orrs	r1, r1, r0
 4292 2e22 C7F81417 		str	r1, [r7, #1812]
 4293 2e26 D90F     		lsrs	r1, r3, #31
 4294 2e28 5300     		lsls	r3, r2, #1
 4295 2e2a 0B43     		orrs	r3, r3, r1
 4296 2e2c C7F81037 		str	r3, [r7, #1808]
 4297              		.loc 1 345 9 discriminator 3
 4298 2e30 07F5E263 		add	r3, r7, #1808
 4299 2e34 D3E90023 		ldrd	r2, [r3]
 4300 2e38 C4E90023 		strd	r2, [r4]
 346:shake.c       **** 		A[ 9] = (A[ 9] << 44) | (A[ 9] >> (64 - 44));
 4301              		.loc 1 346 13 discriminator 3
 4302 2e3c D7F8FC39 		ldr	r3, [r7, #2556]
 4303 2e40 4833     		adds	r3, r3, #72
 4304 2e42 D3E90023 		ldrd	r2, [r3]
 4305              		.loc 1 346 4 discriminator 3
 4306 2e46 D7F8FC19 		ldr	r1, [r7, #2556]
 4307 2e4a 01F14804 		add	r4, r1, #72
 4308              		.loc 1 346 25 discriminator 3
 4309 2e4e 1803     		lsls	r0, r3, #12
 4310 2e50 110D     		lsrs	r1, r2, #20
 4311 2e52 0143     		orrs	r1, r1, r0
 4312 2e54 C7F80817 		str	r1, [r7, #1800]
 4313 2e58 1103     		lsls	r1, r2, #12
 4314 2e5a 1B0D     		lsrs	r3, r3, #20
 4315 2e5c 0B43     		orrs	r3, r3, r1
 4316 2e5e C7F80C37 		str	r3, [r7, #1804]
 4317              		.loc 1 346 9 discriminator 3
 4318 2e62 07F5E163 		add	r3, r7, #1800
 4319 2e66 D3E90023 		ldrd	r2, [r3]
 4320 2e6a C4E90023 		strd	r2, [r4]
 347:shake.c       **** 		A[ 7] = (A[ 7] << 10) | (A[ 7] >> (64 - 10));
 4321              		.loc 1 347 13 discriminator 3
 4322 2e6e D7F8FC39 		ldr	r3, [r7, #2556]
 4323 2e72 3833     		adds	r3, r3, #56
 4324 2e74 D3E90023 		ldrd	r2, [r3]
 4325              		.loc 1 347 4 discriminator 3
 4326 2e78 D7F8FC19 		ldr	r1, [r7, #2556]
 4327 2e7c 01F13804 		add	r4, r1, #56
 4328              		.loc 1 347 25 discriminator 3
 4329 2e80 900D     		lsrs	r0, r2, #22
 4330 2e82 9902     		lsls	r1, r3, #10
 4331 2e84 0143     		orrs	r1, r1, r0
 4332 2e86 C7F80417 		str	r1, [r7, #1796]
 4333 2e8a 990D     		lsrs	r1, r3, #22
 4334 2e8c 9302     		lsls	r3, r2, #10
 4335 2e8e 0B43     		orrs	r3, r3, r1
 4336 2e90 C7F80037 		str	r3, [r7, #1792]
 4337              		.loc 1 347 9 discriminator 3
 4338 2e94 07F5E063 		add	r3, r7, #1792
 4339 2e98 D3E90023 		ldrd	r2, [r3]
 4340 2e9c C4E90023 		strd	r2, [r4]
 348:shake.c       **** 		A[ 5] = (A[ 5] << 45) | (A[ 5] >> (64 - 45));
 4341              		.loc 1 348 13 discriminator 3
 4342 2ea0 D7F8FC39 		ldr	r3, [r7, #2556]
 4343 2ea4 2833     		adds	r3, r3, #40
 4344 2ea6 D3E90023 		ldrd	r2, [r3]
 4345              		.loc 1 348 4 discriminator 3
 4346 2eaa D7F8FC19 		ldr	r1, [r7, #2556]
 4347 2eae 01F12804 		add	r4, r1, #40
 4348              		.loc 1 348 25 discriminator 3
 4349 2eb2 5803     		lsls	r0, r3, #13
 4350 2eb4 D10C     		lsrs	r1, r2, #19
 4351 2eb6 0143     		orrs	r1, r1, r0
 4352 2eb8 C7F8F816 		str	r1, [r7, #1784]
 4353 2ebc 5103     		lsls	r1, r2, #13
 4354 2ebe DB0C     		lsrs	r3, r3, #19
 4355 2ec0 0B43     		orrs	r3, r3, r1
 4356 2ec2 C7F8FC36 		str	r3, [r7, #1788]
 4357              		.loc 1 348 9 discriminator 3
 4358 2ec6 07F5DF63 		add	r3, r7, #1784
 4359 2eca D3E90023 		ldrd	r2, [r3]
 4360 2ece C4E90023 		strd	r2, [r4]
 349:shake.c       **** 		A[ 8] = (A[ 8] <<  2) | (A[ 8] >> (64 - 2));
 4361              		.loc 1 349 13 discriminator 3
 4362 2ed2 D7F8FC39 		ldr	r3, [r7, #2556]
 4363 2ed6 4033     		adds	r3, r3, #64
 4364 2ed8 D3E90023 		ldrd	r2, [r3]
 4365              		.loc 1 349 4 discriminator 3
 4366 2edc D7F8FC19 		ldr	r1, [r7, #2556]
 4367 2ee0 01F14004 		add	r4, r1, #64
 4368              		.loc 1 349 25 discriminator 3
 4369 2ee4 900F     		lsrs	r0, r2, #30
 4370 2ee6 9900     		lsls	r1, r3, #2
 4371 2ee8 0143     		orrs	r1, r1, r0
 4372 2eea C7F8F416 		str	r1, [r7, #1780]
 4373 2eee 990F     		lsrs	r1, r3, #30
 4374 2ef0 9300     		lsls	r3, r2, #2
 4375 2ef2 0B43     		orrs	r3, r3, r1
 4376 2ef4 C7F8F036 		str	r3, [r7, #1776]
 4377              		.loc 1 349 9 discriminator 3
 4378 2ef8 07F5DE63 		add	r3, r7, #1776
 4379 2efc D3E90023 		ldrd	r2, [r3]
 4380 2f00 C4E90023 		strd	r2, [r4]
 350:shake.c       **** 		A[12] = (A[12] << 62) | (A[12] >> (64 - 62));
 4381              		.loc 1 350 13 discriminator 3
 4382 2f04 D7F8FC39 		ldr	r3, [r7, #2556]
 4383 2f08 6033     		adds	r3, r3, #96
 4384 2f0a D3E90023 		ldrd	r2, [r3]
 4385              		.loc 1 350 4 discriminator 3
 4386 2f0e D7F8FC19 		ldr	r1, [r7, #2556]
 4387 2f12 01F16004 		add	r4, r1, #96
 4388              		.loc 1 350 25 discriminator 3
 4389 2f16 9807     		lsls	r0, r3, #30
 4390 2f18 9108     		lsrs	r1, r2, #2
 4391 2f1a 0143     		orrs	r1, r1, r0
 4392 2f1c C7F8E816 		str	r1, [r7, #1768]
 4393 2f20 9107     		lsls	r1, r2, #30
 4394 2f22 9B08     		lsrs	r3, r3, #2
 4395 2f24 0B43     		orrs	r3, r3, r1
 4396 2f26 C7F8EC36 		str	r3, [r7, #1772]
 4397              		.loc 1 350 9 discriminator 3
 4398 2f2a 07F5DD63 		add	r3, r7, #1768
 4399 2f2e D3E90023 		ldrd	r2, [r3]
 4400 2f32 C4E90023 		strd	r2, [r4]
 351:shake.c       **** 		A[10] = (A[10] <<  6) | (A[10] >> (64 -  6));
 4401              		.loc 1 351 13 discriminator 3
 4402 2f36 D7F8FC39 		ldr	r3, [r7, #2556]
 4403 2f3a 5033     		adds	r3, r3, #80
 4404 2f3c D3E90023 		ldrd	r2, [r3]
 4405              		.loc 1 351 4 discriminator 3
 4406 2f40 D7F8FC19 		ldr	r1, [r7, #2556]
 4407 2f44 01F15004 		add	r4, r1, #80
 4408              		.loc 1 351 25 discriminator 3
 4409 2f48 900E     		lsrs	r0, r2, #26
 4410 2f4a 9901     		lsls	r1, r3, #6
 4411 2f4c 0143     		orrs	r1, r1, r0
 4412 2f4e C7F8E416 		str	r1, [r7, #1764]
 4413 2f52 990E     		lsrs	r1, r3, #26
 4414 2f54 9301     		lsls	r3, r2, #6
 4415 2f56 0B43     		orrs	r3, r3, r1
 4416 2f58 C7F8E036 		str	r3, [r7, #1760]
 4417              		.loc 1 351 9 discriminator 3
 4418 2f5c 07F5DC63 		add	r3, r7, #1760
 4419 2f60 D3E90023 		ldrd	r2, [r3]
 4420 2f64 C4E90023 		strd	r2, [r4]
 352:shake.c       **** 		A[13] = (A[13] << 43) | (A[13] >> (64 - 43));
 4421              		.loc 1 352 13 discriminator 3
 4422 2f68 D7F8FC39 		ldr	r3, [r7, #2556]
 4423 2f6c 6833     		adds	r3, r3, #104
 4424 2f6e D3E90023 		ldrd	r2, [r3]
 4425              		.loc 1 352 4 discriminator 3
 4426 2f72 D7F8FC19 		ldr	r1, [r7, #2556]
 4427 2f76 01F16804 		add	r4, r1, #104
 4428              		.loc 1 352 25 discriminator 3
 4429 2f7a D802     		lsls	r0, r3, #11
 4430 2f7c 510D     		lsrs	r1, r2, #21
 4431 2f7e 0143     		orrs	r1, r1, r0
 4432 2f80 C7F8D816 		str	r1, [r7, #1752]
 4433 2f84 D102     		lsls	r1, r2, #11
 4434 2f86 5B0D     		lsrs	r3, r3, #21
 4435 2f88 0B43     		orrs	r3, r3, r1
 4436 2f8a C7F8DC36 		str	r3, [r7, #1756]
 4437              		.loc 1 352 9 discriminator 3
 4438 2f8e 07F5DB63 		add	r3, r7, #1752
 4439 2f92 D3E90023 		ldrd	r2, [r3]
 4440 2f96 C4E90023 		strd	r2, [r4]
 353:shake.c       **** 		A[11] = (A[11] << 15) | (A[11] >> (64 - 15));
 4441              		.loc 1 353 13 discriminator 3
 4442 2f9a D7F8FC39 		ldr	r3, [r7, #2556]
 4443 2f9e 5833     		adds	r3, r3, #88
 4444 2fa0 D3E90023 		ldrd	r2, [r3]
 4445              		.loc 1 353 4 discriminator 3
 4446 2fa4 D7F8FC19 		ldr	r1, [r7, #2556]
 4447 2fa8 01F15804 		add	r4, r1, #88
 4448              		.loc 1 353 25 discriminator 3
 4449 2fac 500C     		lsrs	r0, r2, #17
 4450 2fae D903     		lsls	r1, r3, #15
 4451 2fb0 0143     		orrs	r1, r1, r0
 4452 2fb2 C7F8D416 		str	r1, [r7, #1748]
 4453 2fb6 590C     		lsrs	r1, r3, #17
 4454 2fb8 D303     		lsls	r3, r2, #15
 4455 2fba 0B43     		orrs	r3, r3, r1
 4456 2fbc C7F8D036 		str	r3, [r7, #1744]
 4457              		.loc 1 353 9 discriminator 3
 4458 2fc0 07F5DA63 		add	r3, r7, #1744
 4459 2fc4 D3E90023 		ldrd	r2, [r3]
 4460 2fc8 C4E90023 		strd	r2, [r4]
 354:shake.c       **** 		A[14] = (A[14] << 61) | (A[14] >> (64 - 61));
 4461              		.loc 1 354 13 discriminator 3
 4462 2fcc D7F8FC39 		ldr	r3, [r7, #2556]
 4463 2fd0 7033     		adds	r3, r3, #112
 4464 2fd2 D3E90023 		ldrd	r2, [r3]
 4465              		.loc 1 354 4 discriminator 3
 4466 2fd6 D7F8FC19 		ldr	r1, [r7, #2556]
 4467 2fda 01F17004 		add	r4, r1, #112
 4468              		.loc 1 354 25 discriminator 3
 4469 2fde 5807     		lsls	r0, r3, #29
 4470 2fe0 D108     		lsrs	r1, r2, #3
 4471 2fe2 0143     		orrs	r1, r1, r0
 4472 2fe4 C7F8C816 		str	r1, [r7, #1736]
 4473 2fe8 5107     		lsls	r1, r2, #29
 4474 2fea DB08     		lsrs	r3, r3, #3
 4475 2fec 0B43     		orrs	r3, r3, r1
 4476 2fee C7F8CC36 		str	r3, [r7, #1740]
 4477              		.loc 1 354 9 discriminator 3
 4478 2ff2 07F5D963 		add	r3, r7, #1736
 4479 2ff6 D3E90023 		ldrd	r2, [r3]
 4480 2ffa C4E90023 		strd	r2, [r4]
 355:shake.c       **** 		A[18] = (A[18] << 28) | (A[18] >> (64 - 28));
 4481              		.loc 1 355 13 discriminator 3
 4482 2ffe D7F8FC39 		ldr	r3, [r7, #2556]
 4483 3002 9033     		adds	r3, r3, #144
 4484 3004 D3E90023 		ldrd	r2, [r3]
 4485              		.loc 1 355 4 discriminator 3
 4486 3008 D7F8FC19 		ldr	r1, [r7, #2556]
 4487 300c 01F19004 		add	r4, r1, #144
 4488              		.loc 1 355 25 discriminator 3
 4489 3010 1009     		lsrs	r0, r2, #4
 4490 3012 1907     		lsls	r1, r3, #28
 4491 3014 0143     		orrs	r1, r1, r0
 4492 3016 C7F8C416 		str	r1, [r7, #1732]
 4493 301a 1909     		lsrs	r1, r3, #4
 4494 301c 1307     		lsls	r3, r2, #28
 4495 301e 0B43     		orrs	r3, r3, r1
 4496 3020 C7F8C036 		str	r3, [r7, #1728]
 4497              		.loc 1 355 9 discriminator 3
 4498 3024 07F5D863 		add	r3, r7, #1728
 4499 3028 D3E90023 		ldrd	r2, [r3]
 4500 302c C4E90023 		strd	r2, [r4]
 356:shake.c       **** 		A[16] = (A[16] << 55) | (A[16] >> (64 - 55));
 4501              		.loc 1 356 13 discriminator 3
 4502 3030 D7F8FC39 		ldr	r3, [r7, #2556]
 4503 3034 8033     		adds	r3, r3, #128
 4504 3036 D3E90023 		ldrd	r2, [r3]
 4505              		.loc 1 356 4 discriminator 3
 4506 303a D7F8FC19 		ldr	r1, [r7, #2556]
 4507 303e 01F18004 		add	r4, r1, #128
 4508              		.loc 1 356 25 discriminator 3
 4509 3042 D805     		lsls	r0, r3, #23
 4510 3044 510A     		lsrs	r1, r2, #9
 4511 3046 0143     		orrs	r1, r1, r0
 4512 3048 C7F8B816 		str	r1, [r7, #1720]
 4513 304c D105     		lsls	r1, r2, #23
 4514 304e 5B0A     		lsrs	r3, r3, #9
 4515 3050 0B43     		orrs	r3, r3, r1
 4516 3052 C7F8BC36 		str	r3, [r7, #1724]
 4517              		.loc 1 356 9 discriminator 3
 4518 3056 07F5D763 		add	r3, r7, #1720
 4519 305a D3E90023 		ldrd	r2, [r3]
 4520 305e C4E90023 		strd	r2, [r4]
 357:shake.c       **** 		A[19] = (A[19] << 25) | (A[19] >> (64 - 25));
 4521              		.loc 1 357 13 discriminator 3
 4522 3062 D7F8FC39 		ldr	r3, [r7, #2556]
 4523 3066 9833     		adds	r3, r3, #152
 4524 3068 D3E90023 		ldrd	r2, [r3]
 4525              		.loc 1 357 4 discriminator 3
 4526 306c D7F8FC19 		ldr	r1, [r7, #2556]
 4527 3070 01F19804 		add	r4, r1, #152
 4528              		.loc 1 357 25 discriminator 3
 4529 3074 D009     		lsrs	r0, r2, #7
 4530 3076 5906     		lsls	r1, r3, #25
 4531 3078 0143     		orrs	r1, r1, r0
 4532 307a C7F8B416 		str	r1, [r7, #1716]
 4533 307e D909     		lsrs	r1, r3, #7
 4534 3080 5306     		lsls	r3, r2, #25
 4535 3082 0B43     		orrs	r3, r3, r1
 4536 3084 C7F8B036 		str	r3, [r7, #1712]
 4537              		.loc 1 357 9 discriminator 3
 4538 3088 07F5D663 		add	r3, r7, #1712
 4539 308c D3E90023 		ldrd	r2, [r3]
 4540 3090 C4E90023 		strd	r2, [r4]
 358:shake.c       **** 		A[17] = (A[17] << 21) | (A[17] >> (64 - 21));
 4541              		.loc 1 358 13 discriminator 3
 4542 3094 D7F8FC39 		ldr	r3, [r7, #2556]
 4543 3098 8833     		adds	r3, r3, #136
 4544 309a D3E90023 		ldrd	r2, [r3]
 4545              		.loc 1 358 4 discriminator 3
 4546 309e D7F8FC19 		ldr	r1, [r7, #2556]
 4547 30a2 01F18804 		add	r4, r1, #136
 4548              		.loc 1 358 25 discriminator 3
 4549 30a6 D00A     		lsrs	r0, r2, #11
 4550 30a8 5905     		lsls	r1, r3, #21
 4551 30aa 0143     		orrs	r1, r1, r0
 4552 30ac C7F8AC16 		str	r1, [r7, #1708]
 4553 30b0 D90A     		lsrs	r1, r3, #11
 4554 30b2 5305     		lsls	r3, r2, #21
 4555 30b4 0B43     		orrs	r3, r3, r1
 4556 30b6 C7F8A836 		str	r3, [r7, #1704]
 4557              		.loc 1 358 9 discriminator 3
 4558 30ba 07F5D563 		add	r3, r7, #1704
 4559 30be D3E90023 		ldrd	r2, [r3]
 4560 30c2 C4E90023 		strd	r2, [r4]
 359:shake.c       **** 		A[15] = (A[15] << 56) | (A[15] >> (64 - 56));
 4561              		.loc 1 359 13 discriminator 3
 4562 30c6 D7F8FC39 		ldr	r3, [r7, #2556]
 4563 30ca 7833     		adds	r3, r3, #120
 4564 30cc D3E90023 		ldrd	r2, [r3]
 4565              		.loc 1 359 4 discriminator 3
 4566 30d0 D7F8FC19 		ldr	r1, [r7, #2556]
 4567 30d4 01F17804 		add	r4, r1, #120
 4568              		.loc 1 359 25 discriminator 3
 4569 30d8 1806     		lsls	r0, r3, #24
 4570 30da 110A     		lsrs	r1, r2, #8
 4571 30dc 0143     		orrs	r1, r1, r0
 4572 30de C7F8A016 		str	r1, [r7, #1696]
 4573 30e2 1106     		lsls	r1, r2, #24
 4574 30e4 1B0A     		lsrs	r3, r3, #8
 4575 30e6 0B43     		orrs	r3, r3, r1
 4576 30e8 C7F8A436 		str	r3, [r7, #1700]
 4577              		.loc 1 359 9 discriminator 3
 4578 30ec 07F5D463 		add	r3, r7, #1696
 4579 30f0 D3E90023 		ldrd	r2, [r3]
 4580 30f4 C4E90023 		strd	r2, [r4]
 360:shake.c       **** 		A[24] = (A[24] << 27) | (A[24] >> (64 - 27));
 4581              		.loc 1 360 13 discriminator 3
 4582 30f8 D7F8FC39 		ldr	r3, [r7, #2556]
 4583 30fc C033     		adds	r3, r3, #192
 4584 30fe D3E90023 		ldrd	r2, [r3]
 4585              		.loc 1 360 4 discriminator 3
 4586 3102 D7F8FC19 		ldr	r1, [r7, #2556]
 4587 3106 01F1C004 		add	r4, r1, #192
 4588              		.loc 1 360 25 discriminator 3
 4589 310a 5009     		lsrs	r0, r2, #5
 4590 310c D906     		lsls	r1, r3, #27
 4591 310e 0143     		orrs	r1, r1, r0
 4592 3110 C7F89C16 		str	r1, [r7, #1692]
 4593 3114 5909     		lsrs	r1, r3, #5
 4594 3116 D306     		lsls	r3, r2, #27
 4595 3118 0B43     		orrs	r3, r3, r1
 4596 311a C7F89836 		str	r3, [r7, #1688]
 4597              		.loc 1 360 9 discriminator 3
 4598 311e 07F5D363 		add	r3, r7, #1688
 4599 3122 D3E90023 		ldrd	r2, [r3]
 4600 3126 C4E90023 		strd	r2, [r4]
 361:shake.c       **** 		A[22] = (A[22] << 20) | (A[22] >> (64 - 20));
 4601              		.loc 1 361 13 discriminator 3
 4602 312a D7F8FC39 		ldr	r3, [r7, #2556]
 4603 312e B033     		adds	r3, r3, #176
 4604 3130 D3E90023 		ldrd	r2, [r3]
 4605              		.loc 1 361 4 discriminator 3
 4606 3134 D7F8FC19 		ldr	r1, [r7, #2556]
 4607 3138 01F1B004 		add	r4, r1, #176
 4608              		.loc 1 361 25 discriminator 3
 4609 313c 100B     		lsrs	r0, r2, #12
 4610 313e 1905     		lsls	r1, r3, #20
 4611 3140 0143     		orrs	r1, r1, r0
 4612 3142 C7F89416 		str	r1, [r7, #1684]
 4613 3146 190B     		lsrs	r1, r3, #12
 4614 3148 1305     		lsls	r3, r2, #20
 4615 314a 0B43     		orrs	r3, r3, r1
 4616 314c C7F89036 		str	r3, [r7, #1680]
 4617              		.loc 1 361 9 discriminator 3
 4618 3150 07F5D263 		add	r3, r7, #1680
 4619 3154 D3E90023 		ldrd	r2, [r3]
 4620 3158 C4E90023 		strd	r2, [r4]
 362:shake.c       **** 		A[20] = (A[20] << 39) | (A[20] >> (64 - 39));
 4621              		.loc 1 362 13 discriminator 3
 4622 315c D7F8FC39 		ldr	r3, [r7, #2556]
 4623 3160 A033     		adds	r3, r3, #160
 4624 3162 D3E90023 		ldrd	r2, [r3]
 4625              		.loc 1 362 4 discriminator 3
 4626 3166 D7F8FC19 		ldr	r1, [r7, #2556]
 4627 316a 01F1A004 		add	r4, r1, #160
 4628              		.loc 1 362 25 discriminator 3
 4629 316e D801     		lsls	r0, r3, #7
 4630 3170 510E     		lsrs	r1, r2, #25
 4631 3172 0143     		orrs	r1, r1, r0
 4632 3174 C7F88816 		str	r1, [r7, #1672]
 4633 3178 D101     		lsls	r1, r2, #7
 4634 317a 5B0E     		lsrs	r3, r3, #25
 4635 317c 0B43     		orrs	r3, r3, r1
 4636 317e C7F88C36 		str	r3, [r7, #1676]
 4637              		.loc 1 362 9 discriminator 3
 4638 3182 07F5D163 		add	r3, r7, #1672
 4639 3186 D3E90023 		ldrd	r2, [r3]
 4640 318a C4E90023 		strd	r2, [r4]
 363:shake.c       **** 		A[23] = (A[23] <<  8) | (A[23] >> (64 -  8));
 4641              		.loc 1 363 13 discriminator 3
 4642 318e D7F8FC39 		ldr	r3, [r7, #2556]
 4643 3192 B833     		adds	r3, r3, #184
 4644 3194 D3E90023 		ldrd	r2, [r3]
 4645              		.loc 1 363 4 discriminator 3
 4646 3198 D7F8FC19 		ldr	r1, [r7, #2556]
 4647 319c 01F1B804 		add	r4, r1, #184
 4648              		.loc 1 363 25 discriminator 3
 4649 31a0 100E     		lsrs	r0, r2, #24
 4650 31a2 1902     		lsls	r1, r3, #8
 4651 31a4 0143     		orrs	r1, r1, r0
 4652 31a6 C7F88416 		str	r1, [r7, #1668]
 4653 31aa 190E     		lsrs	r1, r3, #24
 4654 31ac 1302     		lsls	r3, r2, #8
 4655 31ae 0B43     		orrs	r3, r3, r1
 4656 31b0 C7F88036 		str	r3, [r7, #1664]
 4657              		.loc 1 363 9 discriminator 3
 4658 31b4 07F5D063 		add	r3, r7, #1664
 4659 31b8 D3E90023 		ldrd	r2, [r3]
 4660 31bc C4E90023 		strd	r2, [r4]
 364:shake.c       **** 		A[21] = (A[21] << 14) | (A[21] >> (64 - 14));
 4661              		.loc 1 364 13 discriminator 3
 4662 31c0 D7F8FC39 		ldr	r3, [r7, #2556]
 4663 31c4 A833     		adds	r3, r3, #168
 4664 31c6 D3E90023 		ldrd	r2, [r3]
 4665              		.loc 1 364 4 discriminator 3
 4666 31ca D7F8FC19 		ldr	r1, [r7, #2556]
 4667 31ce 01F1A804 		add	r4, r1, #168
 4668              		.loc 1 364 25 discriminator 3
 4669 31d2 900C     		lsrs	r0, r2, #18
 4670 31d4 9903     		lsls	r1, r3, #14
 4671 31d6 0143     		orrs	r1, r1, r0
 4672 31d8 C7F87C16 		str	r1, [r7, #1660]
 4673 31dc 990C     		lsrs	r1, r3, #18
 4674 31de 9303     		lsls	r3, r2, #14
 4675 31e0 0B43     		orrs	r3, r3, r1
 4676 31e2 C7F87836 		str	r3, [r7, #1656]
 4677              		.loc 1 364 9 discriminator 3
 4678 31e6 07F5CF63 		add	r3, r7, #1656
 4679 31ea D3E90023 		ldrd	r2, [r3]
 4680 31ee C4E90023 		strd	r2, [r4]
 365:shake.c       **** 
 366:shake.c       **** 		bnn = ~A[13];
 4681              		.loc 1 366 11 discriminator 3
 4682 31f2 D7F8FC39 		ldr	r3, [r7, #2556]
 4683 31f6 6833     		adds	r3, r3, #104
 4684 31f8 D3E90023 		ldrd	r2, [r3]
 4685              		.loc 1 366 7 discriminator 3
 4686 31fc D143     		mvns	r1, r2
 4687 31fe C7F8B011 		str	r1, [r7, #432]
 4688 3202 DB43     		mvns	r3, r3
 4689 3204 C7F8B431 		str	r3, [r7, #436]
 4690 3208 D7E96C34 		ldrd	r3, [r7, #432]
 4691 320c 07F63822 		addw	r2, r7, #2616
 4692 3210 C2E90034 		strd	r3, [r2]
 367:shake.c       **** 		kt = A[ 9] | A[13];
 4693              		.loc 1 367 9 discriminator 3
 4694 3214 D7F8FC39 		ldr	r3, [r7, #2556]
 4695 3218 4833     		adds	r3, r3, #72
 4696 321a D3E90001 		ldrd	r0, [r3]
 4697              		.loc 1 367 17 discriminator 3
 4698 321e D7F8FC39 		ldr	r3, [r7, #2556]
 4699 3222 6833     		adds	r3, r3, #104
 4700 3224 D3E90023 		ldrd	r2, [r3]
 4701              		.loc 1 367 6 discriminator 3
 4702 3228 40EA0204 		orr	r4, r0, r2
 4703 322c C7F8A841 		str	r4, [r7, #424]
 4704 3230 0B43     		orrs	r3, r3, r1
 4705 3232 C7F8AC31 		str	r3, [r7, #428]
 4706 3236 D7E96A34 		ldrd	r3, [r7, #424]
 4707 323a 07F52362 		add	r2, r7, #2608
 4708 323e C2E90034 		strd	r3, [r2]
 368:shake.c       **** 		c0 = A[ 0] ^ kt;
 4709              		.loc 1 368 9 discriminator 3
 4710 3242 D7F8FC39 		ldr	r3, [r7, #2556]
 4711 3246 D3E90001 		ldrd	r0, [r3]
 4712              		.loc 1 368 6 discriminator 3
 4713 324a 07F52363 		add	r3, r7, #2608
 4714 324e D3E90023 		ldrd	r2, [r3]
 4715 3252 82EA0004 		eor	r4, r2, r0
 4716 3256 C7F8A041 		str	r4, [r7, #416]
 4717 325a 4B40     		eors	r3, r3, r1
 4718 325c C7F8A431 		str	r3, [r7, #420]
 4719 3260 D7E96834 		ldrd	r3, [r7, #416]
 4720 3264 07F62822 		addw	r2, r7, #2600
 4721 3268 C2E90034 		strd	r3, [r2]
 369:shake.c       **** 		kt = bnn | A[17];
 4722              		.loc 1 369 15 discriminator 3
 4723 326c D7F8FC39 		ldr	r3, [r7, #2556]
 4724 3270 8833     		adds	r3, r3, #136
 4725 3272 D3E90001 		ldrd	r0, [r3]
 4726              		.loc 1 369 6 discriminator 3
 4727 3276 07F63823 		addw	r3, r7, #2616
 4728 327a D3E90023 		ldrd	r2, [r3]
 4729 327e 42EA0004 		orr	r4, r2, r0
 4730 3282 C7F89841 		str	r4, [r7, #408]
 4731 3286 0B43     		orrs	r3, r3, r1
 4732 3288 C7F89C31 		str	r3, [r7, #412]
 4733 328c D7E96634 		ldrd	r3, [r7, #408]
 4734 3290 07F52362 		add	r2, r7, #2608
 4735 3294 C2E90034 		strd	r3, [r2]
 370:shake.c       **** 		c1 = A[ 9] ^ kt;
 4736              		.loc 1 370 9 discriminator 3
 4737 3298 D7F8FC39 		ldr	r3, [r7, #2556]
 4738 329c 4833     		adds	r3, r3, #72
 4739 329e D3E90001 		ldrd	r0, [r3]
 4740              		.loc 1 370 6 discriminator 3
 4741 32a2 07F52363 		add	r3, r7, #2608
 4742 32a6 D3E90023 		ldrd	r2, [r3]
 4743 32aa 82EA0004 		eor	r4, r2, r0
 4744 32ae C7F89041 		str	r4, [r7, #400]
 4745 32b2 4B40     		eors	r3, r3, r1
 4746 32b4 C7F89431 		str	r3, [r7, #404]
 4747 32b8 D7E96434 		ldrd	r3, [r7, #400]
 4748 32bc 07F52262 		add	r2, r7, #2592
 4749 32c0 C2E90034 		strd	r3, [r2]
 371:shake.c       **** 		kt = A[17] & A[21];
 4750              		.loc 1 371 9 discriminator 3
 4751 32c4 D7F8FC39 		ldr	r3, [r7, #2556]
 4752 32c8 8833     		adds	r3, r3, #136
 4753 32ca D3E90001 		ldrd	r0, [r3]
 4754              		.loc 1 371 17 discriminator 3
 4755 32ce D7F8FC39 		ldr	r3, [r7, #2556]
 4756 32d2 A833     		adds	r3, r3, #168
 4757 32d4 D3E90023 		ldrd	r2, [r3]
 4758              		.loc 1 371 6 discriminator 3
 4759 32d8 00EA0204 		and	r4, r0, r2
 4760 32dc C7F88841 		str	r4, [r7, #392]
 4761 32e0 0B40     		ands	r3, r3, r1
 4762 32e2 C7F88C31 		str	r3, [r7, #396]
 4763 32e6 D7E96234 		ldrd	r3, [r7, #392]
 4764 32ea 07F52362 		add	r2, r7, #2608
 4765 32ee C2E90034 		strd	r3, [r2]
 372:shake.c       **** 		c2 = A[13] ^ kt;
 4766              		.loc 1 372 9 discriminator 3
 4767 32f2 D7F8FC39 		ldr	r3, [r7, #2556]
 4768 32f6 6833     		adds	r3, r3, #104
 4769 32f8 D3E90001 		ldrd	r0, [r3]
 4770              		.loc 1 372 6 discriminator 3
 4771 32fc 07F52363 		add	r3, r7, #2608
 4772 3300 D3E90023 		ldrd	r2, [r3]
 4773 3304 82EA0004 		eor	r4, r2, r0
 4774 3308 C7F88041 		str	r4, [r7, #384]
 4775 330c 4B40     		eors	r3, r3, r1
 4776 330e C7F88431 		str	r3, [r7, #388]
 4777 3312 D7E96034 		ldrd	r3, [r7, #384]
 4778 3316 07F61822 		addw	r2, r7, #2584
 4779 331a C2E90034 		strd	r3, [r2]
 373:shake.c       **** 		kt = A[21] | A[ 0];
 4780              		.loc 1 373 9 discriminator 3
 4781 331e D7F8FC39 		ldr	r3, [r7, #2556]
 4782 3322 A833     		adds	r3, r3, #168
 4783 3324 D3E90001 		ldrd	r0, [r3]
 4784              		.loc 1 373 17 discriminator 3
 4785 3328 D7F8FC39 		ldr	r3, [r7, #2556]
 4786 332c D3E90023 		ldrd	r2, [r3]
 4787              		.loc 1 373 6 discriminator 3
 4788 3330 40EA0204 		orr	r4, r0, r2
 4789 3334 C7F87841 		str	r4, [r7, #376]
 4790 3338 0B43     		orrs	r3, r3, r1
 4791 333a C7F87C31 		str	r3, [r7, #380]
 4792 333e D7E95E34 		ldrd	r3, [r7, #376]
 4793 3342 07F52362 		add	r2, r7, #2608
 4794 3346 C2E90034 		strd	r3, [r2]
 374:shake.c       **** 		c3 = A[17] ^ kt;
 4795              		.loc 1 374 9 discriminator 3
 4796 334a D7F8FC39 		ldr	r3, [r7, #2556]
 4797 334e 8833     		adds	r3, r3, #136
 4798 3350 D3E90001 		ldrd	r0, [r3]
 4799              		.loc 1 374 6 discriminator 3
 4800 3354 07F52363 		add	r3, r7, #2608
 4801 3358 D3E90023 		ldrd	r2, [r3]
 4802 335c 82EA0004 		eor	r4, r2, r0
 4803 3360 C7F87041 		str	r4, [r7, #368]
 4804 3364 4B40     		eors	r3, r3, r1
 4805 3366 C7F87431 		str	r3, [r7, #372]
 4806 336a D7E95C34 		ldrd	r3, [r7, #368]
 4807 336e 07F52162 		add	r2, r7, #2576
 4808 3372 C2E90034 		strd	r3, [r2]
 375:shake.c       **** 		kt = A[ 0] & A[ 9];
 4809              		.loc 1 375 9 discriminator 3
 4810 3376 D7F8FC39 		ldr	r3, [r7, #2556]
 4811 337a D3E90001 		ldrd	r0, [r3]
 4812              		.loc 1 375 17 discriminator 3
 4813 337e D7F8FC39 		ldr	r3, [r7, #2556]
 4814 3382 4833     		adds	r3, r3, #72
 4815 3384 D3E90023 		ldrd	r2, [r3]
 4816              		.loc 1 375 6 discriminator 3
 4817 3388 00EA0204 		and	r4, r0, r2
 4818 338c C7F86841 		str	r4, [r7, #360]
 4819 3390 0B40     		ands	r3, r3, r1
 4820 3392 C7F86C31 		str	r3, [r7, #364]
 4821 3396 D7E95A34 		ldrd	r3, [r7, #360]
 4822 339a 07F52362 		add	r2, r7, #2608
 4823 339e C2E90034 		strd	r3, [r2]
 376:shake.c       **** 		c4 = A[21] ^ kt;
 4824              		.loc 1 376 9 discriminator 3
 4825 33a2 D7F8FC39 		ldr	r3, [r7, #2556]
 4826 33a6 A833     		adds	r3, r3, #168
 4827 33a8 D3E90001 		ldrd	r0, [r3]
 4828              		.loc 1 376 6 discriminator 3
 4829 33ac 07F52363 		add	r3, r7, #2608
 4830 33b0 D3E90023 		ldrd	r2, [r3]
 4831 33b4 82EA0004 		eor	r4, r2, r0
 4832 33b8 C7F86041 		str	r4, [r7, #352]
 4833 33bc 4B40     		eors	r3, r3, r1
 4834 33be C7F86431 		str	r3, [r7, #356]
 4835 33c2 D7E95834 		ldrd	r3, [r7, #352]
 4836 33c6 07F60822 		addw	r2, r7, #2568
 4837 33ca C2E90034 		strd	r3, [r2]
 377:shake.c       **** 		A[ 0] = c0;
 4838              		.loc 1 377 9 discriminator 3
 4839 33ce D7F8FC19 		ldr	r1, [r7, #2556]
 4840 33d2 07F62823 		addw	r3, r7, #2600
 4841 33d6 D3E90023 		ldrd	r2, [r3]
 4842 33da C1E90023 		strd	r2, [r1]
 378:shake.c       **** 		A[ 9] = c1;
 4843              		.loc 1 378 4 discriminator 3
 4844 33de D7F8FC39 		ldr	r3, [r7, #2556]
 4845 33e2 03F14801 		add	r1, r3, #72
 4846              		.loc 1 378 9 discriminator 3
 4847 33e6 07F52263 		add	r3, r7, #2592
 4848 33ea D3E90023 		ldrd	r2, [r3]
 4849 33ee C1E90023 		strd	r2, [r1]
 379:shake.c       **** 		A[13] = c2;
 4850              		.loc 1 379 4 discriminator 3
 4851 33f2 D7F8FC39 		ldr	r3, [r7, #2556]
 4852 33f6 03F16801 		add	r1, r3, #104
 4853              		.loc 1 379 9 discriminator 3
 4854 33fa 07F61823 		addw	r3, r7, #2584
 4855 33fe D3E90023 		ldrd	r2, [r3]
 4856 3402 C1E90023 		strd	r2, [r1]
 380:shake.c       **** 		A[17] = c3;
 4857              		.loc 1 380 4 discriminator 3
 4858 3406 D7F8FC39 		ldr	r3, [r7, #2556]
 4859 340a 03F18801 		add	r1, r3, #136
 4860              		.loc 1 380 9 discriminator 3
 4861 340e 07F52163 		add	r3, r7, #2576
 4862 3412 D3E90023 		ldrd	r2, [r3]
 4863 3416 C1E90023 		strd	r2, [r1]
 381:shake.c       **** 		A[21] = c4;
 4864              		.loc 1 381 4 discriminator 3
 4865 341a D7F8FC39 		ldr	r3, [r7, #2556]
 4866 341e 03F1A801 		add	r1, r3, #168
 4867              		.loc 1 381 9 discriminator 3
 4868 3422 07F60823 		addw	r3, r7, #2568
 4869 3426 D3E90023 		ldrd	r2, [r3]
 4870 342a C1E90023 		strd	r2, [r1]
 382:shake.c       **** 		bnn = ~A[14];
 4871              		.loc 1 382 11 discriminator 3
 4872 342e D7F8FC39 		ldr	r3, [r7, #2556]
 4873 3432 7033     		adds	r3, r3, #112
 4874 3434 D3E90023 		ldrd	r2, [r3]
 4875              		.loc 1 382 7 discriminator 3
 4876 3438 D143     		mvns	r1, r2
 4877 343a C7F85811 		str	r1, [r7, #344]
 4878 343e DB43     		mvns	r3, r3
 4879 3440 C7F85C31 		str	r3, [r7, #348]
 4880 3444 D7E95634 		ldrd	r3, [r7, #344]
 4881 3448 07F63822 		addw	r2, r7, #2616
 4882 344c C2E90034 		strd	r3, [r2]
 383:shake.c       **** 		kt = A[22] | A[ 1];
 4883              		.loc 1 383 9 discriminator 3
 4884 3450 D7F8FC39 		ldr	r3, [r7, #2556]
 4885 3454 B033     		adds	r3, r3, #176
 4886 3456 D3E90001 		ldrd	r0, [r3]
 4887              		.loc 1 383 17 discriminator 3
 4888 345a D7F8FC39 		ldr	r3, [r7, #2556]
 4889 345e 0833     		adds	r3, r3, #8
 4890 3460 D3E90023 		ldrd	r2, [r3]
 4891              		.loc 1 383 6 discriminator 3
 4892 3464 40EA0204 		orr	r4, r0, r2
 4893 3468 C7F85041 		str	r4, [r7, #336]
 4894 346c 0B43     		orrs	r3, r3, r1
 4895 346e C7F85431 		str	r3, [r7, #340]
 4896 3472 D7E95434 		ldrd	r3, [r7, #336]
 4897 3476 07F52362 		add	r2, r7, #2608
 4898 347a C2E90034 		strd	r3, [r2]
 384:shake.c       **** 		c0 = A[18] ^ kt;
 4899              		.loc 1 384 9 discriminator 3
 4900 347e D7F8FC39 		ldr	r3, [r7, #2556]
 4901 3482 9033     		adds	r3, r3, #144
 4902 3484 D3E90001 		ldrd	r0, [r3]
 4903              		.loc 1 384 6 discriminator 3
 4904 3488 07F52363 		add	r3, r7, #2608
 4905 348c D3E90023 		ldrd	r2, [r3]
 4906 3490 82EA0004 		eor	r4, r2, r0
 4907 3494 C7F84841 		str	r4, [r7, #328]
 4908 3498 4B40     		eors	r3, r3, r1
 4909 349a C7F84C31 		str	r3, [r7, #332]
 4910 349e D7E95234 		ldrd	r3, [r7, #328]
 4911 34a2 07F62822 		addw	r2, r7, #2600
 4912 34a6 C2E90034 		strd	r3, [r2]
 385:shake.c       **** 		kt = A[ 1] & A[ 5];
 4913              		.loc 1 385 9 discriminator 3
 4914 34aa D7F8FC39 		ldr	r3, [r7, #2556]
 4915 34ae 0833     		adds	r3, r3, #8
 4916 34b0 D3E90001 		ldrd	r0, [r3]
 4917              		.loc 1 385 17 discriminator 3
 4918 34b4 D7F8FC39 		ldr	r3, [r7, #2556]
 4919 34b8 2833     		adds	r3, r3, #40
 4920 34ba D3E90023 		ldrd	r2, [r3]
 4921              		.loc 1 385 6 discriminator 3
 4922 34be 00EA0204 		and	r4, r0, r2
 4923 34c2 C7F84041 		str	r4, [r7, #320]
 4924 34c6 0B40     		ands	r3, r3, r1
 4925 34c8 C7F84431 		str	r3, [r7, #324]
 4926 34cc D7E95034 		ldrd	r3, [r7, #320]
 4927 34d0 07F52362 		add	r2, r7, #2608
 4928 34d4 C2E90034 		strd	r3, [r2]
 386:shake.c       **** 		c1 = A[22] ^ kt;
 4929              		.loc 1 386 9 discriminator 3
 4930 34d8 D7F8FC39 		ldr	r3, [r7, #2556]
 4931 34dc B033     		adds	r3, r3, #176
 4932 34de D3E90001 		ldrd	r0, [r3]
 4933              		.loc 1 386 6 discriminator 3
 4934 34e2 07F52363 		add	r3, r7, #2608
 4935 34e6 D3E90023 		ldrd	r2, [r3]
 4936 34ea 82EA0004 		eor	r4, r2, r0
 4937 34ee C7F83841 		str	r4, [r7, #312]
 4938 34f2 4B40     		eors	r3, r3, r1
 4939 34f4 C7F83C31 		str	r3, [r7, #316]
 4940 34f8 D7E94E34 		ldrd	r3, [r7, #312]
 4941 34fc 07F52262 		add	r2, r7, #2592
 4942 3500 C2E90034 		strd	r3, [r2]
 387:shake.c       **** 		kt = A[ 5] | bnn;
 4943              		.loc 1 387 9 discriminator 3
 4944 3504 D7F8FC39 		ldr	r3, [r7, #2556]
 4945 3508 2833     		adds	r3, r3, #40
 4946 350a D3E90001 		ldrd	r0, [r3]
 4947              		.loc 1 387 6 discriminator 3
 4948 350e 07F63823 		addw	r3, r7, #2616
 4949 3512 D3E90023 		ldrd	r2, [r3]
 4950 3516 42EA0004 		orr	r4, r2, r0
 4951 351a C7F83041 		str	r4, [r7, #304]
 4952 351e 0B43     		orrs	r3, r3, r1
 4953 3520 C7F83431 		str	r3, [r7, #308]
 4954 3524 D7E94C34 		ldrd	r3, [r7, #304]
 4955 3528 07F52362 		add	r2, r7, #2608
 4956 352c C2E90034 		strd	r3, [r2]
 388:shake.c       **** 		c2 = A[ 1] ^ kt;
 4957              		.loc 1 388 9 discriminator 3
 4958 3530 D7F8FC39 		ldr	r3, [r7, #2556]
 4959 3534 0833     		adds	r3, r3, #8
 4960 3536 D3E90001 		ldrd	r0, [r3]
 4961              		.loc 1 388 6 discriminator 3
 4962 353a 07F52363 		add	r3, r7, #2608
 4963 353e D3E90023 		ldrd	r2, [r3]
 4964 3542 82EA0004 		eor	r4, r2, r0
 4965 3546 C7F82841 		str	r4, [r7, #296]
 4966 354a 4B40     		eors	r3, r3, r1
 4967 354c C7F82C31 		str	r3, [r7, #300]
 4968 3550 D7E94A34 		ldrd	r3, [r7, #296]
 4969 3554 07F61822 		addw	r2, r7, #2584
 4970 3558 C2E90034 		strd	r3, [r2]
 389:shake.c       **** 		kt = A[14] | A[18];
 4971              		.loc 1 389 9 discriminator 3
 4972 355c D7F8FC39 		ldr	r3, [r7, #2556]
 4973 3560 7033     		adds	r3, r3, #112
 4974 3562 D3E90001 		ldrd	r0, [r3]
 4975              		.loc 1 389 17 discriminator 3
 4976 3566 D7F8FC39 		ldr	r3, [r7, #2556]
 4977 356a 9033     		adds	r3, r3, #144
 4978 356c D3E90023 		ldrd	r2, [r3]
 4979              		.loc 1 389 6 discriminator 3
 4980 3570 40EA0204 		orr	r4, r0, r2
 4981 3574 C7F82041 		str	r4, [r7, #288]
 4982 3578 0B43     		orrs	r3, r3, r1
 4983 357a C7F82431 		str	r3, [r7, #292]
 4984 357e D7E94834 		ldrd	r3, [r7, #288]
 4985 3582 07F52362 		add	r2, r7, #2608
 4986 3586 C2E90034 		strd	r3, [r2]
 390:shake.c       **** 		c3 = A[ 5] ^ kt;
 4987              		.loc 1 390 9 discriminator 3
 4988 358a D7F8FC39 		ldr	r3, [r7, #2556]
 4989 358e 2833     		adds	r3, r3, #40
 4990 3590 D3E90001 		ldrd	r0, [r3]
 4991              		.loc 1 390 6 discriminator 3
 4992 3594 07F52363 		add	r3, r7, #2608
 4993 3598 D3E90023 		ldrd	r2, [r3]
 4994 359c 82EA0004 		eor	r4, r2, r0
 4995 35a0 C7F81841 		str	r4, [r7, #280]
 4996 35a4 4B40     		eors	r3, r3, r1
 4997 35a6 C7F81C31 		str	r3, [r7, #284]
 4998 35aa D7E94634 		ldrd	r3, [r7, #280]
 4999 35ae 07F52162 		add	r2, r7, #2576
 5000 35b2 C2E90034 		strd	r3, [r2]
 391:shake.c       **** 		kt = A[18] & A[22];
 5001              		.loc 1 391 9 discriminator 3
 5002 35b6 D7F8FC39 		ldr	r3, [r7, #2556]
 5003 35ba 9033     		adds	r3, r3, #144
 5004 35bc D3E90001 		ldrd	r0, [r3]
 5005              		.loc 1 391 17 discriminator 3
 5006 35c0 D7F8FC39 		ldr	r3, [r7, #2556]
 5007 35c4 B033     		adds	r3, r3, #176
 5008 35c6 D3E90023 		ldrd	r2, [r3]
 5009              		.loc 1 391 6 discriminator 3
 5010 35ca 00EA0204 		and	r4, r0, r2
 5011 35ce C7F81041 		str	r4, [r7, #272]
 5012 35d2 0B40     		ands	r3, r3, r1
 5013 35d4 C7F81431 		str	r3, [r7, #276]
 5014 35d8 D7E94434 		ldrd	r3, [r7, #272]
 5015 35dc 07F52362 		add	r2, r7, #2608
 5016 35e0 C2E90034 		strd	r3, [r2]
 392:shake.c       **** 		c4 = A[14] ^ kt;
 5017              		.loc 1 392 9 discriminator 3
 5018 35e4 D7F8FC39 		ldr	r3, [r7, #2556]
 5019 35e8 7033     		adds	r3, r3, #112
 5020 35ea D3E90001 		ldrd	r0, [r3]
 5021              		.loc 1 392 6 discriminator 3
 5022 35ee 07F52363 		add	r3, r7, #2608
 5023 35f2 D3E90023 		ldrd	r2, [r3]
 5024 35f6 82EA0004 		eor	r4, r2, r0
 5025 35fa C7F80841 		str	r4, [r7, #264]
 5026 35fe 4B40     		eors	r3, r3, r1
 5027 3600 C7F80C31 		str	r3, [r7, #268]
 5028 3604 D7E94234 		ldrd	r3, [r7, #264]
 5029 3608 07F60822 		addw	r2, r7, #2568
 5030 360c C2E90034 		strd	r3, [r2]
 393:shake.c       **** 		A[18] = c0;
 5031              		.loc 1 393 4 discriminator 3
 5032 3610 D7F8FC39 		ldr	r3, [r7, #2556]
 5033 3614 03F19001 		add	r1, r3, #144
 5034              		.loc 1 393 9 discriminator 3
 5035 3618 07F62823 		addw	r3, r7, #2600
 5036 361c D3E90023 		ldrd	r2, [r3]
 5037 3620 C1E90023 		strd	r2, [r1]
 394:shake.c       **** 		A[22] = c1;
 5038              		.loc 1 394 4 discriminator 3
 5039 3624 D7F8FC39 		ldr	r3, [r7, #2556]
 5040 3628 03F1B001 		add	r1, r3, #176
 5041              		.loc 1 394 9 discriminator 3
 5042 362c 07F52263 		add	r3, r7, #2592
 5043 3630 D3E90023 		ldrd	r2, [r3]
 5044 3634 C1E90023 		strd	r2, [r1]
 395:shake.c       **** 		A[ 1] = c2;
 5045              		.loc 1 395 4 discriminator 3
 5046 3638 D7F8FC39 		ldr	r3, [r7, #2556]
 5047 363c 03F10801 		add	r1, r3, #8
 5048              		.loc 1 395 9 discriminator 3
 5049 3640 07F61823 		addw	r3, r7, #2584
 5050 3644 D3E90023 		ldrd	r2, [r3]
 5051 3648 C1E90023 		strd	r2, [r1]
 396:shake.c       **** 		A[ 5] = c3;
 5052              		.loc 1 396 4 discriminator 3
 5053 364c D7F8FC39 		ldr	r3, [r7, #2556]
 5054 3650 03F12801 		add	r1, r3, #40
 5055              		.loc 1 396 9 discriminator 3
 5056 3654 07F52163 		add	r3, r7, #2576
 5057 3658 D3E90023 		ldrd	r2, [r3]
 5058 365c C1E90023 		strd	r2, [r1]
 397:shake.c       **** 		A[14] = c4;
 5059              		.loc 1 397 4 discriminator 3
 5060 3660 D7F8FC39 		ldr	r3, [r7, #2556]
 5061 3664 03F17001 		add	r1, r3, #112
 5062              		.loc 1 397 9 discriminator 3
 5063 3668 07F60823 		addw	r3, r7, #2568
 5064 366c D3E90023 		ldrd	r2, [r3]
 5065 3670 C1E90023 		strd	r2, [r1]
 398:shake.c       **** 		bnn = ~A[23];
 5066              		.loc 1 398 11 discriminator 3
 5067 3674 D7F8FC39 		ldr	r3, [r7, #2556]
 5068 3678 B833     		adds	r3, r3, #184
 5069 367a D3E90023 		ldrd	r2, [r3]
 5070              		.loc 1 398 7 discriminator 3
 5071 367e D143     		mvns	r1, r2
 5072 3680 C7F80011 		str	r1, [r7, #256]
 5073 3684 DB43     		mvns	r3, r3
 5074 3686 C7F80431 		str	r3, [r7, #260]
 5075 368a D7E94034 		ldrd	r3, [r7, #256]
 5076 368e 07F63822 		addw	r2, r7, #2616
 5077 3692 C2E90034 		strd	r3, [r2]
 399:shake.c       **** 		kt = A[10] | A[19];
 5078              		.loc 1 399 9 discriminator 3
 5079 3696 D7F8FC39 		ldr	r3, [r7, #2556]
 5080 369a 5033     		adds	r3, r3, #80
 5081 369c D3E90001 		ldrd	r0, [r3]
 5082              		.loc 1 399 17 discriminator 3
 5083 36a0 D7F8FC39 		ldr	r3, [r7, #2556]
 5084 36a4 9833     		adds	r3, r3, #152
 5085 36a6 D3E90023 		ldrd	r2, [r3]
 5086              		.loc 1 399 6 discriminator 3
 5087 36aa 40EA0204 		orr	r4, r0, r2
 5088 36ae C7F8F840 		str	r4, [r7, #248]
 5089 36b2 0B43     		orrs	r3, r3, r1
 5090 36b4 C7F8FC30 		str	r3, [r7, #252]
 5091 36b8 D7E93E34 		ldrd	r3, [r7, #248]
 5092 36bc 07F52362 		add	r2, r7, #2608
 5093 36c0 C2E90034 		strd	r3, [r2]
 400:shake.c       **** 		c0 = A[ 6] ^ kt;
 5094              		.loc 1 400 9 discriminator 3
 5095 36c4 D7F8FC39 		ldr	r3, [r7, #2556]
 5096 36c8 3033     		adds	r3, r3, #48
 5097 36ca D3E90001 		ldrd	r0, [r3]
 5098              		.loc 1 400 6 discriminator 3
 5099 36ce 07F52363 		add	r3, r7, #2608
 5100 36d2 D3E90023 		ldrd	r2, [r3]
 5101 36d6 82EA0004 		eor	r4, r2, r0
 5102 36da C7F8F040 		str	r4, [r7, #240]
 5103 36de 4B40     		eors	r3, r3, r1
 5104 36e0 C7F8F430 		str	r3, [r7, #244]
 5105 36e4 D7E93C34 		ldrd	r3, [r7, #240]
 5106 36e8 07F62822 		addw	r2, r7, #2600
 5107 36ec C2E90034 		strd	r3, [r2]
 401:shake.c       **** 		kt = A[19] & A[23];
 5108              		.loc 1 401 9 discriminator 3
 5109 36f0 D7F8FC39 		ldr	r3, [r7, #2556]
 5110 36f4 9833     		adds	r3, r3, #152
 5111 36f6 D3E90001 		ldrd	r0, [r3]
 5112              		.loc 1 401 17 discriminator 3
 5113 36fa D7F8FC39 		ldr	r3, [r7, #2556]
 5114 36fe B833     		adds	r3, r3, #184
 5115 3700 D3E90023 		ldrd	r2, [r3]
 5116              		.loc 1 401 6 discriminator 3
 5117 3704 00EA0204 		and	r4, r0, r2
 5118 3708 C7F8E840 		str	r4, [r7, #232]
 5119 370c 0B40     		ands	r3, r3, r1
 5120 370e C7F8EC30 		str	r3, [r7, #236]
 5121 3712 D7E93A34 		ldrd	r3, [r7, #232]
 5122 3716 07F52362 		add	r2, r7, #2608
 5123 371a C2E90034 		strd	r3, [r2]
 402:shake.c       **** 		c1 = A[10] ^ kt;
 5124              		.loc 1 402 9 discriminator 3
 5125 371e D7F8FC39 		ldr	r3, [r7, #2556]
 5126 3722 5033     		adds	r3, r3, #80
 5127 3724 D3E90001 		ldrd	r0, [r3]
 5128              		.loc 1 402 6 discriminator 3
 5129 3728 07F52363 		add	r3, r7, #2608
 5130 372c D3E90023 		ldrd	r2, [r3]
 5131 3730 82EA0004 		eor	r4, r2, r0
 5132 3734 C7F8E040 		str	r4, [r7, #224]
 5133 3738 4B40     		eors	r3, r3, r1
 5134 373a C7F8E430 		str	r3, [r7, #228]
 5135 373e D7E93834 		ldrd	r3, [r7, #224]
 5136 3742 07F52262 		add	r2, r7, #2592
 5137 3746 C2E90034 		strd	r3, [r2]
 403:shake.c       **** 		kt = bnn & A[ 2];
 5138              		.loc 1 403 15 discriminator 3
 5139 374a D7F8FC39 		ldr	r3, [r7, #2556]
 5140 374e 1033     		adds	r3, r3, #16
 5141 3750 D3E90001 		ldrd	r0, [r3]
 5142              		.loc 1 403 6 discriminator 3
 5143 3754 07F63823 		addw	r3, r7, #2616
 5144 3758 D3E90023 		ldrd	r2, [r3]
 5145 375c 02EA0004 		and	r4, r2, r0
 5146 3760 C7F8D840 		str	r4, [r7, #216]
 5147 3764 0B40     		ands	r3, r3, r1
 5148 3766 C7F8DC30 		str	r3, [r7, #220]
 5149 376a D7E93634 		ldrd	r3, [r7, #216]
 5150 376e 07F52362 		add	r2, r7, #2608
 5151 3772 C2E90034 		strd	r3, [r2]
 404:shake.c       **** 		c2 = A[19] ^ kt;
 5152              		.loc 1 404 9 discriminator 3
 5153 3776 D7F8FC39 		ldr	r3, [r7, #2556]
 5154 377a 9833     		adds	r3, r3, #152
 5155 377c D3E90001 		ldrd	r0, [r3]
 5156              		.loc 1 404 6 discriminator 3
 5157 3780 07F52363 		add	r3, r7, #2608
 5158 3784 D3E90023 		ldrd	r2, [r3]
 5159 3788 82EA0004 		eor	r4, r2, r0
 5160 378c C7F8D040 		str	r4, [r7, #208]
 5161 3790 4B40     		eors	r3, r3, r1
 5162 3792 C7F8D430 		str	r3, [r7, #212]
 5163 3796 D7E93434 		ldrd	r3, [r7, #208]
 5164 379a 07F61822 		addw	r2, r7, #2584
 5165 379e C2E90034 		strd	r3, [r2]
 405:shake.c       **** 		kt = A[ 2] | A[ 6];
 5166              		.loc 1 405 9 discriminator 3
 5167 37a2 D7F8FC39 		ldr	r3, [r7, #2556]
 5168 37a6 1033     		adds	r3, r3, #16
 5169 37a8 D3E90001 		ldrd	r0, [r3]
 5170              		.loc 1 405 17 discriminator 3
 5171 37ac D7F8FC39 		ldr	r3, [r7, #2556]
 5172 37b0 3033     		adds	r3, r3, #48
 5173 37b2 D3E90023 		ldrd	r2, [r3]
 5174              		.loc 1 405 6 discriminator 3
 5175 37b6 40EA0204 		orr	r4, r0, r2
 5176 37ba C7F8C840 		str	r4, [r7, #200]
 5177 37be 0B43     		orrs	r3, r3, r1
 5178 37c0 C7F8CC30 		str	r3, [r7, #204]
 5179 37c4 D7E93234 		ldrd	r3, [r7, #200]
 5180 37c8 07F52362 		add	r2, r7, #2608
 5181 37cc C2E90034 		strd	r3, [r2]
 406:shake.c       **** 		c3 = bnn ^ kt;
 5182              		.loc 1 406 6 discriminator 3
 5183 37d0 07F63823 		addw	r3, r7, #2616
 5184 37d4 D3E90001 		ldrd	r0, [r3]
 5185 37d8 07F52363 		add	r3, r7, #2608
 5186 37dc D3E90023 		ldrd	r2, [r3]
 5187 37e0 80EA0204 		eor	r4, r0, r2
 5188 37e4 C7F8C040 		str	r4, [r7, #192]
 5189 37e8 4B40     		eors	r3, r3, r1
 5190 37ea C7F8C430 		str	r3, [r7, #196]
 5191 37ee D7E93034 		ldrd	r3, [r7, #192]
 5192 37f2 07F52162 		add	r2, r7, #2576
 5193 37f6 C2E90034 		strd	r3, [r2]
 407:shake.c       **** 		kt = A[ 6] & A[10];
 5194              		.loc 1 407 9 discriminator 3
 5195 37fa D7F8FC39 		ldr	r3, [r7, #2556]
 5196 37fe 3033     		adds	r3, r3, #48
 5197 3800 D3E90001 		ldrd	r0, [r3]
 5198              		.loc 1 407 17 discriminator 3
 5199 3804 D7F8FC39 		ldr	r3, [r7, #2556]
 5200 3808 5033     		adds	r3, r3, #80
 5201 380a D3E90023 		ldrd	r2, [r3]
 5202              		.loc 1 407 6 discriminator 3
 5203 380e 00EA0204 		and	r4, r0, r2
 5204 3812 C7F8B840 		str	r4, [r7, #184]
 5205 3816 0B40     		ands	r3, r3, r1
 5206 3818 C7F8BC30 		str	r3, [r7, #188]
 5207 381c D7E92E34 		ldrd	r3, [r7, #184]
 5208 3820 07F52362 		add	r2, r7, #2608
 5209 3824 C2E90034 		strd	r3, [r2]
 408:shake.c       **** 		c4 = A[ 2] ^ kt;
 5210              		.loc 1 408 9 discriminator 3
 5211 3828 D7F8FC39 		ldr	r3, [r7, #2556]
 5212 382c 1033     		adds	r3, r3, #16
 5213 382e D3E90001 		ldrd	r0, [r3]
 5214              		.loc 1 408 6 discriminator 3
 5215 3832 07F52363 		add	r3, r7, #2608
 5216 3836 D3E90023 		ldrd	r2, [r3]
 5217 383a 82EA0004 		eor	r4, r2, r0
 5218 383e C7F8B040 		str	r4, [r7, #176]
 5219 3842 4B40     		eors	r3, r3, r1
 5220 3844 C7F8B430 		str	r3, [r7, #180]
 5221 3848 D7E92C34 		ldrd	r3, [r7, #176]
 5222 384c 07F60822 		addw	r2, r7, #2568
 5223 3850 C2E90034 		strd	r3, [r2]
 409:shake.c       **** 		A[ 6] = c0;
 5224              		.loc 1 409 4 discriminator 3
 5225 3854 D7F8FC39 		ldr	r3, [r7, #2556]
 5226 3858 03F13001 		add	r1, r3, #48
 5227              		.loc 1 409 9 discriminator 3
 5228 385c 07F62823 		addw	r3, r7, #2600
 5229 3860 D3E90023 		ldrd	r2, [r3]
 5230 3864 C1E90023 		strd	r2, [r1]
 410:shake.c       **** 		A[10] = c1;
 5231              		.loc 1 410 4 discriminator 3
 5232 3868 D7F8FC39 		ldr	r3, [r7, #2556]
 5233 386c 03F15001 		add	r1, r3, #80
 5234              		.loc 1 410 9 discriminator 3
 5235 3870 07F52263 		add	r3, r7, #2592
 5236 3874 D3E90023 		ldrd	r2, [r3]
 5237 3878 C1E90023 		strd	r2, [r1]
 411:shake.c       **** 		A[19] = c2;
 5238              		.loc 1 411 4 discriminator 3
 5239 387c D7F8FC39 		ldr	r3, [r7, #2556]
 5240 3880 03F19801 		add	r1, r3, #152
 5241              		.loc 1 411 9 discriminator 3
 5242 3884 07F61823 		addw	r3, r7, #2584
 5243 3888 D3E90023 		ldrd	r2, [r3]
 5244 388c C1E90023 		strd	r2, [r1]
 412:shake.c       **** 		A[23] = c3;
 5245              		.loc 1 412 4 discriminator 3
 5246 3890 D7F8FC39 		ldr	r3, [r7, #2556]
 5247 3894 03F1B801 		add	r1, r3, #184
 5248              		.loc 1 412 9 discriminator 3
 5249 3898 07F52163 		add	r3, r7, #2576
 5250 389c D3E90023 		ldrd	r2, [r3]
 5251 38a0 C1E90023 		strd	r2, [r1]
 413:shake.c       **** 		A[ 2] = c4;
 5252              		.loc 1 413 4 discriminator 3
 5253 38a4 D7F8FC39 		ldr	r3, [r7, #2556]
 5254 38a8 03F11001 		add	r1, r3, #16
 5255              		.loc 1 413 9 discriminator 3
 5256 38ac 07F60823 		addw	r3, r7, #2568
 5257 38b0 D3E90023 		ldrd	r2, [r3]
 5258 38b4 C1E90023 		strd	r2, [r1]
 414:shake.c       **** 		bnn = ~A[11];
 5259              		.loc 1 414 11 discriminator 3
 5260 38b8 D7F8FC39 		ldr	r3, [r7, #2556]
 5261 38bc 5833     		adds	r3, r3, #88
 5262 38be D3E90023 		ldrd	r2, [r3]
 5263              		.loc 1 414 7 discriminator 3
 5264 38c2 D143     		mvns	r1, r2
 5265 38c4 C7F8A810 		str	r1, [r7, #168]
 5266 38c8 DB43     		mvns	r3, r3
 5267 38ca C7F8AC30 		str	r3, [r7, #172]
 5268 38ce D7E92A34 		ldrd	r3, [r7, #168]
 5269 38d2 07F63822 		addw	r2, r7, #2616
 5270 38d6 C2E90034 		strd	r3, [r2]
 415:shake.c       **** 		kt = A[ 3] & A[ 7];
 5271              		.loc 1 415 9 discriminator 3
 5272 38da D7F8FC39 		ldr	r3, [r7, #2556]
 5273 38de 1833     		adds	r3, r3, #24
 5274 38e0 D3E90001 		ldrd	r0, [r3]
 5275              		.loc 1 415 17 discriminator 3
 5276 38e4 D7F8FC39 		ldr	r3, [r7, #2556]
 5277 38e8 3833     		adds	r3, r3, #56
 5278 38ea D3E90023 		ldrd	r2, [r3]
 5279              		.loc 1 415 6 discriminator 3
 5280 38ee 00EA0204 		and	r4, r0, r2
 5281 38f2 C7F8A040 		str	r4, [r7, #160]
 5282 38f6 0B40     		ands	r3, r3, r1
 5283 38f8 C7F8A430 		str	r3, [r7, #164]
 5284 38fc D7E92834 		ldrd	r3, [r7, #160]
 5285 3900 07F52362 		add	r2, r7, #2608
 5286 3904 C2E90034 		strd	r3, [r2]
 416:shake.c       **** 		c0 = A[24] ^ kt;
 5287              		.loc 1 416 9 discriminator 3
 5288 3908 D7F8FC39 		ldr	r3, [r7, #2556]
 5289 390c C033     		adds	r3, r3, #192
 5290 390e D3E90001 		ldrd	r0, [r3]
 5291              		.loc 1 416 6 discriminator 3
 5292 3912 07F52363 		add	r3, r7, #2608
 5293 3916 D3E90023 		ldrd	r2, [r3]
 5294 391a 82EA0004 		eor	r4, r2, r0
 5295 391e C7F89840 		str	r4, [r7, #152]
 5296 3922 4B40     		eors	r3, r3, r1
 5297 3924 C7F89C30 		str	r3, [r7, #156]
 5298 3928 D7E92634 		ldrd	r3, [r7, #152]
 5299 392c 07F62822 		addw	r2, r7, #2600
 5300 3930 C2E90034 		strd	r3, [r2]
 417:shake.c       **** 		kt = A[ 7] | A[11];
 5301              		.loc 1 417 9 discriminator 3
 5302 3934 D7F8FC39 		ldr	r3, [r7, #2556]
 5303 3938 3833     		adds	r3, r3, #56
 5304 393a D3E90001 		ldrd	r0, [r3]
 5305              		.loc 1 417 17 discriminator 3
 5306 393e D7F8FC39 		ldr	r3, [r7, #2556]
 5307 3942 5833     		adds	r3, r3, #88
 5308 3944 D3E90023 		ldrd	r2, [r3]
 5309              		.loc 1 417 6 discriminator 3
 5310 3948 40EA0204 		orr	r4, r0, r2
 5311 394c C7F89040 		str	r4, [r7, #144]
 5312 3950 0B43     		orrs	r3, r3, r1
 5313 3952 C7F89430 		str	r3, [r7, #148]
 5314 3956 D7E92434 		ldrd	r3, [r7, #144]
 5315 395a 07F52362 		add	r2, r7, #2608
 5316 395e C2E90034 		strd	r3, [r2]
 418:shake.c       **** 		c1 = A[ 3] ^ kt;
 5317              		.loc 1 418 9 discriminator 3
 5318 3962 D7F8FC39 		ldr	r3, [r7, #2556]
 5319 3966 1833     		adds	r3, r3, #24
 5320 3968 D3E90001 		ldrd	r0, [r3]
 5321              		.loc 1 418 6 discriminator 3
 5322 396c 07F52363 		add	r3, r7, #2608
 5323 3970 D3E90023 		ldrd	r2, [r3]
 5324 3974 82EA0004 		eor	r4, r2, r0
 5325 3978 C7F88840 		str	r4, [r7, #136]
 5326 397c 4B40     		eors	r3, r3, r1
 5327 397e C7F88C30 		str	r3, [r7, #140]
 5328 3982 D7E92234 		ldrd	r3, [r7, #136]
 5329 3986 07F52262 		add	r2, r7, #2592
 5330 398a C2E90034 		strd	r3, [r2]
 419:shake.c       **** 		kt = bnn | A[15];
 5331              		.loc 1 419 15 discriminator 3
 5332 398e D7F8FC39 		ldr	r3, [r7, #2556]
 5333 3992 7833     		adds	r3, r3, #120
 5334 3994 D3E90001 		ldrd	r0, [r3]
 5335              		.loc 1 419 6 discriminator 3
 5336 3998 07F63823 		addw	r3, r7, #2616
 5337 399c D3E90023 		ldrd	r2, [r3]
 5338 39a0 42EA0004 		orr	r4, r2, r0
 5339 39a4 C7F88040 		str	r4, [r7, #128]
 5340 39a8 0B43     		orrs	r3, r3, r1
 5341 39aa C7F88430 		str	r3, [r7, #132]
 5342 39ae D7E92034 		ldrd	r3, [r7, #128]
 5343 39b2 07F52362 		add	r2, r7, #2608
 5344 39b6 C2E90034 		strd	r3, [r2]
 420:shake.c       **** 		c2 = A[ 7] ^ kt;
 5345              		.loc 1 420 9 discriminator 3
 5346 39ba D7F8FC39 		ldr	r3, [r7, #2556]
 5347 39be 3833     		adds	r3, r3, #56
 5348 39c0 D3E90001 		ldrd	r0, [r3]
 5349              		.loc 1 420 6 discriminator 3
 5350 39c4 07F52363 		add	r3, r7, #2608
 5351 39c8 D3E90023 		ldrd	r2, [r3]
 5352 39cc 82EA0004 		eor	r4, r2, r0
 5353 39d0 BC67     		str	r4, [r7, #120]
 5354 39d2 4B40     		eors	r3, r3, r1
 5355 39d4 FB67     		str	r3, [r7, #124]
 5356 39d6 D7E91E34 		ldrd	r3, [r7, #120]
 5357 39da 07F61822 		addw	r2, r7, #2584
 5358 39de C2E90034 		strd	r3, [r2]
 421:shake.c       **** 		kt = A[15] & A[24];
 5359              		.loc 1 421 9 discriminator 3
 5360 39e2 D7F8FC39 		ldr	r3, [r7, #2556]
 5361 39e6 7833     		adds	r3, r3, #120
 5362 39e8 D3E90001 		ldrd	r0, [r3]
 5363              		.loc 1 421 17 discriminator 3
 5364 39ec D7F8FC39 		ldr	r3, [r7, #2556]
 5365 39f0 C033     		adds	r3, r3, #192
 5366 39f2 D3E90023 		ldrd	r2, [r3]
 5367              		.loc 1 421 6 discriminator 3
 5368 39f6 00EA0204 		and	r4, r0, r2
 5369 39fa 3C67     		str	r4, [r7, #112]
 5370 39fc 0B40     		ands	r3, r3, r1
 5371 39fe 7B67     		str	r3, [r7, #116]
 5372 3a00 D7E91C34 		ldrd	r3, [r7, #112]
 5373 3a04 07F52362 		add	r2, r7, #2608
 5374 3a08 C2E90034 		strd	r3, [r2]
 422:shake.c       **** 		c3 = bnn ^ kt;
 5375              		.loc 1 422 6 discriminator 3
 5376 3a0c 07F63823 		addw	r3, r7, #2616
 5377 3a10 D3E90001 		ldrd	r0, [r3]
 5378 3a14 07F52363 		add	r3, r7, #2608
 5379 3a18 D3E90023 		ldrd	r2, [r3]
 5380 3a1c 80EA0204 		eor	r4, r0, r2
 5381 3a20 BC66     		str	r4, [r7, #104]
 5382 3a22 4B40     		eors	r3, r3, r1
 5383 3a24 FB66     		str	r3, [r7, #108]
 5384 3a26 D7E91A34 		ldrd	r3, [r7, #104]
 5385 3a2a 07F52162 		add	r2, r7, #2576
 5386 3a2e C2E90034 		strd	r3, [r2]
 423:shake.c       **** 		kt = A[24] | A[ 3];
 5387              		.loc 1 423 9 discriminator 3
 5388 3a32 D7F8FC39 		ldr	r3, [r7, #2556]
 5389 3a36 C033     		adds	r3, r3, #192
 5390 3a38 D3E90001 		ldrd	r0, [r3]
 5391              		.loc 1 423 17 discriminator 3
 5392 3a3c D7F8FC39 		ldr	r3, [r7, #2556]
 5393 3a40 1833     		adds	r3, r3, #24
 5394 3a42 D3E90023 		ldrd	r2, [r3]
 5395              		.loc 1 423 6 discriminator 3
 5396 3a46 40EA0204 		orr	r4, r0, r2
 5397 3a4a 3C66     		str	r4, [r7, #96]
 5398 3a4c 0B43     		orrs	r3, r3, r1
 5399 3a4e 7B66     		str	r3, [r7, #100]
 5400 3a50 D7E91834 		ldrd	r3, [r7, #96]
 5401 3a54 07F52362 		add	r2, r7, #2608
 5402 3a58 C2E90034 		strd	r3, [r2]
 424:shake.c       **** 		c4 = A[15] ^ kt;
 5403              		.loc 1 424 9 discriminator 3
 5404 3a5c D7F8FC39 		ldr	r3, [r7, #2556]
 5405 3a60 7833     		adds	r3, r3, #120
 5406 3a62 D3E90001 		ldrd	r0, [r3]
 5407              		.loc 1 424 6 discriminator 3
 5408 3a66 07F52363 		add	r3, r7, #2608
 5409 3a6a D3E90023 		ldrd	r2, [r3]
 5410 3a6e 82EA0004 		eor	r4, r2, r0
 5411 3a72 BC65     		str	r4, [r7, #88]
 5412 3a74 4B40     		eors	r3, r3, r1
 5413 3a76 FB65     		str	r3, [r7, #92]
 5414 3a78 D7E91634 		ldrd	r3, [r7, #88]
 5415 3a7c 07F60822 		addw	r2, r7, #2568
 5416 3a80 C2E90034 		strd	r3, [r2]
 425:shake.c       **** 		A[24] = c0;
 5417              		.loc 1 425 4 discriminator 3
 5418 3a84 D7F8FC39 		ldr	r3, [r7, #2556]
 5419 3a88 03F1C001 		add	r1, r3, #192
 5420              		.loc 1 425 9 discriminator 3
 5421 3a8c 07F62823 		addw	r3, r7, #2600
 5422 3a90 D3E90023 		ldrd	r2, [r3]
 5423 3a94 C1E90023 		strd	r2, [r1]
 426:shake.c       **** 		A[ 3] = c1;
 5424              		.loc 1 426 4 discriminator 3
 5425 3a98 D7F8FC39 		ldr	r3, [r7, #2556]
 5426 3a9c 03F11801 		add	r1, r3, #24
 5427              		.loc 1 426 9 discriminator 3
 5428 3aa0 07F52263 		add	r3, r7, #2592
 5429 3aa4 D3E90023 		ldrd	r2, [r3]
 5430 3aa8 C1E90023 		strd	r2, [r1]
 427:shake.c       **** 		A[ 7] = c2;
 5431              		.loc 1 427 4 discriminator 3
 5432 3aac D7F8FC39 		ldr	r3, [r7, #2556]
 5433 3ab0 03F13801 		add	r1, r3, #56
 5434              		.loc 1 427 9 discriminator 3
 5435 3ab4 07F61823 		addw	r3, r7, #2584
 5436 3ab8 D3E90023 		ldrd	r2, [r3]
 5437 3abc C1E90023 		strd	r2, [r1]
 428:shake.c       **** 		A[11] = c3;
 5438              		.loc 1 428 4 discriminator 3
 5439 3ac0 D7F8FC39 		ldr	r3, [r7, #2556]
 5440 3ac4 03F15801 		add	r1, r3, #88
 5441              		.loc 1 428 9 discriminator 3
 5442 3ac8 07F52163 		add	r3, r7, #2576
 5443 3acc D3E90023 		ldrd	r2, [r3]
 5444 3ad0 C1E90023 		strd	r2, [r1]
 429:shake.c       **** 		A[15] = c4;
 5445              		.loc 1 429 4 discriminator 3
 5446 3ad4 D7F8FC39 		ldr	r3, [r7, #2556]
 5447 3ad8 03F17801 		add	r1, r3, #120
 5448              		.loc 1 429 9 discriminator 3
 5449 3adc 07F60823 		addw	r3, r7, #2568
 5450 3ae0 D3E90023 		ldrd	r2, [r3]
 5451 3ae4 C1E90023 		strd	r2, [r1]
 430:shake.c       **** 		bnn = ~A[16];
 5452              		.loc 1 430 11 discriminator 3
 5453 3ae8 D7F8FC39 		ldr	r3, [r7, #2556]
 5454 3aec 8033     		adds	r3, r3, #128
 5455 3aee D3E90023 		ldrd	r2, [r3]
 5456              		.loc 1 430 7 discriminator 3
 5457 3af2 D143     		mvns	r1, r2
 5458 3af4 3965     		str	r1, [r7, #80]
 5459 3af6 DB43     		mvns	r3, r3
 5460 3af8 7B65     		str	r3, [r7, #84]
 5461 3afa D7E91434 		ldrd	r3, [r7, #80]
 5462 3afe 07F63822 		addw	r2, r7, #2616
 5463 3b02 C2E90034 		strd	r3, [r2]
 431:shake.c       **** 		kt = bnn & A[20];
 5464              		.loc 1 431 15 discriminator 3
 5465 3b06 D7F8FC39 		ldr	r3, [r7, #2556]
 5466 3b0a A033     		adds	r3, r3, #160
 5467 3b0c D3E90001 		ldrd	r0, [r3]
 5468              		.loc 1 431 6 discriminator 3
 5469 3b10 07F63823 		addw	r3, r7, #2616
 5470 3b14 D3E90023 		ldrd	r2, [r3]
 5471 3b18 02EA0004 		and	r4, r2, r0
 5472 3b1c BC64     		str	r4, [r7, #72]
 5473 3b1e 0B40     		ands	r3, r3, r1
 5474 3b20 FB64     		str	r3, [r7, #76]
 5475 3b22 D7E91234 		ldrd	r3, [r7, #72]
 5476 3b26 07F52362 		add	r2, r7, #2608
 5477 3b2a C2E90034 		strd	r3, [r2]
 432:shake.c       **** 		c0 = A[12] ^ kt;
 5478              		.loc 1 432 9 discriminator 3
 5479 3b2e D7F8FC39 		ldr	r3, [r7, #2556]
 5480 3b32 6033     		adds	r3, r3, #96
 5481 3b34 D3E90001 		ldrd	r0, [r3]
 5482              		.loc 1 432 6 discriminator 3
 5483 3b38 07F52363 		add	r3, r7, #2608
 5484 3b3c D3E90023 		ldrd	r2, [r3]
 5485 3b40 82EA0004 		eor	r4, r2, r0
 5486 3b44 3C64     		str	r4, [r7, #64]
 5487 3b46 4B40     		eors	r3, r3, r1
 5488 3b48 7B64     		str	r3, [r7, #68]
 5489 3b4a D7E91034 		ldrd	r3, [r7, #64]
 5490 3b4e 07F62822 		addw	r2, r7, #2600
 5491 3b52 C2E90034 		strd	r3, [r2]
 433:shake.c       **** 		kt = A[20] | A[ 4];
 5492              		.loc 1 433 9 discriminator 3
 5493 3b56 D7F8FC39 		ldr	r3, [r7, #2556]
 5494 3b5a A033     		adds	r3, r3, #160
 5495 3b5c D3E90001 		ldrd	r0, [r3]
 5496              		.loc 1 433 17 discriminator 3
 5497 3b60 D7F8FC39 		ldr	r3, [r7, #2556]
 5498 3b64 2033     		adds	r3, r3, #32
 5499 3b66 D3E90023 		ldrd	r2, [r3]
 5500              		.loc 1 433 6 discriminator 3
 5501 3b6a 40EA0204 		orr	r4, r0, r2
 5502 3b6e BC63     		str	r4, [r7, #56]
 5503 3b70 0B43     		orrs	r3, r3, r1
 5504 3b72 FB63     		str	r3, [r7, #60]
 5505 3b74 D7E90E34 		ldrd	r3, [r7, #56]
 5506 3b78 07F52362 		add	r2, r7, #2608
 5507 3b7c C2E90034 		strd	r3, [r2]
 434:shake.c       **** 		c1 = bnn ^ kt;
 5508              		.loc 1 434 6 discriminator 3
 5509 3b80 07F63823 		addw	r3, r7, #2616
 5510 3b84 D3E90001 		ldrd	r0, [r3]
 5511 3b88 07F52363 		add	r3, r7, #2608
 5512 3b8c D3E90023 		ldrd	r2, [r3]
 5513 3b90 80EA0204 		eor	r4, r0, r2
 5514 3b94 3C63     		str	r4, [r7, #48]
 5515 3b96 4B40     		eors	r3, r3, r1
 5516 3b98 7B63     		str	r3, [r7, #52]
 5517 3b9a D7E90C34 		ldrd	r3, [r7, #48]
 5518 3b9e 07F52262 		add	r2, r7, #2592
 5519 3ba2 C2E90034 		strd	r3, [r2]
 435:shake.c       **** 		kt = A[ 4] & A[ 8];
 5520              		.loc 1 435 9 discriminator 3
 5521 3ba6 D7F8FC39 		ldr	r3, [r7, #2556]
 5522 3baa 2033     		adds	r3, r3, #32
 5523 3bac D3E90001 		ldrd	r0, [r3]
 5524              		.loc 1 435 17 discriminator 3
 5525 3bb0 D7F8FC39 		ldr	r3, [r7, #2556]
 5526 3bb4 4033     		adds	r3, r3, #64
 5527 3bb6 D3E90023 		ldrd	r2, [r3]
 5528              		.loc 1 435 6 discriminator 3
 5529 3bba 00EA0204 		and	r4, r0, r2
 5530 3bbe BC62     		str	r4, [r7, #40]
 5531 3bc0 0B40     		ands	r3, r3, r1
 5532 3bc2 FB62     		str	r3, [r7, #44]
 5533 3bc4 D7E90A34 		ldrd	r3, [r7, #40]
 5534 3bc8 07F52362 		add	r2, r7, #2608
 5535 3bcc C2E90034 		strd	r3, [r2]
 436:shake.c       **** 		c2 = A[20] ^ kt;
 5536              		.loc 1 436 9 discriminator 3
 5537 3bd0 D7F8FC39 		ldr	r3, [r7, #2556]
 5538 3bd4 A033     		adds	r3, r3, #160
 5539 3bd6 D3E90001 		ldrd	r0, [r3]
 5540              		.loc 1 436 6 discriminator 3
 5541 3bda 07F52363 		add	r3, r7, #2608
 5542 3bde D3E90023 		ldrd	r2, [r3]
 5543 3be2 82EA0004 		eor	r4, r2, r0
 5544 3be6 3C62     		str	r4, [r7, #32]
 5545 3be8 4B40     		eors	r3, r3, r1
 5546 3bea 7B62     		str	r3, [r7, #36]
 5547 3bec D7E90834 		ldrd	r3, [r7, #32]
 5548 3bf0 07F61822 		addw	r2, r7, #2584
 5549 3bf4 C2E90034 		strd	r3, [r2]
 437:shake.c       **** 		kt = A[ 8] | A[12];
 5550              		.loc 1 437 9 discriminator 3
 5551 3bf8 D7F8FC39 		ldr	r3, [r7, #2556]
 5552 3bfc 4033     		adds	r3, r3, #64
 5553 3bfe D3E90001 		ldrd	r0, [r3]
 5554              		.loc 1 437 17 discriminator 3
 5555 3c02 D7F8FC39 		ldr	r3, [r7, #2556]
 5556 3c06 6033     		adds	r3, r3, #96
 5557 3c08 D3E90023 		ldrd	r2, [r3]
 5558              		.loc 1 437 6 discriminator 3
 5559 3c0c 40EA0204 		orr	r4, r0, r2
 5560 3c10 BC61     		str	r4, [r7, #24]
 5561 3c12 0B43     		orrs	r3, r3, r1
 5562 3c14 FB61     		str	r3, [r7, #28]
 5563 3c16 D7E90634 		ldrd	r3, [r7, #24]
 5564 3c1a 07F52362 		add	r2, r7, #2608
 5565 3c1e C2E90034 		strd	r3, [r2]
 438:shake.c       **** 		c3 = A[ 4] ^ kt;
 5566              		.loc 1 438 9 discriminator 3
 5567 3c22 D7F8FC39 		ldr	r3, [r7, #2556]
 5568 3c26 2033     		adds	r3, r3, #32
 5569 3c28 D3E90001 		ldrd	r0, [r3]
 5570              		.loc 1 438 6 discriminator 3
 5571 3c2c 07F52363 		add	r3, r7, #2608
 5572 3c30 D3E90023 		ldrd	r2, [r3]
 5573 3c34 82EA0004 		eor	r4, r2, r0
 5574 3c38 3C61     		str	r4, [r7, #16]
 5575 3c3a 4B40     		eors	r3, r3, r1
 5576 3c3c 7B61     		str	r3, [r7, #20]
 5577 3c3e D7E90434 		ldrd	r3, [r7, #16]
 5578 3c42 07F52162 		add	r2, r7, #2576
 5579 3c46 C2E90034 		strd	r3, [r2]
 439:shake.c       **** 		kt = A[12] & A[16];
 5580              		.loc 1 439 9 discriminator 3
 5581 3c4a D7F8FC39 		ldr	r3, [r7, #2556]
 5582 3c4e 6033     		adds	r3, r3, #96
 5583 3c50 D3E90001 		ldrd	r0, [r3]
 5584              		.loc 1 439 17 discriminator 3
 5585 3c54 D7F8FC39 		ldr	r3, [r7, #2556]
 5586 3c58 8033     		adds	r3, r3, #128
 5587 3c5a D3E90023 		ldrd	r2, [r3]
 5588              		.loc 1 439 6 discriminator 3
 5589 3c5e 00EA0204 		and	r4, r0, r2
 5590 3c62 BC60     		str	r4, [r7, #8]
 5591 3c64 0B40     		ands	r3, r3, r1
 5592 3c66 FB60     		str	r3, [r7, #12]
 5593 3c68 D7E90234 		ldrd	r3, [r7, #8]
 5594 3c6c 07F52362 		add	r2, r7, #2608
 5595 3c70 C2E90034 		strd	r3, [r2]
 440:shake.c       **** 		c4 = A[ 8] ^ kt;
 5596              		.loc 1 440 9 discriminator 3
 5597 3c74 D7F8FC39 		ldr	r3, [r7, #2556]
 5598 3c78 4033     		adds	r3, r3, #64
 5599 3c7a D3E90001 		ldrd	r0, [r3]
 5600              		.loc 1 440 6 discriminator 3
 5601 3c7e 07F52363 		add	r3, r7, #2608
 5602 3c82 D3E90023 		ldrd	r2, [r3]
 5603 3c86 82EA0004 		eor	r4, r2, r0
 5604 3c8a 3C60     		str	r4, [r7]
 5605 3c8c 4B40     		eors	r3, r3, r1
 5606 3c8e 7B60     		str	r3, [r7, #4]
 5607 3c90 D7E90034 		ldrd	r3, [r7]
 5608 3c94 07F60822 		addw	r2, r7, #2568
 5609 3c98 C2E90034 		strd	r3, [r2]
 441:shake.c       **** 		A[12] = c0;
 5610              		.loc 1 441 4 discriminator 3
 5611 3c9c D7F8FC39 		ldr	r3, [r7, #2556]
 5612 3ca0 03F16001 		add	r1, r3, #96
 5613              		.loc 1 441 9 discriminator 3
 5614 3ca4 07F62823 		addw	r3, r7, #2600
 5615 3ca8 D3E90023 		ldrd	r2, [r3]
 5616 3cac C1E90023 		strd	r2, [r1]
 442:shake.c       **** 		A[16] = c1;
 5617              		.loc 1 442 4 discriminator 3
 5618 3cb0 D7F8FC39 		ldr	r3, [r7, #2556]
 5619 3cb4 03F18001 		add	r1, r3, #128
 5620              		.loc 1 442 9 discriminator 3
 5621 3cb8 07F52263 		add	r3, r7, #2592
 5622 3cbc D3E90023 		ldrd	r2, [r3]
 5623 3cc0 C1E90023 		strd	r2, [r1]
 443:shake.c       **** 		A[20] = c2;
 5624              		.loc 1 443 4 discriminator 3
 5625 3cc4 D7F8FC39 		ldr	r3, [r7, #2556]
 5626 3cc8 03F1A001 		add	r1, r3, #160
 5627              		.loc 1 443 9 discriminator 3
 5628 3ccc 07F61823 		addw	r3, r7, #2584
 5629 3cd0 D3E90023 		ldrd	r2, [r3]
 5630 3cd4 C1E90023 		strd	r2, [r1]
 444:shake.c       **** 		A[ 4] = c3;
 5631              		.loc 1 444 4 discriminator 3
 5632 3cd8 D7F8FC39 		ldr	r3, [r7, #2556]
 5633 3cdc 03F12001 		add	r1, r3, #32
 5634              		.loc 1 444 9 discriminator 3
 5635 3ce0 07F52163 		add	r3, r7, #2576
 5636 3ce4 D3E90023 		ldrd	r2, [r3]
 5637 3ce8 C1E90023 		strd	r2, [r1]
 445:shake.c       **** 		A[ 8] = c4;
 5638              		.loc 1 445 4 discriminator 3
 5639 3cec D7F8FC39 		ldr	r3, [r7, #2556]
 5640 3cf0 03F14001 		add	r1, r3, #64
 5641              		.loc 1 445 9 discriminator 3
 5642 3cf4 07F60823 		addw	r3, r7, #2568
 5643 3cf8 D3E90023 		ldrd	r2, [r3]
 5644 3cfc C1E90023 		strd	r2, [r1]
 446:shake.c       **** 		A[ 0] = A[ 0] ^ RC[j + 1];
 5645              		.loc 1 446 12 discriminator 3
 5646 3d00 D7F8FC39 		ldr	r3, [r7, #2556]
 5647 3d04 D3E90001 		ldrd	r0, [r3]
 5648              		.loc 1 446 24 discriminator 3
 5649 3d08 D7F88C3A 		ldr	r3, [r7, #2700]
 5650 3d0c 0133     		adds	r3, r3, #1
 5651              		.loc 1 446 21 discriminator 3
 5652 3d0e 8D4A     		ldr	r2, .L7
 5653 3d10 DB00     		lsls	r3, r3, #3
 5654 3d12 1344     		add	r3, r3, r2
 5655 3d14 D3E90023 		ldrd	r2, [r3]
 5656              		.loc 1 446 17 discriminator 3
 5657 3d18 80EA0204 		eor	r4, r0, r2
 5658 3d1c C7F87046 		str	r4, [r7, #1648]
 5659 3d20 4B40     		eors	r3, r3, r1
 5660 3d22 C7F87436 		str	r3, [r7, #1652]
 5661              		.loc 1 446 9 discriminator 3
 5662 3d26 D7F8FC39 		ldr	r3, [r7, #2556]
 5663 3d2a 07F5CE62 		add	r2, r7, #1648
 5664 3d2e D2E90012 		ldrd	r1, [r2]
 5665 3d32 C3E90012 		strd	r1, [r3]
 447:shake.c       **** 		t = A[ 5];
 5666              		.loc 1 447 5 discriminator 3
 5667 3d36 D7F8FC39 		ldr	r3, [r7, #2556]
 5668 3d3a D3E90A23 		ldrd	r2, [r3, #40]
